
build/dhrystone21.elf:     file format elf32-littleriscv


Disassembly of section .text.init:

00000000 <SIM_EXIT-0xf4>:
	...

000000f4 <SIM_EXIT>:
  f4:	00000013          	nop

000000f8 <SIM_STOP>:
  f8:	0000006f          	j	f8 <SIM_STOP>
  fc:	ffff                	0xffff
  fe:	ffff                	0xffff

Disassembly of section .text:

00000100 <machine_trap_entry-0xc0>:
	...

000001c0 <machine_trap_entry>:
     1c0:	0760006f          	j	236 <trap_entry>
     1c4:	00000013          	nop
     1c8:	00000013          	nop
     1cc:	00000013          	nop
     1d0:	00000013          	nop
     1d4:	00000013          	nop
     1d8:	00000013          	nop
     1dc:	00000013          	nop
     1e0:	00000013          	nop
     1e4:	00000013          	nop
     1e8:	00000013          	nop
     1ec:	00000013          	nop
     1f0:	00000013          	nop
     1f4:	00000013          	nop
     1f8:	00000013          	nop
     1fc:	00000013          	nop

00000200 <_start>:
     200:	00003597          	auipc	a1,0x3
     204:	6c058593          	addi	a1,a1,1728 # 38c0 <__BSS_START__>
     208:	00003617          	auipc	a2,0x3
     20c:	6b860613          	addi	a2,a2,1720 # 38c0 <__BSS_START__>
     210:	a021                	j	218 <_start+0x18>
     212:	0005a023          	sw	zero,0(a1)
     216:	0591                	addi	a1,a1,4
     218:	fec59de3          	bne	a1,a2,212 <_start+0x12>
     21c:	6191                	lui	gp,0x4
     21e:	0a018193          	addi	gp,gp,160 # 40a0 <_gp>
     222:	00010117          	auipc	sp,0x10
     226:	dde10113          	addi	sp,sp,-546 # 10000 <__C_STACK_TOP__>
     22a:	4501                	li	a0,0
     22c:	4581                	li	a1,0
     22e:	566010ef          	jal	ra,1794 <main>
     232:	0960006f          	j	2c8 <handle_trap>

00000236 <trap_entry>:
     236:	716d                	addi	sp,sp,-272
     238:	c206                	sw	ra,4(sp)
     23a:	c40a                	sw	sp,8(sp)
     23c:	c60e                	sw	gp,12(sp)
     23e:	c812                	sw	tp,16(sp)
     240:	ca16                	sw	t0,20(sp)
     242:	cc1a                	sw	t1,24(sp)
     244:	ce1e                	sw	t2,28(sp)
     246:	d022                	sw	s0,32(sp)
     248:	d226                	sw	s1,36(sp)
     24a:	d42a                	sw	a0,40(sp)
     24c:	d62e                	sw	a1,44(sp)
     24e:	d832                	sw	a2,48(sp)
     250:	da36                	sw	a3,52(sp)
     252:	dc3a                	sw	a4,56(sp)
     254:	de3e                	sw	a5,60(sp)
     256:	c0c2                	sw	a6,64(sp)
     258:	c2c6                	sw	a7,68(sp)
     25a:	c4ca                	sw	s2,72(sp)
     25c:	c6ce                	sw	s3,76(sp)
     25e:	c8d2                	sw	s4,80(sp)
     260:	cad6                	sw	s5,84(sp)
     262:	ccda                	sw	s6,88(sp)
     264:	cede                	sw	s7,92(sp)
     266:	d0e2                	sw	s8,96(sp)
     268:	d2e6                	sw	s9,100(sp)
     26a:	d4ea                	sw	s10,104(sp)
     26c:	d6ee                	sw	s11,108(sp)
     26e:	d8f2                	sw	t3,112(sp)
     270:	daf6                	sw	t4,116(sp)
     272:	dcfa                	sw	t5,120(sp)
     274:	defe                	sw	t6,124(sp)
     276:	34202573          	csrr	a0,mcause
     27a:	341025f3          	csrr	a1,mepc
     27e:	860a                	mv	a2,sp
     280:	048000ef          	jal	ra,2c8 <handle_trap>
     284:	4092                	lw	ra,4(sp)
     286:	4122                	lw	sp,8(sp)
     288:	41b2                	lw	gp,12(sp)
     28a:	4242                	lw	tp,16(sp)
     28c:	42d2                	lw	t0,20(sp)
     28e:	4362                	lw	t1,24(sp)
     290:	43f2                	lw	t2,28(sp)
     292:	5402                	lw	s0,32(sp)
     294:	5492                	lw	s1,36(sp)
     296:	5522                	lw	a0,40(sp)
     298:	55b2                	lw	a1,44(sp)
     29a:	5642                	lw	a2,48(sp)
     29c:	56d2                	lw	a3,52(sp)
     29e:	5762                	lw	a4,56(sp)
     2a0:	57f2                	lw	a5,60(sp)
     2a2:	4806                	lw	a6,64(sp)
     2a4:	4896                	lw	a7,68(sp)
     2a6:	4926                	lw	s2,72(sp)
     2a8:	49b6                	lw	s3,76(sp)
     2aa:	4a46                	lw	s4,80(sp)
     2ac:	4ad6                	lw	s5,84(sp)
     2ae:	4b66                	lw	s6,88(sp)
     2b0:	4bf6                	lw	s7,92(sp)
     2b2:	5c06                	lw	s8,96(sp)
     2b4:	5c96                	lw	s9,100(sp)
     2b6:	5d26                	lw	s10,104(sp)
     2b8:	5db6                	lw	s11,108(sp)
     2ba:	5e46                	lw	t3,112(sp)
     2bc:	5ed6                	lw	t4,116(sp)
     2be:	5f66                	lw	t5,120(sp)
     2c0:	5ff6                	lw	t6,124(sp)
     2c2:	6151                	addi	sp,sp,272
     2c4:	30200073          	mret

000002c8 <handle_trap>:
     2c8:	e2dff06f          	j	f4 <SIM_EXIT>
	...

00000300 <printf_putch>:
     300:	04022803          	lw	a6,64(tp) # 40 <buflen.1744>
     304:	00020293          	mv	t0,tp
     308:	00180713          	addi	a4,a6,1
     30c:	01028333          	add	t1,t0,a6
     310:	04e22023          	sw	a4,64(tp) # 40 <buflen.1744>
     314:	00a30023          	sb	a0,0(t1)
     318:	00a00393          	li	t2,10
     31c:	00750863          	beq	a0,t2,32c <printf_putch+0x2c>
     320:	04000513          	li	a0,64
     324:	00a70663          	beq	a4,a0,330 <printf_putch+0x30>
     328:	00008067          	ret
     32c:	10e05463          	blez	a4,434 <STACK_SIZE+0x34>
     330:	00777e13          	andi	t3,a4,7
     334:	00020793          	mv	a5,tp
     338:	f0000eb7          	lui	t4,0xf0000
     33c:	fff70f13          	addi	t5,a4,-1
     340:	0a0e0463          	beqz	t3,3e8 <printf_putch+0xe8>
     344:	00100f93          	li	t6,1
     348:	09fe0663          	beq	t3,t6,3d4 <printf_putch+0xd4>
     34c:	00200593          	li	a1,2
     350:	06be0a63          	beq	t3,a1,3c4 <printf_putch+0xc4>
     354:	00300813          	li	a6,3
     358:	050e0e63          	beq	t3,a6,3b4 <printf_putch+0xb4>
     35c:	00400693          	li	a3,4
     360:	04de0263          	beq	t3,a3,3a4 <printf_putch+0xa4>
     364:	00500293          	li	t0,5
     368:	025e0663          	beq	t3,t0,394 <printf_putch+0x94>
     36c:	00600313          	li	t1,6
     370:	006e0a63          	beq	t3,t1,384 <printf_putch+0x84>
     374:	0007c383          	lbu	t2,0(a5)
     378:	000f0713          	mv	a4,t5
     37c:	00178793          	addi	a5,a5,1
     380:	007e8023          	sb	t2,0(t4) # f0000000 <__C_STACK_TOP__+0xefff0000>
     384:	0007c503          	lbu	a0,0(a5)
     388:	fff70713          	addi	a4,a4,-1
     38c:	00178793          	addi	a5,a5,1
     390:	00ae8023          	sb	a0,0(t4)
     394:	0007c883          	lbu	a7,0(a5)
     398:	fff70713          	addi	a4,a4,-1
     39c:	00178793          	addi	a5,a5,1
     3a0:	011e8023          	sb	a7,0(t4)
     3a4:	0007ce03          	lbu	t3,0(a5)
     3a8:	fff70713          	addi	a4,a4,-1
     3ac:	00178793          	addi	a5,a5,1
     3b0:	01ce8023          	sb	t3,0(t4)
     3b4:	0007cf03          	lbu	t5,0(a5)
     3b8:	fff70713          	addi	a4,a4,-1
     3bc:	00178793          	addi	a5,a5,1
     3c0:	01ee8023          	sb	t5,0(t4)
     3c4:	0007cf83          	lbu	t6,0(a5)
     3c8:	fff70713          	addi	a4,a4,-1
     3cc:	00178793          	addi	a5,a5,1
     3d0:	01fe8023          	sb	t6,0(t4)
     3d4:	00178793          	addi	a5,a5,1
     3d8:	fff7c583          	lbu	a1,-1(a5)
     3dc:	fff70713          	addi	a4,a4,-1
     3e0:	00be8023          	sb	a1,0(t4)
     3e4:	04070863          	beqz	a4,434 <STACK_SIZE+0x34>
     3e8:	0007c803          	lbu	a6,0(a5)
     3ec:	00878793          	addi	a5,a5,8
     3f0:	ff870713          	addi	a4,a4,-8
     3f4:	010e8023          	sb	a6,0(t4)
     3f8:	ff97c683          	lbu	a3,-7(a5)
     3fc:	00de8023          	sb	a3,0(t4)
     400:	ffa7c283          	lbu	t0,-6(a5)
     404:	005e8023          	sb	t0,0(t4)
     408:	ffb7c303          	lbu	t1,-5(a5)
     40c:	006e8023          	sb	t1,0(t4)
     410:	ffc7c383          	lbu	t2,-4(a5)
     414:	007e8023          	sb	t2,0(t4)
     418:	ffd7c503          	lbu	a0,-3(a5)
     41c:	00ae8023          	sb	a0,0(t4)
     420:	ffe7c883          	lbu	a7,-2(a5)
     424:	011e8023          	sb	a7,0(t4)
     428:	fff7ce03          	lbu	t3,-1(a5)
     42c:	01ce8023          	sb	t3,0(t4)
     430:	fa071ce3          	bnez	a4,3e8 <printf_putch+0xe8>
     434:	04022023          	sw	zero,64(tp) # 40 <buflen.1744>
     438:	00008067          	ret

0000043c <vprintfmt.constprop.1>:
     43c:	eb010113          	addi	sp,sp,-336
     440:	15212023          	sw	s2,320(sp)
     444:	14112623          	sw	ra,332(sp)
     448:	14812423          	sw	s0,328(sp)
     44c:	13512a23          	sw	s5,308(sp)
     450:	11b12e23          	sw	s11,284(sp)
     454:	00020a93          	mv	s5,tp
     458:	06100093          	li	ra,97
     45c:	00004db7          	lui	s11,0x4
     460:	13312e23          	sw	s3,316(sp)
     464:	14912223          	sw	s1,324(sp)
     468:	13412c23          	sw	s4,312(sp)
     46c:	13612823          	sw	s6,304(sp)
     470:	13712623          	sw	s7,300(sp)
     474:	13812423          	sw	s8,296(sp)
     478:	13912223          	sw	s9,292(sp)
     47c:	13a12023          	sw	s10,288(sp)
     480:	00f12223          	sw	a5,4(sp)
     484:	00a12423          	sw	a0,8(sp)
     488:	00112623          	sw	ra,12(sp)
     48c:	878d8d93          	addi	s11,s11,-1928 # 3878 <__clz_tab+0x100>
     490:	040a8993          	addi	s3,s5,64
     494:	000dc283          	lbu	t0,0(s11)
     498:	02500713          	li	a4,37
     49c:	12e28c63          	beq	t0,a4,5d4 <vprintfmt.constprop.1+0x198>
     4a0:	18028663          	beqz	t0,62c <vprintfmt.constprop.1+0x1f0>
     4a4:	04022303          	lw	t1,64(tp) # 40 <buflen.1744>
     4a8:	00a00493          	li	s1,10
     4ac:	001d8d93          	addi	s11,s11,1
     4b0:	00130713          	addi	a4,t1,1
     4b4:	006a8eb3          	add	t4,s5,t1
     4b8:	04e22023          	sw	a4,64(tp) # 40 <buflen.1744>
     4bc:	005e8023          	sb	t0,0(t4)
     4c0:	16928063          	beq	t0,s1,620 <vprintfmt.constprop.1+0x1e4>
     4c4:	04000593          	li	a1,64
     4c8:	fcb716e3          	bne	a4,a1,494 <vprintfmt.constprop.1+0x58>
     4cc:	00412503          	lw	a0,4(sp)
     4d0:	00777b13          	andi	s6,a4,7
     4d4:	f0000a37          	lui	s4,0xf0000
     4d8:	00020793          	mv	a5,tp
     4dc:	fff70d13          	addi	s10,a4,-1
     4e0:	080b0c63          	beqz	s6,578 <vprintfmt.constprop.1+0x13c>
     4e4:	00100693          	li	a3,1
     4e8:	06db0e63          	beq	s6,a3,564 <vprintfmt.constprop.1+0x128>
     4ec:	00200893          	li	a7,2
     4f0:	071b0263          	beq	s6,a7,554 <vprintfmt.constprop.1+0x118>
     4f4:	00300093          	li	ra,3
     4f8:	041b0663          	beq	s6,ra,544 <vprintfmt.constprop.1+0x108>
     4fc:	00400c13          	li	s8,4
     500:	038b0a63          	beq	s6,s8,534 <vprintfmt.constprop.1+0xf8>
     504:	00500b93          	li	s7,5
     508:	017b0e63          	beq	s6,s7,524 <vprintfmt.constprop.1+0xe8>
     50c:	00600913          	li	s2,6
     510:	152b1c63          	bne	s6,s2,668 <vprintfmt.constprop.1+0x22c>
     514:	0007c383          	lbu	t2,0(a5)
     518:	fff70713          	addi	a4,a4,-1
     51c:	00178793          	addi	a5,a5,1
     520:	007a0023          	sb	t2,0(s4) # f0000000 <__C_STACK_TOP__+0xefff0000>
     524:	0007cf83          	lbu	t6,0(a5)
     528:	fff70713          	addi	a4,a4,-1
     52c:	00178793          	addi	a5,a5,1
     530:	01fa0023          	sb	t6,0(s4)
     534:	0007cf03          	lbu	t5,0(a5)
     538:	fff70713          	addi	a4,a4,-1
     53c:	00178793          	addi	a5,a5,1
     540:	01ea0023          	sb	t5,0(s4)
     544:	0007c803          	lbu	a6,0(a5)
     548:	fff70713          	addi	a4,a4,-1
     54c:	00178793          	addi	a5,a5,1
     550:	010a0023          	sb	a6,0(s4)
     554:	0007c283          	lbu	t0,0(a5)
     558:	fff70713          	addi	a4,a4,-1
     55c:	00178793          	addi	a5,a5,1
     560:	005a0023          	sb	t0,0(s4)
     564:	00178793          	addi	a5,a5,1
     568:	fff7c603          	lbu	a2,-1(a5)
     56c:	fff70713          	addi	a4,a4,-1
     570:	00ca0023          	sb	a2,0(s4)
     574:	04070863          	beqz	a4,5c4 <vprintfmt.constprop.1+0x188>
     578:	0007cc83          	lbu	s9,0(a5)
     57c:	00878793          	addi	a5,a5,8
     580:	ff870713          	addi	a4,a4,-8
     584:	019a0023          	sb	s9,0(s4)
     588:	ff97c303          	lbu	t1,-7(a5)
     58c:	006a0023          	sb	t1,0(s4)
     590:	ffa7c483          	lbu	s1,-6(a5)
     594:	009a0023          	sb	s1,0(s4)
     598:	ffb7ce83          	lbu	t4,-5(a5)
     59c:	01da0023          	sb	t4,0(s4)
     5a0:	ffc7c583          	lbu	a1,-4(a5)
     5a4:	00ba0023          	sb	a1,0(s4)
     5a8:	ffd7cb03          	lbu	s6,-3(a5)
     5ac:	016a0023          	sb	s6,0(s4)
     5b0:	ffe7c503          	lbu	a0,-2(a5)
     5b4:	00aa0023          	sb	a0,0(s4)
     5b8:	fff7cd03          	lbu	s10,-1(a5)
     5bc:	01aa0023          	sb	s10,0(s4)
     5c0:	fa071ce3          	bnez	a4,578 <vprintfmt.constprop.1+0x13c>
     5c4:	04022023          	sw	zero,64(tp) # 40 <buflen.1744>
     5c8:	000dc283          	lbu	t0,0(s11)
     5cc:	02500713          	li	a4,37
     5d0:	ece298e3          	bne	t0,a4,4a0 <vprintfmt.constprop.1+0x64>
     5d4:	001dc603          	lbu	a2,1(s11)
     5d8:	001d8313          	addi	t1,s11,1
     5dc:	000036b7          	lui	a3,0x3
     5e0:	00030f13          	mv	t5,t1
     5e4:	02000b93          	li	s7,32
     5e8:	fff00493          	li	s1,-1
     5ec:	fff00c13          	li	s8,-1
     5f0:	00000913          	li	s2,0
     5f4:	05500893          	li	a7,85
     5f8:	62068693          	addi	a3,a3,1568 # 3620 <__umoddi3+0x414>
     5fc:	00900093          	li	ra,9
     600:	fdd60393          	addi	t2,a2,-35
     604:	0ff3f593          	andi	a1,t2,255
     608:	001f0d93          	addi	s11,t5,1
     60c:	7cb8e663          	bltu	a7,a1,dd8 <vprintfmt.constprop.1+0x99c>
     610:	00259813          	slli	a6,a1,0x2
     614:	00d80a33          	add	s4,a6,a3
     618:	000a2b03          	lw	s6,0(s4)
     61c:	000b0067          	jr	s6
     620:	eae046e3          	bgtz	a4,4cc <vprintfmt.constprop.1+0x90>
     624:	04022023          	sw	zero,64(tp) # 40 <buflen.1744>
     628:	fa1ff06f          	j	5c8 <vprintfmt.constprop.1+0x18c>
     62c:	14c12083          	lw	ra,332(sp)
     630:	14812403          	lw	s0,328(sp)
     634:	14412483          	lw	s1,324(sp)
     638:	14012903          	lw	s2,320(sp)
     63c:	13c12983          	lw	s3,316(sp)
     640:	13812a03          	lw	s4,312(sp)
     644:	13412a83          	lw	s5,308(sp)
     648:	13012b03          	lw	s6,304(sp)
     64c:	12c12b83          	lw	s7,300(sp)
     650:	12812c03          	lw	s8,296(sp)
     654:	12412c83          	lw	s9,292(sp)
     658:	12012d03          	lw	s10,288(sp)
     65c:	11c12d83          	lw	s11,284(sp)
     660:	15010113          	addi	sp,sp,336
     664:	00008067          	ret
     668:	0007ce03          	lbu	t3,0(a5)
     66c:	000d0713          	mv	a4,s10
     670:	00178793          	addi	a5,a5,1
     674:	01ca0023          	sb	t3,0(s4)
     678:	e9dff06f          	j	514 <vprintfmt.constprop.1+0xd8>
     67c:	06100313          	li	t1,97
     680:	01000c93          	li	s9,16
     684:	00000d13          	li	s10,0
     688:	00612623          	sw	t1,12(sp)
     68c:	00100693          	li	a3,1
     690:	3d26d863          	ble	s2,a3,a60 <vprintfmt.constprop.1+0x624>
     694:	00812583          	lw	a1,8(sp)
     698:	00758493          	addi	s1,a1,7
     69c:	ff84fe93          	andi	t4,s1,-8
     6a0:	000ea903          	lw	s2,0(t4)
     6a4:	004eab03          	lw	s6,4(t4)
     6a8:	008e8513          	addi	a0,t4,8
     6ac:	00a12423          	sw	a0,8(sp)
     6b0:	000c8613          	mv	a2,s9
     6b4:	00000693          	li	a3,0
     6b8:	00090513          	mv	a0,s2
     6bc:	000b0593          	mv	a1,s6
     6c0:	34d020ef          	jal	ra,320c <__umoddi3>
     6c4:	00a12823          	sw	a0,16(sp)
     6c8:	456d0c63          	beq	s10,s6,b20 <vprintfmt.constprop.1+0x6e4>
     6cc:	01410a13          	addi	s4,sp,20
     6d0:	00100493          	li	s1,1
     6d4:	000c8613          	mv	a2,s9
     6d8:	00000693          	li	a3,0
     6dc:	00090513          	mv	a0,s2
     6e0:	000b0593          	mv	a1,s6
     6e4:	6f4020ef          	jal	ra,2dd8 <__udivdi3>
     6e8:	000c8613          	mv	a2,s9
     6ec:	00000693          	li	a3,0
     6f0:	00050913          	mv	s2,a0
     6f4:	00058b13          	mv	s6,a1
     6f8:	315020ef          	jal	ra,320c <__umoddi3>
     6fc:	00aa2023          	sw	a0,0(s4)
     700:	00148493          	addi	s1,s1,1
     704:	004a0a13          	addi	s4,s4,4
     708:	fd6d16e3          	bne	s10,s6,6d4 <vprintfmt.constprop.1+0x298>
     70c:	fd9974e3          	bleu	s9,s2,6d4 <vprintfmt.constprop.1+0x298>
     710:	04000313          	li	t1,64
     714:	f0000cb7          	lui	s9,0xf0000
     718:	0384d263          	ble	s8,s1,73c <vprintfmt.constprop.1+0x300>
     71c:	04022083          	lw	ra,64(tp) # 40 <buflen.1744>
     720:	00108e13          	addi	t3,ra,1
     724:	001a83b3          	add	t2,s5,ra
     728:	05c22023          	sw	t3,64(tp) # 40 <buflen.1744>
     72c:	01738023          	sb	s7,0(t2)
     730:	066e0a63          	beq	t3,t1,7a4 <vprintfmt.constprop.1+0x368>
     734:	fffc0c13          	addi	s8,s8,-1
     738:	ff84c2e3          	blt	s1,s8,71c <vprintfmt.constprop.1+0x2e0>
     73c:	00c12c03          	lw	s8,12(sp)
     740:	00249d13          	slli	s10,s1,0x2
     744:	11010893          	addi	a7,sp,272
     748:	01a88fb3          	add	t6,a7,s10
     74c:	efcf8793          	addi	a5,t6,-260
     750:	00c10313          	addi	t1,sp,12
     754:	00900b93          	li	s7,9
     758:	ff6c0393          	addi	t2,s8,-10
     75c:	00a00093          	li	ra,10
     760:	f0000cb7          	lui	s9,0xf0000
     764:	04000e13          	li	t3,64
     768:	d2f306e3          	beq	t1,a5,494 <vprintfmt.constprop.1+0x58>
     76c:	0007a703          	lw	a4,0(a5)
     770:	03000f13          	li	t5,48
     774:	00ebf463          	bleu	a4,s7,77c <vprintfmt.constprop.1+0x340>
     778:	00038f13          	mv	t5,t2
     77c:	04022803          	lw	a6,64(tp) # 40 <buflen.1744>
     780:	01e702b3          	add	t0,a4,t5
     784:	00180693          	addi	a3,a6,1
     788:	010a8633          	add	a2,s5,a6
     78c:	04d22023          	sw	a3,64(tp) # 40 <buflen.1744>
     790:	00560023          	sb	t0,0(a2)
     794:	0a128ee3          	beq	t0,ra,1050 <vprintfmt.constprop.1+0xc14>
     798:	0bc68ee3          	beq	a3,t3,1054 <vprintfmt.constprop.1+0xc18>
     79c:	ffc78793          	addi	a5,a5,-4
     7a0:	fc9ff06f          	j	768 <vprintfmt.constprop.1+0x32c>
     7a4:	41598fb3          	sub	t6,s3,s5
     7a8:	007fff13          	andi	t5,t6,7
     7ac:	000a8893          	mv	a7,s5
     7b0:	080f0663          	beqz	t5,83c <vprintfmt.constprop.1+0x400>
     7b4:	00100813          	li	a6,1
     7b8:	070f0a63          	beq	t5,a6,82c <vprintfmt.constprop.1+0x3f0>
     7bc:	00200293          	li	t0,2
     7c0:	065f0063          	beq	t5,t0,820 <vprintfmt.constprop.1+0x3e4>
     7c4:	00300613          	li	a2,3
     7c8:	04cf0663          	beq	t5,a2,814 <vprintfmt.constprop.1+0x3d8>
     7cc:	00400713          	li	a4,4
     7d0:	02ef0c63          	beq	t5,a4,808 <vprintfmt.constprop.1+0x3cc>
     7d4:	00500593          	li	a1,5
     7d8:	02bf0263          	beq	t5,a1,7fc <vprintfmt.constprop.1+0x3c0>
     7dc:	00600693          	li	a3,6
     7e0:	00df0863          	beq	t5,a3,7f0 <vprintfmt.constprop.1+0x3b4>
     7e4:	000ace83          	lbu	t4,0(s5)
     7e8:	001a8893          	addi	a7,s5,1
     7ec:	01dc8023          	sb	t4,0(s9) # f0000000 <__C_STACK_TOP__+0xefff0000>
     7f0:	0008c503          	lbu	a0,0(a7)
     7f4:	00188893          	addi	a7,a7,1
     7f8:	00ac8023          	sb	a0,0(s9)
     7fc:	0008c903          	lbu	s2,0(a7)
     800:	00188893          	addi	a7,a7,1
     804:	012c8023          	sb	s2,0(s9)
     808:	0008cb03          	lbu	s6,0(a7)
     80c:	00188893          	addi	a7,a7,1
     810:	016c8023          	sb	s6,0(s9)
     814:	0008ca03          	lbu	s4,0(a7)
     818:	00188893          	addi	a7,a7,1
     81c:	014c8023          	sb	s4,0(s9)
     820:	0008cd03          	lbu	s10,0(a7)
     824:	00188893          	addi	a7,a7,1
     828:	01ac8023          	sb	s10,0(s9)
     82c:	00188893          	addi	a7,a7,1
     830:	fff8c783          	lbu	a5,-1(a7)
     834:	00fc8023          	sb	a5,0(s9)
     838:	05388663          	beq	a7,s3,884 <vprintfmt.constprop.1+0x448>
     83c:	0008c083          	lbu	ra,0(a7)
     840:	00888893          	addi	a7,a7,8
     844:	001c8023          	sb	ra,0(s9)
     848:	ff98ce03          	lbu	t3,-7(a7)
     84c:	01cc8023          	sb	t3,0(s9)
     850:	ffa8c383          	lbu	t2,-6(a7)
     854:	007c8023          	sb	t2,0(s9)
     858:	ffb8cf83          	lbu	t6,-5(a7)
     85c:	01fc8023          	sb	t6,0(s9)
     860:	ffc8cf03          	lbu	t5,-4(a7)
     864:	01ec8023          	sb	t5,0(s9)
     868:	ffd8c803          	lbu	a6,-3(a7)
     86c:	010c8023          	sb	a6,0(s9)
     870:	ffe8c283          	lbu	t0,-2(a7)
     874:	005c8023          	sb	t0,0(s9)
     878:	fff8c603          	lbu	a2,-1(a7)
     87c:	00cc8023          	sb	a2,0(s9)
     880:	fb389ee3          	bne	a7,s3,83c <vprintfmt.constprop.1+0x400>
     884:	04022023          	sw	zero,64(tp) # 40 <buflen.1744>
     888:	fffc0c13          	addi	s8,s8,-1
     88c:	eadff06f          	j	738 <vprintfmt.constprop.1+0x2fc>
     890:	001f4603          	lbu	a2,1(t5)
     894:	000d8f13          	mv	t5,s11
     898:	d69ff06f          	j	600 <vprintfmt.constprop.1+0x1c4>
     89c:	04022c03          	lw	s8,64(tp) # 40 <buflen.1744>
     8a0:	02500393          	li	t2,37
     8a4:	04000b93          	li	s7,64
     8a8:	001c0913          	addi	s2,s8,1
     8ac:	018a8e33          	add	t3,s5,s8
     8b0:	05222023          	sw	s2,64(tp) # 40 <buflen.1744>
     8b4:	007e0023          	sb	t2,0(t3)
     8b8:	bd791ee3          	bne	s2,s7,494 <vprintfmt.constprop.1+0x58>
     8bc:	41598fb3          	sub	t6,s3,s5
     8c0:	007fff13          	andi	t5,t6,7
     8c4:	000a8793          	mv	a5,s5
     8c8:	f0000837          	lui	a6,0xf0000
     8cc:	080f0663          	beqz	t5,958 <vprintfmt.constprop.1+0x51c>
     8d0:	00100293          	li	t0,1
     8d4:	065f0a63          	beq	t5,t0,948 <vprintfmt.constprop.1+0x50c>
     8d8:	00200613          	li	a2,2
     8dc:	06cf0063          	beq	t5,a2,93c <vprintfmt.constprop.1+0x500>
     8e0:	00300c93          	li	s9,3
     8e4:	059f0663          	beq	t5,s9,930 <vprintfmt.constprop.1+0x4f4>
     8e8:	00400493          	li	s1,4
     8ec:	029f0c63          	beq	t5,s1,924 <vprintfmt.constprop.1+0x4e8>
     8f0:	00500713          	li	a4,5
     8f4:	02ef0263          	beq	t5,a4,918 <vprintfmt.constprop.1+0x4dc>
     8f8:	00600e93          	li	t4,6
     8fc:	01df0863          	beq	t5,t4,90c <vprintfmt.constprop.1+0x4d0>
     900:	000ac583          	lbu	a1,0(s5)
     904:	001a8793          	addi	a5,s5,1
     908:	00b80023          	sb	a1,0(a6) # f0000000 <__C_STACK_TOP__+0xefff0000>
     90c:	0007c503          	lbu	a0,0(a5)
     910:	00178793          	addi	a5,a5,1
     914:	00a80023          	sb	a0,0(a6)
     918:	0007cb03          	lbu	s6,0(a5)
     91c:	00178793          	addi	a5,a5,1
     920:	01680023          	sb	s6,0(a6)
     924:	0007ca03          	lbu	s4,0(a5)
     928:	00178793          	addi	a5,a5,1
     92c:	01480023          	sb	s4,0(a6)
     930:	0007cd03          	lbu	s10,0(a5)
     934:	00178793          	addi	a5,a5,1
     938:	01a80023          	sb	s10,0(a6)
     93c:	0007c303          	lbu	t1,0(a5)
     940:	00178793          	addi	a5,a5,1
     944:	00680023          	sb	t1,0(a6)
     948:	00178793          	addi	a5,a5,1
     94c:	fff7c683          	lbu	a3,-1(a5)
     950:	00d80023          	sb	a3,0(a6)
     954:	c73788e3          	beq	a5,s3,5c4 <vprintfmt.constprop.1+0x188>
     958:	0007c883          	lbu	a7,0(a5)
     95c:	00878793          	addi	a5,a5,8
     960:	01180023          	sb	a7,0(a6)
     964:	ff97c083          	lbu	ra,-7(a5)
     968:	00180023          	sb	ra,0(a6)
     96c:	ffa7cc03          	lbu	s8,-6(a5)
     970:	01880023          	sb	s8,0(a6)
     974:	ffb7cb83          	lbu	s7,-5(a5)
     978:	01780023          	sb	s7,0(a6)
     97c:	ffc7c903          	lbu	s2,-4(a5)
     980:	01280023          	sb	s2,0(a6)
     984:	ffd7ce03          	lbu	t3,-3(a5)
     988:	01c80023          	sb	t3,0(a6)
     98c:	ffe7c383          	lbu	t2,-2(a5)
     990:	00780023          	sb	t2,0(a6)
     994:	fff7cf83          	lbu	t6,-1(a5)
     998:	01f80023          	sb	t6,0(a6)
     99c:	fb379ee3          	bne	a5,s3,958 <vprintfmt.constprop.1+0x51c>
     9a0:	c25ff06f          	j	5c4 <vprintfmt.constprop.1+0x188>
     9a4:	00812d03          	lw	s10,8(sp)
     9a8:	001f4603          	lbu	a2,1(t5)
     9ac:	000d8f13          	mv	t5,s11
     9b0:	000d2483          	lw	s1,0(s10)
     9b4:	004d0793          	addi	a5,s10,4
     9b8:	00f12423          	sw	a5,8(sp)
     9bc:	c40c52e3          	bgez	s8,600 <vprintfmt.constprop.1+0x1c4>
     9c0:	00048c13          	mv	s8,s1
     9c4:	fff00493          	li	s1,-1
     9c8:	c39ff06f          	j	600 <vprintfmt.constprop.1+0x1c4>
     9cc:	001f4603          	lbu	a2,1(t5)
     9d0:	02d00b93          	li	s7,45
     9d4:	000d8f13          	mv	t5,s11
     9d8:	c29ff06f          	j	600 <vprintfmt.constprop.1+0x1c4>
     9dc:	fffc4b13          	not	s6,s8
     9e0:	41fb5a13          	srai	s4,s6,0x1f
     9e4:	001f4603          	lbu	a2,1(t5)
     9e8:	014c7c33          	and	s8,s8,s4
     9ec:	000d8f13          	mv	t5,s11
     9f0:	c11ff06f          	j	600 <vprintfmt.constprop.1+0x1c4>
     9f4:	001f4603          	lbu	a2,1(t5)
     9f8:	03000b93          	li	s7,48
     9fc:	000d8f13          	mv	t5,s11
     a00:	c01ff06f          	j	600 <vprintfmt.constprop.1+0x1c4>
     a04:	001f4583          	lbu	a1,1(t5)
     a08:	fd060493          	addi	s1,a2,-48
     a0c:	000d8f13          	mv	t5,s11
     a10:	fd058c93          	addi	s9,a1,-48
     a14:	00058613          	mv	a2,a1
     a18:	fb90e2e3          	bltu	ra,s9,9bc <vprintfmt.constprop.1+0x580>
     a1c:	00249d93          	slli	s11,s1,0x2
     a20:	009d84b3          	add	s1,s11,s1
     a24:	00149713          	slli	a4,s1,0x1
     a28:	001f0f13          	addi	t5,t5,1
     a2c:	00b70eb3          	add	t4,a4,a1
     a30:	000f4583          	lbu	a1,0(t5)
     a34:	fd0e8493          	addi	s1,t4,-48
     a38:	fd058513          	addi	a0,a1,-48
     a3c:	00058613          	mv	a2,a1
     a40:	fca0fee3          	bleu	a0,ra,a1c <vprintfmt.constprop.1+0x5e0>
     a44:	f79ff06f          	j	9bc <vprintfmt.constprop.1+0x580>
     a48:	04100293          	li	t0,65
     a4c:	00512623          	sw	t0,12(sp)
     a50:	00100693          	li	a3,1
     a54:	01000c93          	li	s9,16
     a58:	00000d13          	li	s10,0
     a5c:	c326cce3          	blt	a3,s2,694 <vprintfmt.constprop.1+0x258>
     a60:	00812903          	lw	s2,8(sp)
     a64:	00490613          	addi	a2,s2,4
     a68:	2180006f          	j	c80 <vprintfmt.constprop.1+0x844>
     a6c:	00812b83          	lw	s7,8(sp)
     a70:	04022c03          	lw	s8,64(tp) # 40 <buflen.1744>
     a74:	00a00f13          	li	t5,10
     a78:	000ba303          	lw	t1,0(s7)
     a7c:	001c0793          	addi	a5,s8,1
     a80:	018a8a33          	add	s4,s5,s8
     a84:	04f22023          	sw	a5,64(tp) # 40 <buflen.1744>
     a88:	006a0023          	sb	t1,0(s4)
     a8c:	004b8913          	addi	s2,s7,4
     a90:	4be30463          	beq	t1,t5,f38 <vprintfmt.constprop.1+0xafc>
     a94:	04000c93          	li	s9,64
     a98:	4b978263          	beq	a5,s9,f3c <vprintfmt.constprop.1+0xb00>
     a9c:	01212423          	sw	s2,8(sp)
     aa0:	9f5ff06f          	j	494 <vprintfmt.constprop.1+0x58>
     aa4:	00100a13          	li	s4,1
     aa8:	0f2a54e3          	ble	s2,s4,1390 <vprintfmt.constprop.1+0xf54>
     aac:	00812703          	lw	a4,8(sp)
     ab0:	00770093          	addi	ra,a4,7
     ab4:	ff80f293          	andi	t0,ra,-8
     ab8:	0002af83          	lw	t6,0(t0)
     abc:	0042ab03          	lw	s6,4(t0)
     ac0:	00828793          	addi	a5,t0,8
     ac4:	00f12423          	sw	a5,8(sp)
     ac8:	320b5ae3          	bgez	s6,15fc <vprintfmt.constprop.1+0x11c0>
     acc:	04022383          	lw	t2,64(tp) # 40 <buflen.1744>
     ad0:	02d00593          	li	a1,45
     ad4:	04000813          	li	a6,64
     ad8:	00138693          	addi	a3,t2,1
     adc:	007a8d33          	add	s10,s5,t2
     ae0:	04d22023          	sw	a3,64(tp) # 40 <buflen.1744>
     ae4:	00bd0023          	sb	a1,0(s10)
     ae8:	230684e3          	beq	a3,a6,1510 <vprintfmt.constprop.1+0x10d4>
     aec:	41f00933          	neg	s2,t6
     af0:	01203fb3          	snez	t6,s2
     af4:	41600b33          	neg	s6,s6
     af8:	41fb0b33          	sub	s6,s6,t6
     afc:	00a00c93          	li	s9,10
     b00:	000c8613          	mv	a2,s9
     b04:	00000693          	li	a3,0
     b08:	00090513          	mv	a0,s2
     b0c:	000b0593          	mv	a1,s6
     b10:	6fc020ef          	jal	ra,320c <__umoddi3>
     b14:	00000d13          	li	s10,0
     b18:	00a12823          	sw	a0,16(sp)
     b1c:	bb6d18e3          	bne	s10,s6,6cc <vprintfmt.constprop.1+0x290>
     b20:	bb9976e3          	bleu	s9,s2,6cc <vprintfmt.constprop.1+0x290>
     b24:	00100493          	li	s1,1
     b28:	be9ff06f          	j	710 <vprintfmt.constprop.1+0x2d4>
     b2c:	001f4603          	lbu	a2,1(t5)
     b30:	00190913          	addi	s2,s2,1
     b34:	000d8f13          	mv	t5,s11
     b38:	ac9ff06f          	j	600 <vprintfmt.constprop.1+0x1c4>
     b3c:	00800c93          	li	s9,8
     b40:	00000d13          	li	s10,0
     b44:	b49ff06f          	j	68c <vprintfmt.constprop.1+0x250>
     b48:	04022903          	lw	s2,64(tp) # 40 <buflen.1744>
     b4c:	00812703          	lw	a4,8(sp)
     b50:	03000e13          	li	t3,48
     b54:	012a8f33          	add	t5,s5,s2
     b58:	04000a13          	li	s4,64
     b5c:	00190c93          	addi	s9,s2,1
     b60:	01cf0023          	sb	t3,0(t5)
     b64:	00470613          	addi	a2,a4,4
     b68:	734c8663          	beq	s9,s4,1294 <vprintfmt.constprop.1+0xe58>
     b6c:	00290f93          	addi	t6,s2,2
     b70:	019a80b3          	add	ra,s5,s9
     b74:	07800293          	li	t0,120
     b78:	05f22023          	sw	t6,64(tp) # 40 <buflen.1744>
     b7c:	00508023          	sb	t0,0(ra)
     b80:	000a8793          	mv	a5,s5
     b84:	0f4f9463          	bne	t6,s4,c6c <vprintfmt.constprop.1+0x830>
     b88:	415986b3          	sub	a3,s3,s5
     b8c:	0076f393          	andi	t2,a3,7
     b90:	f0000837          	lui	a6,0xf0000
     b94:	08038663          	beqz	t2,c20 <vprintfmt.constprop.1+0x7e4>
     b98:	00100593          	li	a1,1
     b9c:	06b38a63          	beq	t2,a1,c10 <vprintfmt.constprop.1+0x7d4>
     ba0:	00200b13          	li	s6,2
     ba4:	07638063          	beq	t2,s6,c04 <vprintfmt.constprop.1+0x7c8>
     ba8:	00300d13          	li	s10,3
     bac:	05a38663          	beq	t2,s10,bf8 <vprintfmt.constprop.1+0x7bc>
     bb0:	00400313          	li	t1,4
     bb4:	02638c63          	beq	t2,t1,bec <vprintfmt.constprop.1+0x7b0>
     bb8:	00500493          	li	s1,5
     bbc:	02938263          	beq	t2,s1,be0 <vprintfmt.constprop.1+0x7a4>
     bc0:	00600e93          	li	t4,6
     bc4:	01d38863          	beq	t2,t4,bd4 <vprintfmt.constprop.1+0x798>
     bc8:	000ac503          	lbu	a0,0(s5)
     bcc:	001a8793          	addi	a5,s5,1
     bd0:	00a80023          	sb	a0,0(a6) # f0000000 <__C_STACK_TOP__+0xefff0000>
     bd4:	0007c883          	lbu	a7,0(a5)
     bd8:	00178793          	addi	a5,a5,1
     bdc:	01180023          	sb	a7,0(a6)
     be0:	0007c903          	lbu	s2,0(a5)
     be4:	00178793          	addi	a5,a5,1
     be8:	01280023          	sb	s2,0(a6)
     bec:	0007ca03          	lbu	s4,0(a5)
     bf0:	00178793          	addi	a5,a5,1
     bf4:	01480023          	sb	s4,0(a6)
     bf8:	0007cf03          	lbu	t5,0(a5)
     bfc:	00178793          	addi	a5,a5,1
     c00:	01e80023          	sb	t5,0(a6)
     c04:	0007cc83          	lbu	s9,0(a5)
     c08:	00178793          	addi	a5,a5,1
     c0c:	01980023          	sb	s9,0(a6)
     c10:	00178793          	addi	a5,a5,1
     c14:	fff7ce03          	lbu	t3,-1(a5)
     c18:	01c80023          	sb	t3,0(a6)
     c1c:	05378663          	beq	a5,s3,c68 <vprintfmt.constprop.1+0x82c>
     c20:	0007c703          	lbu	a4,0(a5)
     c24:	00878793          	addi	a5,a5,8
     c28:	00e80023          	sb	a4,0(a6)
     c2c:	ff97cf83          	lbu	t6,-7(a5)
     c30:	01f80023          	sb	t6,0(a6)
     c34:	ffa7c083          	lbu	ra,-6(a5)
     c38:	00180023          	sb	ra,0(a6)
     c3c:	ffb7c283          	lbu	t0,-5(a5)
     c40:	00580023          	sb	t0,0(a6)
     c44:	ffc7c683          	lbu	a3,-4(a5)
     c48:	00d80023          	sb	a3,0(a6)
     c4c:	ffd7c383          	lbu	t2,-3(a5)
     c50:	00780023          	sb	t2,0(a6)
     c54:	ffe7c583          	lbu	a1,-2(a5)
     c58:	00b80023          	sb	a1,0(a6)
     c5c:	fff7cb03          	lbu	s6,-1(a5)
     c60:	01680023          	sb	s6,0(a6)
     c64:	fb379ee3          	bne	a5,s3,c20 <vprintfmt.constprop.1+0x7e4>
     c68:	04022023          	sw	zero,64(tp) # 40 <buflen.1744>
     c6c:	00812903          	lw	s2,8(sp)
     c70:	06100893          	li	a7,97
     c74:	01000c93          	li	s9,16
     c78:	00000d13          	li	s10,0
     c7c:	01112623          	sw	a7,12(sp)
     c80:	00092903          	lw	s2,0(s2)
     c84:	00000b13          	li	s6,0
     c88:	00c12423          	sw	a2,8(sp)
     c8c:	a25ff06f          	j	6b0 <vprintfmt.constprop.1+0x274>
     c90:	00812503          	lw	a0,8(sp)
     c94:	00052a03          	lw	s4,0(a0)
     c98:	00450913          	addi	s2,a0,4
     c9c:	700a0663          	beqz	s4,13a8 <vprintfmt.constprop.1+0xf6c>
     ca0:	5f805263          	blez	s8,1284 <vprintfmt.constprop.1+0xe48>
     ca4:	02d00613          	li	a2,45
     ca8:	72cb9c63          	bne	s7,a2,13e0 <vprintfmt.constprop.1+0xfa4>
     cac:	000a4b83          	lbu	s7,0(s4)
     cb0:	000b8e93          	mv	t4,s7
     cb4:	040b8663          	beqz	s7,d00 <vprintfmt.constprop.1+0x8c4>
     cb8:	fff00f13          	li	t5,-1
     cbc:	00a00c93          	li	s9,10
     cc0:	f0000d37          	lui	s10,0xf0000
     cc4:	04000313          	li	t1,64
     cc8:	5a04d663          	bgez	s1,1274 <vprintfmt.constprop.1+0xe38>
     ccc:	04022503          	lw	a0,64(tp) # 40 <buflen.1744>
     cd0:	00150713          	addi	a4,a0,1
     cd4:	00aa8633          	add	a2,s5,a0
     cd8:	04e22023          	sw	a4,64(tp) # 40 <buflen.1744>
     cdc:	01760023          	sb	s7,0(a2)
     ce0:	499e8263          	beq	t4,s9,1164 <vprintfmt.constprop.1+0xd28>
     ce4:	48670263          	beq	a4,t1,1168 <vprintfmt.constprop.1+0xd2c>
     ce8:	001a0a13          	addi	s4,s4,1
     cec:	000a4b83          	lbu	s7,0(s4)
     cf0:	fffc0c13          	addi	s8,s8,-1
     cf4:	000b8e93          	mv	t4,s7
     cf8:	fc0b98e3          	bnez	s7,cc8 <vprintfmt.constprop.1+0x88c>
     cfc:	db8050e3          	blez	s8,a9c <vprintfmt.constprop.1+0x660>
     d00:	04022883          	lw	a7,64(tp) # 40 <buflen.1744>
     d04:	02000a13          	li	s4,32
     d08:	04000f13          	li	t5,64
     d0c:	f0000cb7          	lui	s9,0xf0000
     d10:	00c0006f          	j	d1c <vprintfmt.constprop.1+0x8e0>
     d14:	fffc0c13          	addi	s8,s8,-1
     d18:	d80c02e3          	beqz	s8,a9c <vprintfmt.constprop.1+0x660>
     d1c:	00188d13          	addi	s10,a7,1
     d20:	011a8333          	add	t1,s5,a7
     d24:	05a22023          	sw	s10,64(tp) # 40 <buflen.1744>
     d28:	01430023          	sb	s4,0(t1)
     d2c:	000d0893          	mv	a7,s10
     d30:	ffed12e3          	bne	s10,t5,d14 <vprintfmt.constprop.1+0x8d8>
     d34:	415984b3          	sub	s1,s3,s5
     d38:	0074fb93          	andi	s7,s1,7
     d3c:	000a8793          	mv	a5,s5
     d40:	1a0b8663          	beqz	s7,eec <vprintfmt.constprop.1+0xab0>
     d44:	00100e93          	li	t4,1
     d48:	07db8463          	beq	s7,t4,db0 <vprintfmt.constprop.1+0x974>
     d4c:	00200513          	li	a0,2
     d50:	04ab8a63          	beq	s7,a0,da4 <vprintfmt.constprop.1+0x968>
     d54:	00300613          	li	a2,3
     d58:	04cb8063          	beq	s7,a2,d98 <vprintfmt.constprop.1+0x95c>
     d5c:	00400893          	li	a7,4
     d60:	031b8663          	beq	s7,a7,d8c <vprintfmt.constprop.1+0x950>
     d64:	00500e13          	li	t3,5
     d68:	01cb8c63          	beq	s7,t3,d80 <vprintfmt.constprop.1+0x944>
     d6c:	00600713          	li	a4,6
     d70:	64eb9c63          	bne	s7,a4,13c8 <vprintfmt.constprop.1+0xf8c>
     d74:	0007c083          	lbu	ra,0(a5)
     d78:	00178793          	addi	a5,a5,1
     d7c:	001c8023          	sb	ra,0(s9) # f0000000 <__C_STACK_TOP__+0xefff0000>
     d80:	0007c283          	lbu	t0,0(a5)
     d84:	00178793          	addi	a5,a5,1
     d88:	005c8023          	sb	t0,0(s9)
     d8c:	0007c683          	lbu	a3,0(a5)
     d90:	00178793          	addi	a5,a5,1
     d94:	00dc8023          	sb	a3,0(s9)
     d98:	0007c383          	lbu	t2,0(a5)
     d9c:	00178793          	addi	a5,a5,1
     da0:	007c8023          	sb	t2,0(s9)
     da4:	0007c583          	lbu	a1,0(a5)
     da8:	00178793          	addi	a5,a5,1
     dac:	00bc8023          	sb	a1,0(s9)
     db0:	00178793          	addi	a5,a5,1
     db4:	fff7c803          	lbu	a6,-1(a5)
     db8:	010c8023          	sb	a6,0(s9)
     dbc:	13379863          	bne	a5,s3,eec <vprintfmt.constprop.1+0xab0>
     dc0:	04022023          	sw	zero,64(tp) # 40 <buflen.1744>
     dc4:	00000893          	li	a7,0
     dc8:	f4dff06f          	j	d14 <vprintfmt.constprop.1+0x8d8>
     dcc:	00a00c93          	li	s9,10
     dd0:	00000d13          	li	s10,0
     dd4:	8b9ff06f          	j	68c <vprintfmt.constprop.1+0x250>
     dd8:	04022d83          	lw	s11,64(tp) # 40 <buflen.1744>
     ddc:	02500613          	li	a2,37
     de0:	04000f13          	li	t5,64
     de4:	001d8813          	addi	a6,s11,1
     de8:	01ba82b3          	add	t0,s5,s11
     dec:	05022023          	sw	a6,64(tp) # 40 <buflen.1744>
     df0:	00c28023          	sb	a2,0(t0)
     df4:	00030d93          	mv	s11,t1
     df8:	e9e81e63          	bne	a6,t5,494 <vprintfmt.constprop.1+0x58>
     dfc:	41598cb3          	sub	s9,s3,s5
     e00:	007cf493          	andi	s1,s9,7
     e04:	000a8793          	mv	a5,s5
     e08:	f0000737          	lui	a4,0xf0000
     e0c:	08048663          	beqz	s1,e98 <vprintfmt.constprop.1+0xa5c>
     e10:	00100e93          	li	t4,1
     e14:	07d48a63          	beq	s1,t4,e88 <vprintfmt.constprop.1+0xa4c>
     e18:	00200593          	li	a1,2
     e1c:	06b48063          	beq	s1,a1,e7c <vprintfmt.constprop.1+0xa40>
     e20:	00300513          	li	a0,3
     e24:	04a48663          	beq	s1,a0,e70 <vprintfmt.constprop.1+0xa34>
     e28:	00400b13          	li	s6,4
     e2c:	03648c63          	beq	s1,s6,e64 <vprintfmt.constprop.1+0xa28>
     e30:	00500a13          	li	s4,5
     e34:	03448263          	beq	s1,s4,e58 <vprintfmt.constprop.1+0xa1c>
     e38:	00600d13          	li	s10,6
     e3c:	01a48863          	beq	s1,s10,e4c <vprintfmt.constprop.1+0xa10>
     e40:	000ac683          	lbu	a3,0(s5)
     e44:	001a8793          	addi	a5,s5,1
     e48:	00d70023          	sb	a3,0(a4) # f0000000 <__C_STACK_TOP__+0xefff0000>
     e4c:	0007c883          	lbu	a7,0(a5)
     e50:	00178793          	addi	a5,a5,1
     e54:	01170023          	sb	a7,0(a4)
     e58:	0007c083          	lbu	ra,0(a5)
     e5c:	00178793          	addi	a5,a5,1
     e60:	00170023          	sb	ra,0(a4)
     e64:	0007cc03          	lbu	s8,0(a5)
     e68:	00178793          	addi	a5,a5,1
     e6c:	01870023          	sb	s8,0(a4)
     e70:	0007cb83          	lbu	s7,0(a5)
     e74:	00178793          	addi	a5,a5,1
     e78:	01770023          	sb	s7,0(a4)
     e7c:	0007c903          	lbu	s2,0(a5)
     e80:	00178793          	addi	a5,a5,1
     e84:	01270023          	sb	s2,0(a4)
     e88:	00178793          	addi	a5,a5,1
     e8c:	fff7ce03          	lbu	t3,-1(a5)
     e90:	01c70023          	sb	t3,0(a4)
     e94:	05378663          	beq	a5,s3,ee0 <vprintfmt.constprop.1+0xaa4>
     e98:	0007c383          	lbu	t2,0(a5)
     e9c:	00878793          	addi	a5,a5,8
     ea0:	00770023          	sb	t2,0(a4)
     ea4:	ff97cf83          	lbu	t6,-7(a5)
     ea8:	01f70023          	sb	t6,0(a4)
     eac:	ffa7cd83          	lbu	s11,-6(a5)
     eb0:	01b70023          	sb	s11,0(a4)
     eb4:	ffb7cf03          	lbu	t5,-5(a5)
     eb8:	01e70023          	sb	t5,0(a4)
     ebc:	ffc7c803          	lbu	a6,-4(a5)
     ec0:	01070023          	sb	a6,0(a4)
     ec4:	ffd7c283          	lbu	t0,-3(a5)
     ec8:	00570023          	sb	t0,0(a4)
     ecc:	ffe7c603          	lbu	a2,-2(a5)
     ed0:	00c70023          	sb	a2,0(a4)
     ed4:	fff7cc83          	lbu	s9,-1(a5)
     ed8:	01970023          	sb	s9,0(a4)
     edc:	fb379ee3          	bne	a5,s3,e98 <vprintfmt.constprop.1+0xa5c>
     ee0:	04022023          	sw	zero,64(tp) # 40 <buflen.1744>
     ee4:	00030d93          	mv	s11,t1
     ee8:	dacff06f          	j	494 <vprintfmt.constprop.1+0x58>
     eec:	0007cb03          	lbu	s6,0(a5)
     ef0:	00878793          	addi	a5,a5,8
     ef4:	016c8023          	sb	s6,0(s9)
     ef8:	ff97cd03          	lbu	s10,-7(a5)
     efc:	01ac8023          	sb	s10,0(s9)
     f00:	ffa7c303          	lbu	t1,-6(a5)
     f04:	006c8023          	sb	t1,0(s9)
     f08:	ffb7c483          	lbu	s1,-5(a5)
     f0c:	009c8023          	sb	s1,0(s9)
     f10:	ffc7cb83          	lbu	s7,-4(a5)
     f14:	017c8023          	sb	s7,0(s9)
     f18:	ffd7ce83          	lbu	t4,-3(a5)
     f1c:	01dc8023          	sb	t4,0(s9)
     f20:	ffe7c503          	lbu	a0,-2(a5)
     f24:	00ac8023          	sb	a0,0(s9)
     f28:	fff7c603          	lbu	a2,-1(a5)
     f2c:	00cc8023          	sb	a2,0(s9)
     f30:	fb379ee3          	bne	a5,s3,eec <vprintfmt.constprop.1+0xab0>
     f34:	e8dff06f          	j	dc0 <vprintfmt.constprop.1+0x984>
     f38:	10f05663          	blez	a5,1044 <vprintfmt.constprop.1+0xc08>
     f3c:	00412083          	lw	ra,4(sp)
     f40:	0077fe13          	andi	t3,a5,7
     f44:	f00002b7          	lui	t0,0xf0000
     f48:	00020713          	mv	a4,tp
     f4c:	fff78393          	addi	t2,a5,-1
     f50:	0a0e0463          	beqz	t3,ff8 <vprintfmt.constprop.1+0xbbc>
     f54:	00100813          	li	a6,1
     f58:	090e0663          	beq	t3,a6,fe4 <vprintfmt.constprop.1+0xba8>
     f5c:	00200693          	li	a3,2
     f60:	06de0a63          	beq	t3,a3,fd4 <vprintfmt.constprop.1+0xb98>
     f64:	00300d13          	li	s10,3
     f68:	05ae0e63          	beq	t3,s10,fc4 <vprintfmt.constprop.1+0xb88>
     f6c:	00400593          	li	a1,4
     f70:	04be0263          	beq	t3,a1,fb4 <vprintfmt.constprop.1+0xb78>
     f74:	00500493          	li	s1,5
     f78:	029e0663          	beq	t3,s1,fa4 <vprintfmt.constprop.1+0xb68>
     f7c:	00600e93          	li	t4,6
     f80:	01de0a63          	beq	t3,t4,f94 <vprintfmt.constprop.1+0xb58>
     f84:	00074503          	lbu	a0,0(a4)
     f88:	00038793          	mv	a5,t2
     f8c:	00170713          	addi	a4,a4,1
     f90:	00a28023          	sb	a0,0(t0) # f0000000 <__C_STACK_TOP__+0xefff0000>
     f94:	00074883          	lbu	a7,0(a4)
     f98:	fff78793          	addi	a5,a5,-1
     f9c:	00170713          	addi	a4,a4,1
     fa0:	01128023          	sb	a7,0(t0)
     fa4:	00074603          	lbu	a2,0(a4)
     fa8:	fff78793          	addi	a5,a5,-1
     fac:	00170713          	addi	a4,a4,1
     fb0:	00c28023          	sb	a2,0(t0)
     fb4:	00074f83          	lbu	t6,0(a4)
     fb8:	fff78793          	addi	a5,a5,-1
     fbc:	00170713          	addi	a4,a4,1
     fc0:	01f28023          	sb	t6,0(t0)
     fc4:	00074b03          	lbu	s6,0(a4)
     fc8:	fff78793          	addi	a5,a5,-1
     fcc:	00170713          	addi	a4,a4,1
     fd0:	01628023          	sb	s6,0(t0)
     fd4:	00074c03          	lbu	s8,0(a4)
     fd8:	fff78793          	addi	a5,a5,-1
     fdc:	00170713          	addi	a4,a4,1
     fe0:	01828023          	sb	s8,0(t0)
     fe4:	00170713          	addi	a4,a4,1
     fe8:	fff74b83          	lbu	s7,-1(a4)
     fec:	fff78793          	addi	a5,a5,-1
     ff0:	01728023          	sb	s7,0(t0)
     ff4:	04078863          	beqz	a5,1044 <vprintfmt.constprop.1+0xc08>
     ff8:	00074303          	lbu	t1,0(a4)
     ffc:	00870713          	addi	a4,a4,8
    1000:	ff878793          	addi	a5,a5,-8
    1004:	00628023          	sb	t1,0(t0)
    1008:	ff974f03          	lbu	t5,-7(a4)
    100c:	01e28023          	sb	t5,0(t0)
    1010:	ffa74a03          	lbu	s4,-6(a4)
    1014:	01428023          	sb	s4,0(t0)
    1018:	ffb74c83          	lbu	s9,-5(a4)
    101c:	01928023          	sb	s9,0(t0)
    1020:	ffc74e03          	lbu	t3,-4(a4)
    1024:	01c28023          	sb	t3,0(t0)
    1028:	ffd74083          	lbu	ra,-3(a4)
    102c:	00128023          	sb	ra,0(t0)
    1030:	ffe74383          	lbu	t2,-2(a4)
    1034:	00728023          	sb	t2,0(t0)
    1038:	fff74803          	lbu	a6,-1(a4)
    103c:	01028023          	sb	a6,0(t0)
    1040:	fa079ce3          	bnez	a5,ff8 <vprintfmt.constprop.1+0xbbc>
    1044:	04022023          	sw	zero,64(tp) # 40 <buflen.1744>
    1048:	01212423          	sw	s2,8(sp)
    104c:	c48ff06f          	j	494 <vprintfmt.constprop.1+0x58>
    1050:	10d05463          	blez	a3,1158 <vprintfmt.constprop.1+0xd1c>
    1054:	00412483          	lw	s1,4(sp)
    1058:	0076f593          	andi	a1,a3,7
    105c:	fff68e93          	addi	t4,a3,-1
    1060:	00020713          	mv	a4,tp
    1064:	0a058463          	beqz	a1,110c <vprintfmt.constprop.1+0xcd0>
    1068:	00100513          	li	a0,1
    106c:	08a58663          	beq	a1,a0,10f8 <vprintfmt.constprop.1+0xcbc>
    1070:	00200913          	li	s2,2
    1074:	07258a63          	beq	a1,s2,10e8 <vprintfmt.constprop.1+0xcac>
    1078:	00300b13          	li	s6,3
    107c:	05658e63          	beq	a1,s6,10d8 <vprintfmt.constprop.1+0xc9c>
    1080:	00400a13          	li	s4,4
    1084:	05458263          	beq	a1,s4,10c8 <vprintfmt.constprop.1+0xc8c>
    1088:	00500d13          	li	s10,5
    108c:	03a58663          	beq	a1,s10,10b8 <vprintfmt.constprop.1+0xc7c>
    1090:	00600893          	li	a7,6
    1094:	01158a63          	beq	a1,a7,10a8 <vprintfmt.constprop.1+0xc6c>
    1098:	00074f83          	lbu	t6,0(a4)
    109c:	000e8693          	mv	a3,t4
    10a0:	00170713          	addi	a4,a4,1
    10a4:	01fc8023          	sb	t6,0(s9)
    10a8:	00074c03          	lbu	s8,0(a4)
    10ac:	fff68693          	addi	a3,a3,-1
    10b0:	00170713          	addi	a4,a4,1
    10b4:	018c8023          	sb	s8,0(s9)
    10b8:	00074f03          	lbu	t5,0(a4)
    10bc:	fff68693          	addi	a3,a3,-1
    10c0:	00170713          	addi	a4,a4,1
    10c4:	01ec8023          	sb	t5,0(s9)
    10c8:	00074803          	lbu	a6,0(a4)
    10cc:	fff68693          	addi	a3,a3,-1
    10d0:	00170713          	addi	a4,a4,1
    10d4:	010c8023          	sb	a6,0(s9)
    10d8:	00074283          	lbu	t0,0(a4)
    10dc:	fff68693          	addi	a3,a3,-1
    10e0:	00170713          	addi	a4,a4,1
    10e4:	005c8023          	sb	t0,0(s9)
    10e8:	00074603          	lbu	a2,0(a4)
    10ec:	fff68693          	addi	a3,a3,-1
    10f0:	00170713          	addi	a4,a4,1
    10f4:	00cc8023          	sb	a2,0(s9)
    10f8:	00170713          	addi	a4,a4,1
    10fc:	fff74583          	lbu	a1,-1(a4)
    1100:	fff68693          	addi	a3,a3,-1
    1104:	00bc8023          	sb	a1,0(s9)
    1108:	04068863          	beqz	a3,1158 <vprintfmt.constprop.1+0xd1c>
    110c:	00074483          	lbu	s1,0(a4)
    1110:	00870713          	addi	a4,a4,8
    1114:	ff868693          	addi	a3,a3,-8
    1118:	009c8023          	sb	s1,0(s9)
    111c:	ff974e83          	lbu	t4,-7(a4)
    1120:	01dc8023          	sb	t4,0(s9)
    1124:	ffa74503          	lbu	a0,-6(a4)
    1128:	00ac8023          	sb	a0,0(s9)
    112c:	ffb74903          	lbu	s2,-5(a4)
    1130:	012c8023          	sb	s2,0(s9)
    1134:	ffc74b03          	lbu	s6,-4(a4)
    1138:	016c8023          	sb	s6,0(s9)
    113c:	ffd74a03          	lbu	s4,-3(a4)
    1140:	014c8023          	sb	s4,0(s9)
    1144:	ffe74d03          	lbu	s10,-2(a4)
    1148:	01ac8023          	sb	s10,0(s9)
    114c:	fff74883          	lbu	a7,-1(a4)
    1150:	011c8023          	sb	a7,0(s9)
    1154:	fa069ce3          	bnez	a3,110c <vprintfmt.constprop.1+0xcd0>
    1158:	04022023          	sw	zero,64(tp) # 40 <buflen.1744>
    115c:	ffc78793          	addi	a5,a5,-4
    1160:	e08ff06f          	j	768 <vprintfmt.constprop.1+0x32c>
    1164:	10e05463          	blez	a4,126c <vprintfmt.constprop.1+0xe30>
    1168:	00412e03          	lw	t3,4(sp)
    116c:	00777893          	andi	a7,a4,7
    1170:	fff70f93          	addi	t6,a4,-1
    1174:	00020793          	mv	a5,tp
    1178:	0a088463          	beqz	a7,1220 <vprintfmt.constprop.1+0xde4>
    117c:	00100093          	li	ra,1
    1180:	08188663          	beq	a7,ra,120c <vprintfmt.constprop.1+0xdd0>
    1184:	00200293          	li	t0,2
    1188:	06588a63          	beq	a7,t0,11fc <vprintfmt.constprop.1+0xdc0>
    118c:	00300693          	li	a3,3
    1190:	04d88e63          	beq	a7,a3,11ec <vprintfmt.constprop.1+0xdb0>
    1194:	00400393          	li	t2,4
    1198:	04788263          	beq	a7,t2,11dc <vprintfmt.constprop.1+0xda0>
    119c:	00500593          	li	a1,5
    11a0:	02b88663          	beq	a7,a1,11cc <vprintfmt.constprop.1+0xd90>
    11a4:	00600813          	li	a6,6
    11a8:	01088a63          	beq	a7,a6,11bc <vprintfmt.constprop.1+0xd80>
    11ac:	0007cb03          	lbu	s6,0(a5)
    11b0:	000f8713          	mv	a4,t6
    11b4:	00178793          	addi	a5,a5,1
    11b8:	016d0023          	sb	s6,0(s10) # f0000000 <__C_STACK_TOP__+0xefff0000>
    11bc:	0007cb83          	lbu	s7,0(a5)
    11c0:	fff70713          	addi	a4,a4,-1
    11c4:	00178793          	addi	a5,a5,1
    11c8:	017d0023          	sb	s7,0(s10)
    11cc:	0007ce83          	lbu	t4,0(a5)
    11d0:	fff70713          	addi	a4,a4,-1
    11d4:	00178793          	addi	a5,a5,1
    11d8:	01dd0023          	sb	t4,0(s10)
    11dc:	0007c503          	lbu	a0,0(a5)
    11e0:	fff70713          	addi	a4,a4,-1
    11e4:	00178793          	addi	a5,a5,1
    11e8:	00ad0023          	sb	a0,0(s10)
    11ec:	0007c603          	lbu	a2,0(a5)
    11f0:	fff70713          	addi	a4,a4,-1
    11f4:	00178793          	addi	a5,a5,1
    11f8:	00cd0023          	sb	a2,0(s10)
    11fc:	0007c883          	lbu	a7,0(a5)
    1200:	fff70713          	addi	a4,a4,-1
    1204:	00178793          	addi	a5,a5,1
    1208:	011d0023          	sb	a7,0(s10)
    120c:	00178793          	addi	a5,a5,1
    1210:	fff7ce03          	lbu	t3,-1(a5)
    1214:	fff70713          	addi	a4,a4,-1
    1218:	01cd0023          	sb	t3,0(s10)
    121c:	04070863          	beqz	a4,126c <vprintfmt.constprop.1+0xe30>
    1220:	0007cf83          	lbu	t6,0(a5)
    1224:	00878793          	addi	a5,a5,8
    1228:	ff870713          	addi	a4,a4,-8
    122c:	01fd0023          	sb	t6,0(s10)
    1230:	ff97c083          	lbu	ra,-7(a5)
    1234:	001d0023          	sb	ra,0(s10)
    1238:	ffa7c283          	lbu	t0,-6(a5)
    123c:	005d0023          	sb	t0,0(s10)
    1240:	ffb7c683          	lbu	a3,-5(a5)
    1244:	00dd0023          	sb	a3,0(s10)
    1248:	ffc7c383          	lbu	t2,-4(a5)
    124c:	007d0023          	sb	t2,0(s10)
    1250:	ffd7c583          	lbu	a1,-3(a5)
    1254:	00bd0023          	sb	a1,0(s10)
    1258:	ffe7c803          	lbu	a6,-2(a5)
    125c:	010d0023          	sb	a6,0(s10)
    1260:	fff7cb03          	lbu	s6,-1(a5)
    1264:	016d0023          	sb	s6,0(s10)
    1268:	fa071ce3          	bnez	a4,1220 <vprintfmt.constprop.1+0xde4>
    126c:	04022023          	sw	zero,64(tp) # 40 <buflen.1744>
    1270:	a79ff06f          	j	ce8 <vprintfmt.constprop.1+0x8ac>
    1274:	fff48493          	addi	s1,s1,-1
    1278:	a5e49ae3          	bne	s1,t5,ccc <vprintfmt.constprop.1+0x890>
    127c:	a81ff06f          	j	cfc <vprintfmt.constprop.1+0x8c0>
    1280:	00000c13          	li	s8,0
    1284:	000a4b83          	lbu	s7,0(s4)
    1288:	000b8e93          	mv	t4,s7
    128c:	a20b96e3          	bnez	s7,cb8 <vprintfmt.constprop.1+0x87c>
    1290:	80dff06f          	j	a9c <vprintfmt.constprop.1+0x660>
    1294:	41598833          	sub	a6,s3,s5
    1298:	05922023          	sw	s9,64(tp) # 40 <buflen.1744>
    129c:	00787d13          	andi	s10,a6,7
    12a0:	000a8793          	mv	a5,s5
    12a4:	f0000337          	lui	t1,0xf0000
    12a8:	080d0663          	beqz	s10,1334 <vprintfmt.constprop.1+0xef8>
    12ac:	00100493          	li	s1,1
    12b0:	069d0a63          	beq	s10,s1,1324 <vprintfmt.constprop.1+0xee8>
    12b4:	00200e93          	li	t4,2
    12b8:	07dd0063          	beq	s10,t4,1318 <vprintfmt.constprop.1+0xedc>
    12bc:	00300513          	li	a0,3
    12c0:	04ad0663          	beq	s10,a0,130c <vprintfmt.constprop.1+0xed0>
    12c4:	00400893          	li	a7,4
    12c8:	031d0c63          	beq	s10,a7,1300 <vprintfmt.constprop.1+0xec4>
    12cc:	00500913          	li	s2,5
    12d0:	032d0263          	beq	s10,s2,12f4 <vprintfmt.constprop.1+0xeb8>
    12d4:	00600a13          	li	s4,6
    12d8:	014d0863          	beq	s10,s4,12e8 <vprintfmt.constprop.1+0xeac>
    12dc:	000acf03          	lbu	t5,0(s5)
    12e0:	001a8793          	addi	a5,s5,1
    12e4:	01e30023          	sb	t5,0(t1) # f0000000 <__C_STACK_TOP__+0xefff0000>
    12e8:	0007cc83          	lbu	s9,0(a5)
    12ec:	00178793          	addi	a5,a5,1
    12f0:	01930023          	sb	s9,0(t1)
    12f4:	0007ce03          	lbu	t3,0(a5)
    12f8:	00178793          	addi	a5,a5,1
    12fc:	01c30023          	sb	t3,0(t1)
    1300:	0007c703          	lbu	a4,0(a5)
    1304:	00178793          	addi	a5,a5,1
    1308:	00e30023          	sb	a4,0(t1)
    130c:	0007cf83          	lbu	t6,0(a5)
    1310:	00178793          	addi	a5,a5,1
    1314:	01f30023          	sb	t6,0(t1)
    1318:	0007c083          	lbu	ra,0(a5)
    131c:	00178793          	addi	a5,a5,1
    1320:	00130023          	sb	ra,0(t1)
    1324:	00178793          	addi	a5,a5,1
    1328:	fff7c283          	lbu	t0,-1(a5)
    132c:	00530023          	sb	t0,0(t1)
    1330:	05378663          	beq	a5,s3,137c <vprintfmt.constprop.1+0xf40>
    1334:	0007c683          	lbu	a3,0(a5)
    1338:	00878793          	addi	a5,a5,8
    133c:	00d30023          	sb	a3,0(t1)
    1340:	ff97c383          	lbu	t2,-7(a5)
    1344:	00730023          	sb	t2,0(t1)
    1348:	ffa7c583          	lbu	a1,-6(a5)
    134c:	00b30023          	sb	a1,0(t1)
    1350:	ffb7cb03          	lbu	s6,-5(a5)
    1354:	01630023          	sb	s6,0(t1)
    1358:	ffc7c803          	lbu	a6,-4(a5)
    135c:	01030023          	sb	a6,0(t1)
    1360:	ffd7cd03          	lbu	s10,-3(a5)
    1364:	01a30023          	sb	s10,0(t1)
    1368:	ffe7c483          	lbu	s1,-2(a5)
    136c:	00930023          	sb	s1,0(t1)
    1370:	fff7ce83          	lbu	t4,-1(a5)
    1374:	01d30023          	sb	t4,0(t1)
    1378:	fb379ee3          	bne	a5,s3,1334 <vprintfmt.constprop.1+0xef8>
    137c:	00100313          	li	t1,1
    1380:	07800513          	li	a0,120
    1384:	04622023          	sw	t1,64(tp) # 40 <buflen.1744>
    1388:	00aa8023          	sb	a0,0(s5)
    138c:	8e1ff06f          	j	c6c <vprintfmt.constprop.1+0x830>
    1390:	00812c83          	lw	s9,8(sp)
    1394:	000caf83          	lw	t6,0(s9)
    1398:	004c8e13          	addi	t3,s9,4
    139c:	01c12423          	sw	t3,8(sp)
    13a0:	41ffdb13          	srai	s6,t6,0x1f
    13a4:	f24ff06f          	j	ac8 <vprintfmt.constprop.1+0x68c>
    13a8:	01805663          	blez	s8,13b4 <vprintfmt.constprop.1+0xf78>
    13ac:	02d00893          	li	a7,45
    13b0:	031b9463          	bne	s7,a7,13d8 <vprintfmt.constprop.1+0xf9c>
    13b4:	00004bb7          	lui	s7,0x4
    13b8:	888b8a13          	addi	s4,s7,-1912 # 3888 <__clz_tab+0x110>
    13bc:	02800e93          	li	t4,40
    13c0:	02800b93          	li	s7,40
    13c4:	8f5ff06f          	j	cb8 <vprintfmt.constprop.1+0x87c>
    13c8:	000acf83          	lbu	t6,0(s5)
    13cc:	001a8793          	addi	a5,s5,1
    13d0:	01fc8023          	sb	t6,0(s9)
    13d4:	9a1ff06f          	j	d74 <vprintfmt.constprop.1+0x938>
    13d8:	00004e37          	lui	t3,0x4
    13dc:	888e0a13          	addi	s4,t3,-1912 # 3888 <__clz_tab+0x110>
    13e0:	00048593          	mv	a1,s1
    13e4:	000a0513          	mv	a0,s4
    13e8:	574010ef          	jal	ra,295c <strnlen>
    13ec:	40ac0c33          	sub	s8,s8,a0
    13f0:	e9805ae3          	blez	s8,1284 <vprintfmt.constprop.1+0xe48>
    13f4:	04022b03          	lw	s6,64(tp) # 40 <buflen.1744>
    13f8:	04000e93          	li	t4,64
    13fc:	f0000f37          	lui	t5,0xf0000
    1400:	00c0006f          	j	140c <vprintfmt.constprop.1+0xfd0>
    1404:	fffc0c13          	addi	s8,s8,-1
    1408:	e60c0ce3          	beqz	s8,1280 <vprintfmt.constprop.1+0xe44>
    140c:	001b0f93          	addi	t6,s6,1
    1410:	016a87b3          	add	a5,s5,s6
    1414:	05f22023          	sw	t6,64(tp) # 40 <buflen.1744>
    1418:	01778023          	sb	s7,0(a5)
    141c:	000f8b13          	mv	s6,t6
    1420:	ffdf92e3          	bne	t6,t4,1404 <vprintfmt.constprop.1+0xfc8>
    1424:	415980b3          	sub	ra,s3,s5
    1428:	0070f293          	andi	t0,ra,7
    142c:	000a8e13          	mv	t3,s5
    1430:	08028663          	beqz	t0,14bc <vprintfmt.constprop.1+0x1080>
    1434:	00100713          	li	a4,1
    1438:	06e28a63          	beq	t0,a4,14ac <vprintfmt.constprop.1+0x1070>
    143c:	00200693          	li	a3,2
    1440:	06d28063          	beq	t0,a3,14a0 <vprintfmt.constprop.1+0x1064>
    1444:	00300393          	li	t2,3
    1448:	04728663          	beq	t0,t2,1494 <vprintfmt.constprop.1+0x1058>
    144c:	00400593          	li	a1,4
    1450:	02b28c63          	beq	t0,a1,1488 <vprintfmt.constprop.1+0x104c>
    1454:	00500813          	li	a6,5
    1458:	03028263          	beq	t0,a6,147c <vprintfmt.constprop.1+0x1040>
    145c:	00600b13          	li	s6,6
    1460:	01628863          	beq	t0,s6,1470 <vprintfmt.constprop.1+0x1034>
    1464:	000acc83          	lbu	s9,0(s5)
    1468:	001a8e13          	addi	t3,s5,1
    146c:	019f0023          	sb	s9,0(t5) # f0000000 <__C_STACK_TOP__+0xefff0000>
    1470:	000e4d03          	lbu	s10,0(t3)
    1474:	001e0e13          	addi	t3,t3,1
    1478:	01af0023          	sb	s10,0(t5)
    147c:	000e4303          	lbu	t1,0(t3)
    1480:	001e0e13          	addi	t3,t3,1
    1484:	006f0023          	sb	t1,0(t5)
    1488:	000e4503          	lbu	a0,0(t3)
    148c:	001e0e13          	addi	t3,t3,1
    1490:	00af0023          	sb	a0,0(t5)
    1494:	000e4603          	lbu	a2,0(t3)
    1498:	001e0e13          	addi	t3,t3,1
    149c:	00cf0023          	sb	a2,0(t5)
    14a0:	000e4883          	lbu	a7,0(t3)
    14a4:	001e0e13          	addi	t3,t3,1
    14a8:	011f0023          	sb	a7,0(t5)
    14ac:	001e0e13          	addi	t3,t3,1
    14b0:	fffe4f83          	lbu	t6,-1(t3)
    14b4:	01ff0023          	sb	t6,0(t5)
    14b8:	053e0663          	beq	t3,s3,1504 <vprintfmt.constprop.1+0x10c8>
    14bc:	000e4783          	lbu	a5,0(t3)
    14c0:	008e0e13          	addi	t3,t3,8
    14c4:	00ff0023          	sb	a5,0(t5)
    14c8:	ff9e4083          	lbu	ra,-7(t3)
    14cc:	001f0023          	sb	ra,0(t5)
    14d0:	ffae4283          	lbu	t0,-6(t3)
    14d4:	005f0023          	sb	t0,0(t5)
    14d8:	ffbe4703          	lbu	a4,-5(t3)
    14dc:	00ef0023          	sb	a4,0(t5)
    14e0:	ffce4683          	lbu	a3,-4(t3)
    14e4:	00df0023          	sb	a3,0(t5)
    14e8:	ffde4383          	lbu	t2,-3(t3)
    14ec:	007f0023          	sb	t2,0(t5)
    14f0:	ffee4583          	lbu	a1,-2(t3)
    14f4:	00bf0023          	sb	a1,0(t5)
    14f8:	fffe4803          	lbu	a6,-1(t3)
    14fc:	010f0023          	sb	a6,0(t5)
    1500:	fb3e1ee3          	bne	t3,s3,14bc <vprintfmt.constprop.1+0x1080>
    1504:	04022023          	sw	zero,64(tp) # 40 <buflen.1744>
    1508:	00000b13          	li	s6,0
    150c:	ef9ff06f          	j	1404 <vprintfmt.constprop.1+0xfc8>
    1510:	415984b3          	sub	s1,s3,s5
    1514:	0074fe93          	andi	t4,s1,7
    1518:	000a8713          	mv	a4,s5
    151c:	f0000337          	lui	t1,0xf0000
    1520:	080e8663          	beqz	t4,15ac <vprintfmt.constprop.1+0x1170>
    1524:	00100513          	li	a0,1
    1528:	06ae8a63          	beq	t4,a0,159c <vprintfmt.constprop.1+0x1160>
    152c:	00200893          	li	a7,2
    1530:	071e8063          	beq	t4,a7,1590 <vprintfmt.constprop.1+0x1154>
    1534:	00300613          	li	a2,3
    1538:	04ce8663          	beq	t4,a2,1584 <vprintfmt.constprop.1+0x1148>
    153c:	00400913          	li	s2,4
    1540:	032e8c63          	beq	t4,s2,1578 <vprintfmt.constprop.1+0x113c>
    1544:	00500f13          	li	t5,5
    1548:	03ee8263          	beq	t4,t5,156c <vprintfmt.constprop.1+0x1130>
    154c:	00600a13          	li	s4,6
    1550:	014e8863          	beq	t4,s4,1560 <vprintfmt.constprop.1+0x1124>
    1554:	000acc83          	lbu	s9,0(s5)
    1558:	001a8713          	addi	a4,s5,1
    155c:	01930023          	sb	s9,0(t1) # f0000000 <__C_STACK_TOP__+0xefff0000>
    1560:	00074e03          	lbu	t3,0(a4)
    1564:	00170713          	addi	a4,a4,1
    1568:	01c30023          	sb	t3,0(t1)
    156c:	00074083          	lbu	ra,0(a4)
    1570:	00170713          	addi	a4,a4,1
    1574:	00130023          	sb	ra,0(t1)
    1578:	00074283          	lbu	t0,0(a4)
    157c:	00170713          	addi	a4,a4,1
    1580:	00530023          	sb	t0,0(t1)
    1584:	00074783          	lbu	a5,0(a4)
    1588:	00170713          	addi	a4,a4,1
    158c:	00f30023          	sb	a5,0(t1)
    1590:	00074383          	lbu	t2,0(a4)
    1594:	00170713          	addi	a4,a4,1
    1598:	00730023          	sb	t2,0(t1)
    159c:	00170713          	addi	a4,a4,1
    15a0:	fff74803          	lbu	a6,-1(a4)
    15a4:	01030023          	sb	a6,0(t1)
    15a8:	05370663          	beq	a4,s3,15f4 <vprintfmt.constprop.1+0x11b8>
    15ac:	00074683          	lbu	a3,0(a4)
    15b0:	00870713          	addi	a4,a4,8
    15b4:	00d30023          	sb	a3,0(t1)
    15b8:	ff974d03          	lbu	s10,-7(a4)
    15bc:	01a30023          	sb	s10,0(t1)
    15c0:	ffa74583          	lbu	a1,-6(a4)
    15c4:	00b30023          	sb	a1,0(t1)
    15c8:	ffb74483          	lbu	s1,-5(a4)
    15cc:	00930023          	sb	s1,0(t1)
    15d0:	ffc74e83          	lbu	t4,-4(a4)
    15d4:	01d30023          	sb	t4,0(t1)
    15d8:	ffd74503          	lbu	a0,-3(a4)
    15dc:	00a30023          	sb	a0,0(t1)
    15e0:	ffe74883          	lbu	a7,-2(a4)
    15e4:	01130023          	sb	a7,0(t1)
    15e8:	fff74603          	lbu	a2,-1(a4)
    15ec:	00c30023          	sb	a2,0(t1)
    15f0:	fb371ee3          	bne	a4,s3,15ac <vprintfmt.constprop.1+0x1170>
    15f4:	04022023          	sw	zero,64(tp) # 40 <buflen.1744>
    15f8:	cf4ff06f          	j	aec <vprintfmt.constprop.1+0x6b0>
    15fc:	000f8913          	mv	s2,t6
    1600:	00a00c93          	li	s9,10
    1604:	00000d13          	li	s10,0
    1608:	8a8ff06f          	j	6b0 <vprintfmt.constprop.1+0x274>

0000160c <sc_printf.constprop.0>:
    160c:	fc010113          	addi	sp,sp,-64
    1610:	02410313          	addi	t1,sp,36
    1614:	00030513          	mv	a0,t1
    1618:	00112e23          	sw	ra,28(sp)
    161c:	02b12223          	sw	a1,36(sp)
    1620:	02c12423          	sw	a2,40(sp)
    1624:	02d12623          	sw	a3,44(sp)
    1628:	02e12823          	sw	a4,48(sp)
    162c:	02f12a23          	sw	a5,52(sp)
    1630:	03012c23          	sw	a6,56(sp)
    1634:	03112e23          	sw	a7,60(sp)
    1638:	00612623          	sw	t1,12(sp)
    163c:	e01fe0ef          	jal	ra,43c <vprintfmt.constprop.1>
    1640:	01c12083          	lw	ra,28(sp)
    1644:	00000513          	li	a0,0
    1648:	04010113          	addi	sp,sp,64
    164c:	00008067          	ret

00001650 <putchar>:
    1650:	04022803          	lw	a6,64(tp) # 40 <buflen.1744>
    1654:	00020293          	mv	t0,tp
    1658:	00180713          	addi	a4,a6,1
    165c:	01028333          	add	t1,t0,a6
    1660:	04e22023          	sw	a4,64(tp) # 40 <buflen.1744>
    1664:	00a30023          	sb	a0,0(t1)
    1668:	00a00393          	li	t2,10
    166c:	00750a63          	beq	a0,t2,1680 <putchar+0x30>
    1670:	04000513          	li	a0,64
    1674:	00a70863          	beq	a4,a0,1684 <putchar+0x34>
    1678:	00000513          	li	a0,0
    167c:	00008067          	ret
    1680:	10e05463          	blez	a4,1788 <putchar+0x138>
    1684:	00777e13          	andi	t3,a4,7
    1688:	00020793          	mv	a5,tp
    168c:	f0000eb7          	lui	t4,0xf0000
    1690:	fff70f13          	addi	t5,a4,-1
    1694:	0a0e0463          	beqz	t3,173c <putchar+0xec>
    1698:	00100f93          	li	t6,1
    169c:	09fe0663          	beq	t3,t6,1728 <putchar+0xd8>
    16a0:	00200593          	li	a1,2
    16a4:	06be0a63          	beq	t3,a1,1718 <putchar+0xc8>
    16a8:	00300813          	li	a6,3
    16ac:	050e0e63          	beq	t3,a6,1708 <putchar+0xb8>
    16b0:	00400693          	li	a3,4
    16b4:	04de0263          	beq	t3,a3,16f8 <putchar+0xa8>
    16b8:	00500293          	li	t0,5
    16bc:	025e0663          	beq	t3,t0,16e8 <putchar+0x98>
    16c0:	00600313          	li	t1,6
    16c4:	006e0a63          	beq	t3,t1,16d8 <putchar+0x88>
    16c8:	0007c383          	lbu	t2,0(a5)
    16cc:	000f0713          	mv	a4,t5
    16d0:	00178793          	addi	a5,a5,1
    16d4:	007e8023          	sb	t2,0(t4) # f0000000 <__C_STACK_TOP__+0xefff0000>
    16d8:	0007c503          	lbu	a0,0(a5)
    16dc:	fff70713          	addi	a4,a4,-1
    16e0:	00178793          	addi	a5,a5,1
    16e4:	00ae8023          	sb	a0,0(t4)
    16e8:	0007c883          	lbu	a7,0(a5)
    16ec:	fff70713          	addi	a4,a4,-1
    16f0:	00178793          	addi	a5,a5,1
    16f4:	011e8023          	sb	a7,0(t4)
    16f8:	0007ce03          	lbu	t3,0(a5)
    16fc:	fff70713          	addi	a4,a4,-1
    1700:	00178793          	addi	a5,a5,1
    1704:	01ce8023          	sb	t3,0(t4)
    1708:	0007cf03          	lbu	t5,0(a5)
    170c:	fff70713          	addi	a4,a4,-1
    1710:	00178793          	addi	a5,a5,1
    1714:	01ee8023          	sb	t5,0(t4)
    1718:	0007cf83          	lbu	t6,0(a5)
    171c:	fff70713          	addi	a4,a4,-1
    1720:	00178793          	addi	a5,a5,1
    1724:	01fe8023          	sb	t6,0(t4)
    1728:	00178793          	addi	a5,a5,1
    172c:	fff7c583          	lbu	a1,-1(a5)
    1730:	fff70713          	addi	a4,a4,-1
    1734:	00be8023          	sb	a1,0(t4)
    1738:	04070863          	beqz	a4,1788 <putchar+0x138>
    173c:	0007c803          	lbu	a6,0(a5)
    1740:	00878793          	addi	a5,a5,8
    1744:	ff870713          	addi	a4,a4,-8
    1748:	010e8023          	sb	a6,0(t4)
    174c:	ff97c683          	lbu	a3,-7(a5)
    1750:	00de8023          	sb	a3,0(t4)
    1754:	ffa7c283          	lbu	t0,-6(a5)
    1758:	005e8023          	sb	t0,0(t4)
    175c:	ffb7c303          	lbu	t1,-5(a5)
    1760:	006e8023          	sb	t1,0(t4)
    1764:	ffc7c383          	lbu	t2,-4(a5)
    1768:	007e8023          	sb	t2,0(t4)
    176c:	ffd7c503          	lbu	a0,-3(a5)
    1770:	00ae8023          	sb	a0,0(t4)
    1774:	ffe7c883          	lbu	a7,-2(a5)
    1778:	011e8023          	sb	a7,0(t4)
    177c:	fff7ce03          	lbu	t3,-1(a5)
    1780:	01ce8023          	sb	t3,0(t4)
    1784:	fa071ce3          	bnez	a4,173c <putchar+0xec>
    1788:	04022023          	sw	zero,64(tp) # 40 <buflen.1744>
    178c:	00000513          	li	a0,0
    1790:	00008067          	ret

00001794 <main>:
    1794:	00001737          	lui	a4,0x1
    1798:	fc010113          	addi	sp,sp,-64
    179c:	004807b7          	lui	a5,0x480
    17a0:	02112e23          	sw	ra,60(sp)
    17a4:	02812c23          	sw	s0,56(sp)
    17a8:	02912a23          	sw	s1,52(sp)
    17ac:	03212823          	sw	s2,48(sp)
    17b0:	03312623          	sw	s3,44(sp)
    17b4:	03412423          	sw	s4,40(sp)
    17b8:	03512223          	sw	s5,36(sp)
    17bc:	03612023          	sw	s6,32(sp)
    17c0:	01712e23          	sw	s7,28(sp)
    17c4:	01812c23          	sw	s8,24(sp)
    17c8:	01912a23          	sw	s9,20(sp)
    17cc:	01a12823          	sw	s10,16(sp)
    17d0:	01b12623          	sw	s11,12(sp)
    17d4:	4b570613          	addi	a2,a4,1205 # 14b5 <vprintfmt.constprop.1+0x1079>
    17d8:	000026b7          	lui	a3,0x2
    17dc:	00c7a023          	sw	a2,0(a5) # 480000 <__C_STACK_TOP__+0x470000>
    17e0:	bba70093          	addi	ra,a4,-1094
    17e4:	0017a223          	sw	ra,4(a5)
    17e8:	35468293          	addi	t0,a3,852 # 2354 <main+0xbc0>
    17ec:	0057a423          	sw	t0,8(a5)
    17f0:	17500593          	li	a1,373
    17f4:	00003637          	lui	a2,0x3
    17f8:	00b7a623          	sw	a1,12(a5)
    17fc:	73170313          	addi	t1,a4,1841
    1800:	0067a823          	sw	t1,16(a5)
    1804:	f9860393          	addi	t2,a2,-104 # 2f98 <__udivdi3+0x1c0>
    1808:	0077aa23          	sw	t2,20(a5)
    180c:	b1760513          	addi	a0,a2,-1257
    1810:	00a7ac23          	sw	a0,24(a5)
    1814:	65070413          	addi	s0,a4,1616
    1818:	0087ae23          	sw	s0,28(a5)
    181c:	ded68493          	addi	s1,a3,-531
    1820:	0297a023          	sw	s1,32(a5)
    1824:	88f70813          	addi	a6,a4,-1905
    1828:	0307a223          	sw	a6,36(a5)
    182c:	61368893          	addi	a7,a3,1555
    1830:	0317a423          	sw	a7,40(a5)
    1834:	a4d60993          	addi	s3,a2,-1459
    1838:	0337a623          	sw	s3,44(a5)
    183c:	e3968913          	addi	s2,a3,-455
    1840:	0327a823          	sw	s2,48(a5)
    1844:	14a68a13          	addi	s4,a3,330
    1848:	0347aa23          	sw	s4,52(a5)
    184c:	f6868a93          	addi	s5,a3,-152
    1850:	0357ac23          	sw	s5,56(a5)
    1854:	90f68b13          	addi	s6,a3,-1777
    1858:	0367ae23          	sw	s6,60(a5)
    185c:	a6170b93          	addi	s7,a4,-1439
    1860:	0577a023          	sw	s7,64(a5)
    1864:	25800c13          	li	s8,600
    1868:	0587a223          	sw	s8,68(a5)
    186c:	44868c93          	addi	s9,a3,1096
    1870:	0597a423          	sw	s9,72(a5)
    1874:	a6868d13          	addi	s10,a3,-1432
    1878:	8d560d93          	addi	s11,a2,-1835
    187c:	05b7a623          	sw	s11,76(a5)
    1880:	bfe60e13          	addi	t3,a2,-1026
    1884:	05a7a823          	sw	s10,80(a5)
    1888:	05c7aa23          	sw	t3,84(a5)
    188c:	3a800e93          	li	t4,936
    1890:	05d7ac23          	sw	t4,88(a5)
    1894:	47068f13          	addi	t5,a3,1136
    1898:	05e7ae23          	sw	t5,92(a5)
    189c:	5ac68893          	addi	a7,a3,1452
    18a0:	0717a023          	sw	a7,96(a5)
    18a4:	55200f93          	li	t6,1362
    18a8:	07f7a223          	sw	t6,100(a5)
    18ac:	23500093          	li	ra,565
    18b0:	0617a423          	sw	ra,104(a5)
    18b4:	5e070293          	addi	t0,a4,1504
    18b8:	0657a623          	sw	t0,108(a5)
    18bc:	4ac00593          	li	a1,1196
    18c0:	06b7a823          	sw	a1,112(a5)
    18c4:	da960393          	addi	t2,a2,-599
    18c8:	0677aa23          	sw	t2,116(a5)
    18cc:	d7b60413          	addi	s0,a2,-645
    18d0:	0687ac23          	sw	s0,120(a5)
    18d4:	9f870313          	addi	t1,a4,-1544
    18d8:	0667ae23          	sw	t1,124(a5)
    18dc:	15a00493          	li	s1,346
    18e0:	0897a023          	sw	s1,128(a5)
    18e4:	9b768513          	addi	a0,a3,-1609
    18e8:	08a7a223          	sw	a0,132(a5)
    18ec:	ddd70813          	addi	a6,a4,-547
    18f0:	0907a423          	sw	a6,136(a5)
    18f4:	dc660913          	addi	s2,a2,-570
    18f8:	0927a623          	sw	s2,140(a5)
    18fc:	35600993          	li	s3,854
    1900:	0937a823          	sw	s3,144(a5)
    1904:	aba60a93          	addi	s5,a2,-1350
    1908:	0957aa23          	sw	s5,148(a5)
    190c:	98668a13          	addi	s4,a3,-1658
    1910:	0947ac23          	sw	s4,152(a5)
    1914:	d9268e93          	addi	t4,a3,-622
    1918:	09d7ae23          	sw	t4,156(a5)
    191c:	f7270b13          	addi	s6,a4,-142
    1920:	0b67a023          	sw	s6,160(a5)
    1924:	77900b93          	li	s7,1913
    1928:	0b77a223          	sw	s7,164(a5)
    192c:	99560c93          	addi	s9,a2,-1643
    1930:	0b97a423          	sw	s9,168(a5)
    1934:	25068c13          	addi	s8,a3,592
    1938:	0b87a623          	sw	s8,172(a5)
    193c:	92060d93          	addi	s11,a2,-1760
    1940:	0bb7a823          	sw	s11,176(a5)
    1944:	ecc70d13          	addi	s10,a4,-308
    1948:	0ba7aa23          	sw	s10,180(a5)
    194c:	bb970e13          	addi	t3,a4,-1095
    1950:	0bc7ac23          	sw	t3,184(a5)
    1954:	a2e70f13          	addi	t5,a4,-1490
    1958:	0be7ae23          	sw	t5,188(a5)
    195c:	32970f93          	addi	t6,a4,809
    1960:	0df7a023          	sw	t6,192(a5)
    1964:	09c00093          	li	ra,156
    1968:	0c17a223          	sw	ra,196(a5)
    196c:	67c70293          	addi	t0,a4,1660
    1970:	0c57a423          	sw	t0,200(a5)
    1974:	09b68593          	addi	a1,a3,155
    1978:	0cb7a623          	sw	a1,204(a5)
    197c:	8b768393          	addi	t2,a3,-1865
    1980:	48100313          	li	t1,1153
    1984:	0c67a823          	sw	t1,208(a5)
    1988:	2cf00413          	li	s0,719
    198c:	0c77aa23          	sw	t2,212(a5)
    1990:	0c87ac23          	sw	s0,216(a5)
    1994:	a6a60513          	addi	a0,a2,-1430
    1998:	0ca7ae23          	sw	a0,220(a5)
    199c:	9de60493          	addi	s1,a2,-1570
    19a0:	0e97a023          	sw	s1,224(a5)
    19a4:	05e00813          	li	a6,94
    19a8:	0f07a223          	sw	a6,228(a5)
    19ac:	83c70913          	addi	s2,a4,-1988
    19b0:	0f27a423          	sw	s2,232(a5)
    19b4:	34868993          	addi	s3,a3,840
    19b8:	0f37a623          	sw	s3,236(a5)
    19bc:	06570513          	addi	a0,a4,101
    19c0:	0ea7a823          	sw	a0,240(a5)
    19c4:	cd870a13          	addi	s4,a4,-808
    19c8:	0f47aa23          	sw	s4,244(a5)
    19cc:	04770a93          	addi	s5,a4,71
    19d0:	0f57ac23          	sw	s5,248(a5)
    19d4:	60700b13          	li	s6,1543
    19d8:	0f67ae23          	sw	s6,252(a5)
    19dc:	c8168b93          	addi	s7,a3,-895
    19e0:	1177a023          	sw	s7,256(a5)
    19e4:	04700c93          	li	s9,71
    19e8:	1197a223          	sw	s9,260(a5)
    19ec:	6b668c13          	addi	s8,a3,1718
    19f0:	1187a423          	sw	s8,264(a5)
    19f4:	87268d13          	addi	s10,a3,-1934
    19f8:	11a7a623          	sw	s10,268(a5)
    19fc:	72d00d93          	li	s11,1837
    1a00:	11b7a823          	sw	s11,272(a5)
    1a04:	23570d93          	addi	s11,a4,565
    1a08:	11b7aa23          	sw	s11,276(a5)
    1a0c:	77600d93          	li	s11,1910
    1a10:	11b7ac23          	sw	s11,280(a5)
    1a14:	8a468d13          	addi	s10,a3,-1884
    1a18:	11a7ae23          	sw	s10,284(a5)
    1a1c:	15868c93          	addi	s9,a3,344
    1a20:	1397a023          	sw	s9,288(a5)
    1a24:	f8670c93          	addi	s9,a4,-122
    1a28:	1397a223          	sw	s9,292(a5)
    1a2c:	cf760c13          	addi	s8,a2,-777
    1a30:	1387a423          	sw	s8,296(a5)
    1a34:	30f68b93          	addi	s7,a3,783
    1a38:	1377a623          	sw	s7,300(a5)
    1a3c:	26870c13          	addi	s8,a4,616
    1a40:	1387a823          	sw	s8,304(a5)
    1a44:	c8960b13          	addi	s6,a2,-887
    1a48:	1367aa23          	sw	s6,308(a5)
    1a4c:	29f00b93          	li	s7,671
    1a50:	1377ac23          	sw	s7,312(a5)
    1a54:	1d270b13          	addi	s6,a4,466
    1a58:	1367ae23          	sw	s6,316(a5)
    1a5c:	18500d93          	li	s11,389
    1a60:	15b7a023          	sw	s11,320(a5)
    1a64:	84570c13          	addi	s8,a4,-1979
    1a68:	1587a223          	sw	s8,324(a5)
    1a6c:	41070b13          	addi	s6,a4,1040
    1a70:	1567a423          	sw	s6,328(a5)
    1a74:	8d968a93          	addi	s5,a3,-1831
    1a78:	64e68f13          	addi	t5,a3,1614
    1a7c:	1557a623          	sw	s5,332(a5)
    1a80:	eee68593          	addi	a1,a3,-274
    1a84:	83a60a13          	addi	s4,a2,-1990
    1a88:	15e7a823          	sw	t5,336(a5)
    1a8c:	1547aa23          	sw	s4,340(a5)
    1a90:	e7068993          	addi	s3,a3,-400
    1a94:	14b7ac23          	sw	a1,344(a5)
    1a98:	1537ae23          	sw	s3,348(a5)
    1a9c:	ded60913          	addi	s2,a2,-531
    1aa0:	1727a023          	sw	s2,352(a5)
    1aa4:	6a900a93          	li	s5,1705
    1aa8:	1757a223          	sw	s5,356(a5)
    1aac:	28068493          	addi	s1,a3,640
    1ab0:	1697a423          	sw	s1,360(a5)
    1ab4:	83170a13          	addi	s4,a4,-1999
    1ab8:	1747a623          	sw	s4,364(a5)
    1abc:	acf68413          	addi	s0,a3,-1329
    1ac0:	1687a823          	sw	s0,368(a5)
    1ac4:	5ce00993          	li	s3,1486
    1ac8:	1737aa23          	sw	s3,372(a5)
    1acc:	cac60093          	addi	ra,a2,-852
    1ad0:	1617ac23          	sw	ra,376(a5)
    1ad4:	d5d70913          	addi	s2,a4,-675
    1ad8:	1727ae23          	sw	s2,380(a5)
    1adc:	abe70493          	addi	s1,a4,-1346
    1ae0:	1897a023          	sw	s1,384(a5)
    1ae4:	75800093          	li	ra,1880
    1ae8:	1817a223          	sw	ra,388(a5)
    1aec:	b0760393          	addi	t2,a2,-1273
    1af0:	1877a423          	sw	t2,392(a5)
    1af4:	d7570393          	addi	t2,a4,-651
    1af8:	1877a623          	sw	t2,396(a5)
    1afc:	4d470d93          	addi	s11,a4,1236
    1b00:	19b7a823          	sw	s11,400(a5)
    1b04:	86760e13          	addi	t3,a2,-1945
    1b08:	19c7aa23          	sw	t3,404(a5)
    1b0c:	94368293          	addi	t0,a3,-1725
    1b10:	1857ac23          	sw	t0,408(a5)
    1b14:	ee970293          	addi	t0,a4,-279
    1b18:	1857ae23          	sw	t0,412(a5)
    1b1c:	84160f93          	addi	t6,a2,-1983
    1b20:	1bf7a023          	sw	t6,416(a5)
    1b24:	74b70f93          	addi	t6,a4,1867
    1b28:	1bf7a223          	sw	t6,420(a5)
    1b2c:	6c400c13          	li	s8,1732
    1b30:	1b87a423          	sw	s8,424(a5)
    1b34:	000023b7          	lui	t2,0x2
    1b38:	70970b13          	addi	s6,a4,1801
    1b3c:	1b67a623          	sw	s6,428(a5)
    1b40:	e4038a93          	addi	s5,t2,-448 # 1e40 <main+0x6ac>
    1b44:	1b57a823          	sw	s5,432(a5)
    1b48:	99870a13          	addi	s4,a4,-1640
    1b4c:	1b47aa23          	sw	s4,436(a5)
    1b50:	45900993          	li	s3,1113
    1b54:	1b37ac23          	sw	s3,440(a5)
    1b58:	00003c37          	lui	s8,0x3
    1b5c:	72770d93          	addi	s11,a4,1831
    1b60:	1bb7ae23          	sw	s11,444(a5)
    1b64:	fb8c0293          	addi	t0,s8,-72 # 2fb8 <__udivdi3+0x1e0>
    1b68:	1c57a023          	sw	t0,448(a5)
    1b6c:	91370f93          	addi	t6,a4,-1773
    1b70:	1df7a223          	sw	t6,452(a5)
    1b74:	c9c38b13          	addi	s6,t2,-868
    1b78:	1d67a423          	sw	s6,456(a5)
    1b7c:	71870a93          	addi	s5,a4,1816
    1b80:	1d57a623          	sw	s5,460(a5)
    1b84:	8d570a13          	addi	s4,a4,-1835
    1b88:	1d47a823          	sw	s4,464(a5)
    1b8c:	e5438d93          	addi	s11,t2,-428
    1b90:	1db7aa23          	sw	s11,468(a5)
    1b94:	ad138293          	addi	t0,t2,-1327
    1b98:	a86c0b13          	addi	s6,s8,-1402
    1b9c:	1c57ac23          	sw	t0,472(a5)
    1ba0:	22d70a93          	addi	s5,a4,557
    1ba4:	1d67ae23          	sw	s6,476(a5)
    1ba8:	1f57a023          	sw	s5,480(a5)
    1bac:	04f38d93          	addi	s11,t2,79
    1bb0:	1fb7a223          	sw	s11,484(a5)
    1bb4:	b3838293          	addi	t0,t2,-1224
    1bb8:	1e57a423          	sw	t0,488(a5)
    1bbc:	dd070b13          	addi	s6,a4,-560
    1bc0:	1f67a623          	sw	s6,492(a5)
    1bc4:	53e00a93          	li	s5,1342
    1bc8:	1f57a823          	sw	s5,496(a5)
    1bcc:	65770d93          	addi	s11,a4,1623
    1bd0:	1fb7aa23          	sw	s11,500(a5)
    1bd4:	47a00293          	li	t0,1146
    1bd8:	1e57ac23          	sw	t0,504(a5)
    1bdc:	8e870b13          	addi	s6,a4,-1816
    1be0:	1f67ae23          	sw	s6,508(a5)
    1be4:	52a70d93          	addi	s11,a4,1322
    1be8:	21b7a023          	sw	s11,512(a5)
    1bec:	afdc0293          	addi	t0,s8,-1283
    1bf0:	2057a223          	sw	t0,516(a5)
    1bf4:	33c70d93          	addi	s11,a4,828
    1bf8:	21b7a423          	sw	s11,520(a5)
    1bfc:	76638293          	addi	t0,t2,1894
    1c00:	2057a623          	sw	t0,524(a5)
    1c04:	14a00d93          	li	s11,330
    1c08:	21b7a823          	sw	s11,528(a5)
    1c0c:	56338293          	addi	t0,t2,1379
    1c10:	2057aa23          	sw	t0,532(a5)
    1c14:	3c700d93          	li	s11,967
    1c18:	21b7ac23          	sw	s11,536(a5)
    1c1c:	dd770293          	addi	t0,a4,-553
    1c20:	2057ae23          	sw	t0,540(a5)
    1c24:	7b600d93          	li	s11,1974
    1c28:	23b7a023          	sw	s11,544(a5)
    1c2c:	6c938293          	addi	t0,t2,1737
    1c30:	2257a223          	sw	t0,548(a5)
    1c34:	74970d93          	addi	s11,a4,1865
    1c38:	23b7a423          	sw	s11,552(a5)
    1c3c:	dbec0c13          	addi	s8,s8,-578
    1c40:	2387a623          	sw	s8,556(a5)
    1c44:	21700293          	li	t0,535
    1c48:	2257a823          	sw	t0,560(a5)
    1c4c:	9fc70d93          	addi	s11,a4,-1540
    1c50:	23b7aa23          	sw	s11,564(a5)
    1c54:	32338c13          	addi	s8,t2,803
    1c58:	2387ac23          	sw	s8,568(a5)
    1c5c:	e9270293          	addi	t0,a4,-366
    1c60:	2257ae23          	sw	t0,572(a5)
    1c64:	28300d93          	li	s11,643
    1c68:	25b7a023          	sw	s11,576(a5)
    1c6c:	42400c13          	li	s8,1060
    1c70:	2587a223          	sw	s8,580(a5)
    1c74:	56d38293          	addi	t0,t2,1389
    1c78:	2457a423          	sw	t0,584(a5)
    1c7c:	14370d93          	addi	s11,a4,323
    1c80:	25b7a623          	sw	s11,588(a5)
    1c84:	05500293          	li	t0,85
    1c88:	2457a823          	sw	t0,592(a5)
    1c8c:	3c670d93          	addi	s11,a4,966
    1c90:	25b7aa23          	sw	s11,596(a5)
    1c94:	43770293          	addi	t0,a4,1079
    1c98:	00003db7          	lui	s11,0x3
    1c9c:	2457ac23          	sw	t0,600(a5)
    1ca0:	86cd8293          	addi	t0,s11,-1940 # 286c <main+0x10d8>
    1ca4:	bc170d93          	addi	s11,a4,-1087
    1ca8:	2457ae23          	sw	t0,604(a5)
    1cac:	27b7a023          	sw	s11,608(a5)
    1cb0:	def38293          	addi	t0,t2,-529
    1cb4:	2657a223          	sw	t0,612(a5)
    1cb8:	7f038d93          	addi	s11,t2,2032
    1cbc:	27b7a423          	sw	s11,616(a5)
    1cc0:	3e138393          	addi	t2,t2,993
    1cc4:	2677a623          	sw	t2,620(a5)
    1cc8:	4dd00293          	li	t0,1245
    1ccc:	2657a823          	sw	t0,624(a5)
    1cd0:	dec70d93          	addi	s11,a4,-532
    1cd4:	27b7aa23          	sw	s11,628(a5)
    1cd8:	da370393          	addi	t2,a4,-605
    1cdc:	2677ac23          	sw	t2,632(a5)
    1ce0:	eef70293          	addi	t0,a4,-273
    1ce4:	00003db7          	lui	s11,0x3
    1ce8:	2657ae23          	sw	t0,636(a5)
    1cec:	dd4d8393          	addi	t2,s11,-556 # 2dd4 <__moddi3+0x454>
    1cf0:	2877a023          	sw	t2,640(a5)
    1cf4:	2dd70d93          	addi	s11,a4,733
    1cf8:	29b7a223          	sw	s11,644(a5)
    1cfc:	be670393          	addi	t2,a4,-1050
    1d00:	2877a423          	sw	t2,648(a5)
    1d04:	13e70d93          	addi	s11,a4,318
    1d08:	29b7a623          	sw	s11,652(a5)
    1d0c:	21a00393          	li	t2,538
    1d10:	2877a823          	sw	t2,656(a5)
    1d14:	4fc70d93          	addi	s11,a4,1276
    1d18:	000023b7          	lui	t2,0x2
    1d1c:	29b7aa23          	sw	s11,660(a5)
    1d20:	19838d93          	addi	s11,t2,408 # 2198 <main+0xa04>
    1d24:	29b7ac23          	sw	s11,664(a5)
    1d28:	91770393          	addi	t2,a4,-1769
    1d2c:	00002db7          	lui	s11,0x2
    1d30:	2877ae23          	sw	t2,668(a5)
    1d34:	8f1d8393          	addi	t2,s11,-1807 # 18f1 <main+0x15d>
    1d38:	2a77a023          	sw	t2,672(a5)
    1d3c:	93670d93          	addi	s11,a4,-1738
    1d40:	000033b7          	lui	t2,0x3
    1d44:	2bb7a223          	sw	s11,676(a5)
    1d48:	9af38d93          	addi	s11,t2,-1617 # 29af <__moddi3+0x2f>
    1d4c:	000023b7          	lui	t2,0x2
    1d50:	2bb7a423          	sw	s11,680(a5)
    1d54:	11c38d93          	addi	s11,t2,284 # 211c <main+0x988>
    1d58:	2bb7a623          	sw	s11,684(a5)
    1d5c:	7df00393          	li	t2,2015
    1d60:	2a77a823          	sw	t2,688(a5)
    1d64:	7d000d93          	li	s11,2000
    1d68:	000023b7          	lui	t2,0x2
    1d6c:	2bb7aa23          	sw	s11,692(a5)
    1d70:	5c938d93          	addi	s11,t2,1481 # 25c9 <main+0xe35>
    1d74:	2bb7ac23          	sw	s11,696(a5)
    1d78:	d6670393          	addi	t2,a4,-666
    1d7c:	00002db7          	lui	s11,0x2
    1d80:	2a77ae23          	sw	t2,700(a5)
    1d84:	4c3d8393          	addi	t2,s11,1219 # 24c3 <main+0xd2f>
    1d88:	2c77a023          	sw	t2,704(a5)
    1d8c:	76770d93          	addi	s11,a4,1895
    1d90:	2db7a223          	sw	s11,708(a5)
    1d94:	78070393          	addi	t2,a4,1920
    1d98:	2c77a423          	sw	t2,712(a5)
    1d9c:	000033b7          	lui	t2,0x3
    1da0:	de138d93          	addi	s11,t2,-543 # 2de1 <__udivdi3+0x9>
    1da4:	2db7a623          	sw	s11,716(a5)
    1da8:	d9738393          	addi	t2,t2,-617
    1dac:	2c77a823          	sw	t2,720(a5)
    1db0:	56570d93          	addi	s11,a4,1381
    1db4:	000023b7          	lui	t2,0x2
    1db8:	2db7aa23          	sw	s11,724(a5)
    1dbc:	67d38d93          	addi	s11,t2,1661 # 267d <main+0xee9>
    1dc0:	2db7ac23          	sw	s11,728(a5)
    1dc4:	00003db7          	lui	s11,0x3
    1dc8:	e69d8d93          	addi	s11,s11,-407 # 2e69 <__udivdi3+0x91>
    1dcc:	2db7ae23          	sw	s11,732(a5)
    1dd0:	6ce38393          	addi	t2,t2,1742
    1dd4:	2e77a023          	sw	t2,736(a5)
    1dd8:	09a00d93          	li	s11,154
    1ddc:	000033b7          	lui	t2,0x3
    1de0:	2fb7a223          	sw	s11,740(a5)
    1de4:	90b38d93          	addi	s11,t2,-1781 # 290b <add+0x3b>
    1de8:	000023b7          	lui	t2,0x2
    1dec:	2fb7a423          	sw	s11,744(a5)
    1df0:	95938d93          	addi	s11,t2,-1703 # 1959 <main+0x1c5>
    1df4:	2fb7a623          	sw	s11,748(a5)
    1df8:	5a770393          	addi	t2,a4,1447
    1dfc:	2e77a823          	sw	t2,752(a5)
    1e00:	34370d93          	addi	s11,a4,835
    1e04:	2fb7aa23          	sw	s11,756(a5)
    1e08:	03100393          	li	t2,49
    1e0c:	00002db7          	lui	s11,0x2
    1e10:	2e77ac23          	sw	t2,760(a5)
    1e14:	f6ad8393          	addi	t2,s11,-150 # 1f6a <main+0x7d6>
    1e18:	2e77ae23          	sw	t2,764(a5)
    1e1c:	9a270d93          	addi	s11,a4,-1630
    1e20:	31b7a023          	sw	s11,768(a5)
    1e24:	e0370393          	addi	t2,a4,-509
    1e28:	3077a223          	sw	t2,772(a5)
    1e2c:	2d500d93          	li	s11,725
    1e30:	31b7a423          	sw	s11,776(a5)
    1e34:	68f00393          	li	t2,1679
    1e38:	3077a623          	sw	t2,780(a5)
    1e3c:	ee770d93          	addi	s11,a4,-281
    1e40:	000023b7          	lui	t2,0x2
    1e44:	31b7a823          	sw	s11,784(a5)
    1e48:	fdb38d93          	addi	s11,t2,-37 # 1fdb <main+0x847>
    1e4c:	000033b7          	lui	t2,0x3
    1e50:	31b7aa23          	sw	s11,788(a5)
    1e54:	b5938d93          	addi	s11,t2,-1191 # 2b59 <__moddi3+0x1d9>
    1e58:	31b7ac23          	sw	s11,792(a5)
    1e5c:	e4670393          	addi	t2,a4,-442
    1e60:	00002db7          	lui	s11,0x2
    1e64:	3077ae23          	sw	t2,796(a5)
    1e68:	9bbd8393          	addi	t2,s11,-1605 # 19bb <main+0x227>
    1e6c:	3277a023          	sw	t2,800(a5)
    1e70:	45070d93          	addi	s11,a4,1104
    1e74:	000023b7          	lui	t2,0x2
    1e78:	33b7a223          	sw	s11,804(a5)
    1e7c:	c6c38d93          	addi	s11,t2,-916 # 1c6c <main+0x4d8>
    1e80:	000033b7          	lui	t2,0x3
    1e84:	33b7a423          	sw	s11,808(a5)
    1e88:	f2f38d93          	addi	s11,t2,-209 # 2f2f <__udivdi3+0x157>
    1e8c:	33b7a623          	sw	s11,812(a5)
    1e90:	1ac00393          	li	t2,428
    1e94:	00002db7          	lui	s11,0x2
    1e98:	3277a823          	sw	t2,816(a5)
    1e9c:	21ad8393          	addi	t2,s11,538 # 221a <main+0xa86>
    1ea0:	00003db7          	lui	s11,0x3
    1ea4:	3277aa23          	sw	t2,820(a5)
    1ea8:	ac2d8393          	addi	t2,s11,-1342 # 2ac2 <__moddi3+0x142>
    1eac:	3277ac23          	sw	t2,824(a5)
    1eb0:	4a670d93          	addi	s11,a4,1190
    1eb4:	33b7ae23          	sw	s11,828(a5)
    1eb8:	24200393          	li	t2,578
    1ebc:	3477a023          	sw	t2,832(a5)
    1ec0:	4f100d93          	li	s11,1265
    1ec4:	35b7a223          	sw	s11,836(a5)
    1ec8:	00003db7          	lui	s11,0x3
    1ecc:	35e7a423          	sw	t5,840(a5)
    1ed0:	a4bd8f13          	addi	t5,s11,-1461 # 2a4b <__moddi3+0xcb>
    1ed4:	35e7a623          	sw	t5,844(a5)
    1ed8:	f7970393          	addi	t2,a4,-135
    1edc:	3477a823          	sw	t2,848(a5)
    1ee0:	000023b7          	lui	t2,0x2
    1ee4:	48338f13          	addi	t5,t2,1155 # 2483 <main+0xcef>
    1ee8:	35e7aa23          	sw	t5,852(a5)
    1eec:	a6338f13          	addi	t5,t2,-1437
    1ef0:	35e7ac23          	sw	t5,856(a5)
    1ef4:	32b70f13          	addi	t5,a4,811
    1ef8:	35e7ae23          	sw	t5,860(a5)
    1efc:	37b00f13          	li	t5,891
    1f00:	37e7a023          	sw	t5,864(a5)
    1f04:	5ea70f13          	addi	t5,a4,1514
    1f08:	37e7a223          	sw	t5,868(a5)
    1f0c:	c3d70f13          	addi	t5,a4,-963
    1f10:	37e7a423          	sw	t5,872(a5)
    1f14:	42e00f13          	li	t5,1070
    1f18:	37e7a623          	sw	t5,876(a5)
    1f1c:	b4c70f13          	addi	t5,a4,-1204
    1f20:	37e7a823          	sw	t5,880(a5)
    1f24:	0d970f13          	addi	t5,a4,217
    1f28:	37e7aa23          	sw	t5,884(a5)
    1f2c:	7dd38f13          	addi	t5,t2,2013
    1f30:	37e7ac23          	sw	t5,888(a5)
    1f34:	40038f13          	addi	t5,t2,1024
    1f38:	37e7ae23          	sw	t5,892(a5)
    1f3c:	99070f13          	addi	t5,a4,-1648
    1f40:	39e7a023          	sw	t5,896(a5)
    1f44:	c6470f13          	addi	t5,a4,-924
    1f48:	39e7a223          	sw	t5,900(a5)
    1f4c:	a6f38f13          	addi	t5,t2,-1425
    1f50:	39e7a423          	sw	t5,904(a5)
    1f54:	bc370f13          	addi	t5,a4,-1085
    1f58:	39e7a623          	sw	t5,908(a5)
    1f5c:	b6d70f13          	addi	t5,a4,-1171
    1f60:	39e7a823          	sw	t5,912(a5)
    1f64:	06200f13          	li	t5,98
    1f68:	39e7aa23          	sw	t5,916(a5)
    1f6c:	82c38f13          	addi	t5,t2,-2004
    1f70:	39e7ac23          	sw	t5,920(a5)
    1f74:	da768813          	addi	a6,a3,-601
    1f78:	3907ae23          	sw	a6,924(a5)
    1f7c:	0ac38f13          	addi	t5,t2,172
    1f80:	3be7a023          	sw	t5,928(a5)
    1f84:	861d8f13          	addi	t5,s11,-1951
    1f88:	3be7a223          	sw	t5,932(a5)
    1f8c:	d4670f13          	addi	t5,a4,-698
    1f90:	3be7a423          	sw	t5,936(a5)
    1f94:	f5470f13          	addi	t5,a4,-172
    1f98:	3be7a623          	sw	t5,940(a5)
    1f9c:	7a070f13          	addi	t5,a4,1952
    1fa0:	3be7a823          	sw	t5,944(a5)
    1fa4:	f8970f13          	addi	t5,a4,-119
    1fa8:	3be7aa23          	sw	t5,948(a5)
    1fac:	3bf7ac23          	sw	t6,952(a5)
    1fb0:	43b70f93          	addi	t6,a4,1083
    1fb4:	3bf7ae23          	sw	t6,956(a5)
    1fb8:	a6f70f13          	addi	t5,a4,-1425
    1fbc:	3de7a023          	sw	t5,960(a5)
    1fc0:	a8ad8f13          	addi	t5,s11,-1398
    1fc4:	3de7a223          	sw	t5,964(a5)
    1fc8:	be270f13          	addi	t5,a4,-1054
    1fcc:	3de7a423          	sw	t5,968(a5)
    1fd0:	8cc38f13          	addi	t5,t2,-1844
    1fd4:	3de7a623          	sw	t5,972(a5)
    1fd8:	3c100f13          	li	t5,961
    1fdc:	3de7a823          	sw	t5,976(a5)
    1fe0:	63000f13          	li	t5,1584
    1fe4:	3de7aa23          	sw	t5,980(a5)
    1fe8:	04570f13          	addi	t5,a4,69
    1fec:	3de7ac23          	sw	t5,984(a5)
    1ff0:	cced8f93          	addi	t6,s11,-818
    1ff4:	3df7ae23          	sw	t6,988(a5)
    1ff8:	2db38f13          	addi	t5,t2,731
    1ffc:	3fe7a023          	sw	t5,992(a5)
    2000:	3ff70f93          	addi	t6,a4,1023
    2004:	3ff7a223          	sw	t6,996(a5)
    2008:	8fd70f13          	addi	t5,a4,-1795
    200c:	45300f93          	li	t6,1107
    2010:	3fe7a423          	sw	t5,1000(a5)
    2014:	33568313          	addi	t1,a3,821
    2018:	3ff7a623          	sw	t6,1004(a5)
    201c:	3e67a823          	sw	t1,1008(a5)
    2020:	4d938f13          	addi	t5,t2,1241
    2024:	3fe7aa23          	sw	t5,1012(a5)
    2028:	c7970f93          	addi	t6,a4,-903
    202c:	3ff7ac23          	sw	t6,1016(a5)
    2030:	07d00f13          	li	t5,125
    2034:	3fe7ae23          	sw	t5,1020(a5)
    2038:	00038f93          	mv	t6,t2
    203c:	ac638393          	addi	t2,t2,-1338
    2040:	4077a023          	sw	t2,1024(a5)
    2044:	8c8f8f13          	addi	t5,t6,-1848
    2048:	41e7a223          	sw	t5,1028(a5)
    204c:	1e7f8393          	addi	t2,t6,487
    2050:	4077a423          	sw	t2,1032(a5)
    2054:	ef970f13          	addi	t5,a4,-263
    2058:	41e7a623          	sw	t5,1036(a5)
    205c:	311f8393          	addi	t2,t6,785
    2060:	4077a823          	sw	t2,1040(a5)
    2064:	d7ad8f13          	addi	t5,s11,-646
    2068:	41e7aa23          	sw	t5,1044(a5)
    206c:	62800393          	li	t2,1576
    2070:	4077ac23          	sw	t2,1048(a5)
    2074:	ea8f8f13          	addi	t5,t6,-344
    2078:	41e7ae23          	sw	t5,1052(a5)
    207c:	ae970393          	addi	t2,a4,-1303
    2080:	4277a023          	sw	t2,1056(a5)
    2084:	15300f13          	li	t5,339
    2088:	43e7a223          	sw	t5,1060(a5)
    208c:	61af8393          	addi	t2,t6,1562
    2090:	4277a423          	sw	t2,1064(a5)
    2094:	d07d8f13          	addi	t5,s11,-761
    2098:	43e7a623          	sw	t5,1068(a5)
    209c:	43d7a823          	sw	t4,1072(a5)
    20a0:	a2670e93          	addi	t4,a4,-1498
    20a4:	43d7aa23          	sw	t4,1076(a5)
    20a8:	afd70393          	addi	t2,a4,-1283
    20ac:	4277ac23          	sw	t2,1080(a5)
    20b0:	afbf8f13          	addi	t5,t6,-1285
    20b4:	43e7ae23          	sw	t5,1084(a5)
    20b8:	875d8e93          	addi	t4,s11,-1931
    20bc:	45d7a023          	sw	t4,1088(a5)
    20c0:	9aef8393          	addi	t2,t6,-1618
    20c4:	4477a223          	sw	t2,1092(a5)
    20c8:	1e270f13          	addi	t5,a4,482
    20cc:	45e7a423          	sw	t5,1096(a5)
    20d0:	42e70393          	addi	t2,a4,1070
    20d4:	4477a623          	sw	t2,1100(a5)
    20d8:	383f8f13          	addi	t5,t6,899
    20dc:	45e7a823          	sw	t5,1104(a5)
    20e0:	a54d8393          	addi	t2,s11,-1452
    20e4:	4477aa23          	sw	t2,1108(a5)
    20e8:	fe5d8f13          	addi	t5,s11,-27
    20ec:	45e7ac23          	sw	t5,1112(a5)
    20f0:	89ad8393          	addi	t2,s11,-1894
    20f4:	4477ae23          	sw	t2,1116(a5)
    20f8:	bc770f13          	addi	t5,a4,-1081
    20fc:	47e7a023          	sw	t5,1120(a5)
    2100:	f6a70393          	addi	t2,a4,-150
    2104:	4677a223          	sw	t2,1124(a5)
    2108:	f9bd8d93          	addi	s11,s11,-101
    210c:	47b7a423          	sw	s11,1128(a5)
    2110:	982f8f13          	addi	t5,t6,-1662
    2114:	34470393          	addi	t2,a4,836
    2118:	47e7a623          	sw	t5,1132(a5)
    211c:	4677a823          	sw	t2,1136(a5)
    2120:	000f8393          	mv	t2,t6
    2124:	c53f8f93          	addi	t6,t6,-941
    2128:	47f7aa23          	sw	t6,1140(a5)
    212c:	53100d93          	li	s11,1329
    2130:	00003f37          	lui	t5,0x3
    2134:	47b7ac23          	sw	s11,1144(a5)
    2138:	fecf0f93          	addi	t6,t5,-20 # 2fec <__udivdi3+0x214>
    213c:	47f7ae23          	sw	t6,1148(a5)
    2140:	c0d70d93          	addi	s11,a4,-1011
    2144:	00003fb7          	lui	t6,0x3
    2148:	49b7a023          	sw	s11,1152(a5)
    214c:	a8bf8d93          	addi	s11,t6,-1397 # 2a8b <__moddi3+0x10b>
    2150:	49b7a223          	sw	s11,1156(a5)
    2154:	09838f93          	addi	t6,t2,152
    2158:	49f7a423          	sw	t6,1160(a5)
    215c:	40770d93          	addi	s11,a4,1031
    2160:	49b7a623          	sw	s11,1164(a5)
    2164:	7c270f93          	addi	t6,a4,1986
    2168:	49f7a823          	sw	t6,1168(a5)
    216c:	41570d93          	addi	s11,a4,1045
    2170:	00003fb7          	lui	t6,0x3
    2174:	49b7aa23          	sw	s11,1172(a5)
    2178:	b73f8d93          	addi	s11,t6,-1165 # 2b73 <__moddi3+0x1f3>
    217c:	49b7ac23          	sw	s11,1176(a5)
    2180:	8ee38f93          	addi	t6,t2,-1810
    2184:	49f7ae23          	sw	t6,1180(a5)
    2188:	54b38393          	addi	t2,t2,1355
    218c:	4a77a023          	sw	t2,1184(a5)
    2190:	f3060d13          	addi	s10,a2,-208
    2194:	4ba7a223          	sw	s10,1188(a5)
    2198:	14b70d13          	addi	s10,a4,331
    219c:	4ba7a423          	sw	s10,1192(a5)
    21a0:	af668b93          	addi	s7,a3,-1290
    21a4:	4b77a623          	sw	s7,1196(a5)
    21a8:	84860413          	addi	s0,a2,-1976
    21ac:	4a87a823          	sw	s0,1200(a5)
    21b0:	da868093          	addi	ra,a3,-600
    21b4:	4a17aa23          	sw	ra,1204(a5)
    21b8:	54c00b93          	li	s7,1356
    21bc:	4b77ac23          	sw	s7,1208(a5)
    21c0:	e3268493          	addi	s1,a3,-462
    21c4:	4a97ae23          	sw	s1,1212(a5)
    21c8:	e0170413          	addi	s0,a4,-511
    21cc:	4c87a023          	sw	s0,1216(a5)
    21d0:	be568913          	addi	s2,a3,-1051
    21d4:	4d27a223          	sw	s2,1220(a5)
    21d8:	28400093          	li	ra,644
    21dc:	4c17a423          	sw	ra,1224(a5)
    21e0:	67f70493          	addi	s1,a4,1663
    21e4:	4c97a623          	sw	s1,1228(a5)
    21e8:	72568993          	addi	s3,a3,1829
    21ec:	4d37a823          	sw	s3,1232(a5)
    21f0:	1c970993          	addi	s3,a4,457
    21f4:	4d37aa23          	sw	s3,1236(a5)
    21f8:	69f70913          	addi	s2,a4,1695
    21fc:	4d27ac23          	sw	s2,1240(a5)
    2200:	94270f93          	addi	t6,a4,-1726
    2204:	4df7ae23          	sw	t6,1244(a5)
    2208:	57768a13          	addi	s4,a3,1399
    220c:	4f47a023          	sw	s4,1248(a5)
    2210:	bb368a93          	addi	s5,a3,-1101
    2214:	4f57a223          	sw	s5,1252(a5)
    2218:	a7c70a13          	addi	s4,a4,-1412
    221c:	4f47a423          	sw	s4,1256(a5)
    2220:	b8c70a93          	addi	s5,a4,-1140
    2224:	acb68b13          	addi	s6,a3,-1333
    2228:	4f57a623          	sw	s5,1260(a5)
    222c:	78500393          	li	t2,1925
    2230:	4e77a823          	sw	t2,1264(a5)
    2234:	4f67aa23          	sw	s6,1268(a5)
    2238:	4fc7ac23          	sw	t3,1272(a5)
    223c:	b7470e13          	addi	t3,a4,-1164
    2240:	4fc7ae23          	sw	t3,1276(a5)
    2244:	0b270b13          	addi	s6,a4,178
    2248:	5167a023          	sw	s6,1280(a5)
    224c:	5db70d13          	addi	s10,a4,1499
    2250:	51a7a223          	sw	s10,1284(a5)
    2254:	6c370b93          	addi	s7,a4,1731
    2258:	5177a423          	sw	s7,1288(a5)
    225c:	14200413          	li	s0,322
    2260:	5087a623          	sw	s0,1292(a5)
    2264:	f8960c13          	addi	s8,a2,-119
    2268:	5187a823          	sw	s8,1296(a5)
    226c:	42170c13          	addi	s8,a4,1057
    2270:	5187aa23          	sw	s8,1300(a5)
    2274:	0b170093          	addi	ra,a4,177
    2278:	5017ac23          	sw	ra,1304(a5)
    227c:	9bb70493          	addi	s1,a4,-1605
    2280:	5097ae23          	sw	s1,1308(a5)
    2284:	18e70913          	addi	s2,a4,398
    2288:	00002fb7          	lui	t6,0x2
    228c:	5327a023          	sw	s2,1312(a5)
    2290:	000024b7          	lui	s1,0x2
    2294:	0f5f8a13          	addi	s4,t6,245 # 20f5 <main+0x961>
    2298:	5347a223          	sw	s4,1316(a5)
    229c:	81948a93          	addi	s5,s1,-2023 # 1819 <main+0x85>
    22a0:	5357a423          	sw	s5,1320(a5)
    22a4:	74570393          	addi	t2,a4,1861
    22a8:	5277a623          	sw	t2,1324(a5)
    22ac:	89148e13          	addi	t3,s1,-1903
    22b0:	53c7a823          	sw	t3,1328(a5)
    22b4:	6a848b13          	addi	s6,s1,1704
    22b8:	5367aa23          	sw	s6,1332(a5)
    22bc:	27a48d13          	addi	s10,s1,634
    22c0:	53a7ac23          	sw	s10,1336(a5)
    22c4:	00003c37          	lui	s8,0x3
    22c8:	d4e70b93          	addi	s7,a4,-690
    22cc:	5377ae23          	sw	s7,1340(a5)
    22d0:	ad6c0413          	addi	s0,s8,-1322 # 2ad6 <__moddi3+0x156>
    22d4:	5487a023          	sw	s0,1344(a5)
    22d8:	b4bc0093          	addi	ra,s8,-1205
    22dc:	5417a223          	sw	ra,1348(a5)
    22e0:	db6c0913          	addi	s2,s8,-586
    22e4:	5527a423          	sw	s2,1352(a5)
    22e8:	0c000f93          	li	t6,192
    22ec:	55f7a623          	sw	t6,1356(a5)
    22f0:	ab570a13          	addi	s4,a4,-1355
    22f4:	5547a823          	sw	s4,1360(a5)
    22f8:	37c70a93          	addi	s5,a4,892
    22fc:	5557aa23          	sw	s5,1364(a5)
    2300:	7fe70393          	addi	t2,a4,2046
    2304:	5477ac23          	sw	t2,1368(a5)
    2308:	8a948e13          	addi	t3,s1,-1879
    230c:	55c7ae23          	sw	t3,1372(a5)
    2310:	f5b48b13          	addi	s6,s1,-165
    2314:	5767a023          	sw	s6,1376(a5)
    2318:	59970d13          	addi	s10,a4,1433
    231c:	57a7a223          	sw	s10,1380(a5)
    2320:	29248b93          	addi	s7,s1,658
    2324:	5777a423          	sw	s7,1384(a5)
    2328:	3f248413          	addi	s0,s1,1010
    232c:	5687a623          	sw	s0,1388(a5)
    2330:	cd648093          	addi	ra,s1,-810
    2334:	5617a823          	sw	ra,1392(a5)
    2338:	d9170f93          	addi	t6,a4,-623
    233c:	24570a13          	addi	s4,a4,581
    2340:	57f7aa23          	sw	t6,1396(a5)
    2344:	e67c0a93          	addi	s5,s8,-409
    2348:	5747ac23          	sw	s4,1400(a5)
    234c:	5757ae23          	sw	s5,1404(a5)
    2350:	3bf00393          	li	t2,959
    2354:	5877a023          	sw	t2,1408(a5)
    2358:	e47c0c13          	addi	s8,s8,-441
    235c:	5987a223          	sw	s8,1412(a5)
    2360:	5ee70b13          	addi	s6,a4,1518
    2364:	5967a423          	sw	s6,1416(a5)
    2368:	38048d13          	addi	s10,s1,896
    236c:	59a7a623          	sw	s10,1420(a5)
    2370:	94f70493          	addi	s1,a4,-1713
    2374:	5897a823          	sw	s1,1424(a5)
    2378:	d2770413          	addi	s0,a4,-729
    237c:	5887aa23          	sw	s0,1428(a5)
    2380:	77968e93          	addi	t4,a3,1913
    2384:	59d7ac23          	sw	t4,1432(a5)
    2388:	0da68f13          	addi	t5,a3,218
    238c:	59e7ae23          	sw	t5,1436(a5)
    2390:	85a68d93          	addi	s11,a3,-1958
    2394:	5bb7a023          	sw	s11,1440(a5)
    2398:	0d700e93          	li	t4,215
    239c:	5bd7a223          	sw	t4,1444(a5)
    23a0:	04c00f13          	li	t5,76
    23a4:	5be7a423          	sw	t5,1448(a5)
    23a8:	3a200d93          	li	s11,930
    23ac:	5bb7a623          	sw	s11,1452(a5)
    23b0:	8a168913          	addi	s2,a3,-1887
    23b4:	5b27a823          	sw	s2,1456(a5)
    23b8:	56d70093          	addi	ra,a4,1389
    23bc:	5a17aa23          	sw	ra,1460(a5)
    23c0:	de260e13          	addi	t3,a2,-542
    23c4:	5bc7ac23          	sw	t3,1464(a5)
    23c8:	43570a13          	addi	s4,a4,1077
    23cc:	5b47ae23          	sw	s4,1468(a5)
    23d0:	5ff68b93          	addi	s7,a3,1535
    23d4:	5d77a023          	sw	s7,1472(a5)
    23d8:	b3f70f93          	addi	t6,a4,-1217
    23dc:	5df7a223          	sw	t6,1476(a5)
    23e0:	56800393          	li	t2,1384
    23e4:	5c77a423          	sw	t2,1480(a5)
    23e8:	5c67a623          	sw	t1,1484(a5)
    23ec:	99568913          	addi	s2,a3,-1643
    23f0:	5d27a823          	sw	s2,1488(a5)
    23f4:	41368a93          	addi	s5,a3,1043
    23f8:	5d57aa23          	sw	s5,1492(a5)
    23fc:	45f00313          	li	t1,1119
    2400:	5c67ac23          	sw	t1,1496(a5)
    2404:	5d17ae23          	sw	a7,1500(a5)
    2408:	82170893          	addi	a7,a4,-2015
    240c:	5f17a023          	sw	a7,1504(a5)
    2410:	60f70e13          	addi	t3,a4,1551
    2414:	5fc7a223          	sw	t3,1508(a5)
    2418:	5f07a423          	sw	a6,1512(a5)
    241c:	d1170b13          	addi	s6,a4,-751
    2420:	5f67a623          	sw	s6,1516(a5)
    2424:	70268c13          	addi	s8,a3,1794
    2428:	5f87a823          	sw	s8,1520(a5)
    242c:	c1668813          	addi	a6,a3,-1002
    2430:	5ea7aa23          	sw	a0,1524(a5)
    2434:	16a70513          	addi	a0,a4,362
    2438:	5ea7ac23          	sw	a0,1528(a5)
    243c:	18a70b93          	addi	s7,a4,394
    2440:	5f07ae23          	sw	a6,1532(a5)
    2444:	6177a023          	sw	s7,1536(a5)
    2448:	5d468d13          	addi	s10,a3,1492
    244c:	61a7a223          	sw	s10,1540(a5)
    2450:	4fa70413          	addi	s0,a4,1274
    2454:	6087a423          	sw	s0,1544(a5)
    2458:	ad968493          	addi	s1,a3,-1319
    245c:	6097a623          	sw	s1,1548(a5)
    2460:	28800e93          	li	t4,648
    2464:	61d7a823          	sw	t4,1552(a5)
    2468:	61470d93          	addi	s11,a4,1556
    246c:	61b7aa23          	sw	s11,1556(a5)
    2470:	c3960f13          	addi	t5,a2,-967
    2474:	61e7ac23          	sw	t5,1560(a5)
    2478:	29a70913          	addi	s2,a4,666
    247c:	6127ae23          	sw	s2,1564(a5)
    2480:	8c960093          	addi	ra,a2,-1847
    2484:	6217a023          	sw	ra,1568(a5)
    2488:	0d068a93          	addi	s5,a3,208
    248c:	6357a223          	sw	s5,1572(a5)
    2490:	dc360f93          	addi	t6,a2,-573
    2494:	63f7a423          	sw	t6,1576(a5)
    2498:	9f470313          	addi	t1,a4,-1548
    249c:	6267a623          	sw	t1,1580(a5)
    24a0:	eb468393          	addi	t2,a3,-332
    24a4:	6277a823          	sw	t2,1584(a5)
    24a8:	e0b68893          	addi	a7,a3,-501
    24ac:	6317aa23          	sw	a7,1588(a5)
    24b0:	17000c13          	li	s8,368
    24b4:	6387ac23          	sw	s8,1592(a5)
    24b8:	8f060e13          	addi	t3,a2,-1808
    24bc:	63c7ae23          	sw	t3,1596(a5)
    24c0:	e4470813          	addi	a6,a4,-444
    24c4:	6507a023          	sw	a6,1600(a5)
    24c8:	79e00b13          	li	s6,1950
    24cc:	6567a223          	sw	s6,1604(a5)
    24d0:	0eb68513          	addi	a0,a3,235
    24d4:	64a7a423          	sw	a0,1608(a5)
    24d8:	6a370d13          	addi	s10,a4,1699
    24dc:	65a7a623          	sw	s10,1612(a5)
    24e0:	00400b93          	li	s7,4
    24e4:	6577a823          	sw	s7,1616(a5)
    24e8:	97d60493          	addi	s1,a2,-1667
    24ec:	6497aa23          	sw	s1,1620(a5)
    24f0:	6597ac23          	sw	s9,1624(a5)
    24f4:	da870c93          	addi	s9,a4,-600
    24f8:	6597ae23          	sw	s9,1628(a5)
    24fc:	22900413          	li	s0,553
    2500:	6687a023          	sw	s0,1632(a5)
    2504:	a7360e93          	addi	t4,a2,-1421
    2508:	67d7a223          	sw	t4,1636(a5)
    250c:	b4868f13          	addi	t5,a3,-1208
    2510:	67e7a423          	sw	t5,1640(a5)
    2514:	31070d93          	addi	s11,a4,784
    2518:	67b7a623          	sw	s11,1644(a5)
    251c:	98b60093          	addi	ra,a2,-1653
    2520:	6617a823          	sw	ra,1648(a5)
    2524:	cb770913          	addi	s2,a4,-841
    2528:	6727aa23          	sw	s2,1652(a5)
    252c:	5c868a93          	addi	s5,a3,1480
    2530:	a0960393          	addi	t2,a2,-1527
    2534:	6757ac23          	sw	s5,1656(a5)
    2538:	53070f93          	addi	t6,a4,1328
    253c:	67f7ae23          	sw	t6,1660(a5)
    2540:	bcd70313          	addi	t1,a4,-1075
    2544:	6877a023          	sw	t2,1664(a5)
    2548:	6867a223          	sw	t1,1668(a5)
    254c:	0d070893          	addi	a7,a4,208
    2550:	6917a423          	sw	a7,1672(a5)
    2554:	59200c13          	li	s8,1426
    2558:	6987a623          	sw	s8,1676(a5)
    255c:	31968e13          	addi	t3,a3,793
    2560:	69c7a823          	sw	t3,1680(a5)
    2564:	2b000813          	li	a6,688
    2568:	6907aa23          	sw	a6,1684(a5)
    256c:	e5060b13          	addi	s6,a2,-432
    2570:	6967ac23          	sw	s6,1688(a5)
    2574:	f5f68513          	addi	a0,a3,-161
    2578:	68a7ae23          	sw	a0,1692(a5)
    257c:	e8960d13          	addi	s10,a2,-375
    2580:	6ba7a023          	sw	s10,1696(a5)
    2584:	aea60b93          	addi	s7,a2,-1302
    2588:	6b77a223          	sw	s7,1700(a5)
    258c:	c6e68493          	addi	s1,a3,-914
    2590:	6a97a423          	sw	s1,1704(a5)
    2594:	6b37a623          	sw	s3,1708(a5)
    2598:	6bb68993          	addi	s3,a3,1723
    259c:	6b37a823          	sw	s3,1712(a5)
    25a0:	69470c93          	addi	s9,a4,1684
    25a4:	6b97aa23          	sw	s9,1716(a5)
    25a8:	38300413          	li	s0,899
    25ac:	6a87ac23          	sw	s0,1720(a5)
    25b0:	5fe68e93          	addi	t4,a3,1534
    25b4:	6bd7ae23          	sw	t4,1724(a5)
    25b8:	68270f13          	addi	t5,a4,1666
    25bc:	6de7a023          	sw	t5,1728(a5)
    25c0:	9f570d93          	addi	s11,a4,-1547
    25c4:	6db7a223          	sw	s11,1732(a5)
    25c8:	14068093          	addi	ra,a3,320
    25cc:	6c17a423          	sw	ra,1736(a5)
    25d0:	8be60913          	addi	s2,a2,-1858
    25d4:	6d27a623          	sw	s2,1740(a5)
    25d8:	6c77a823          	sw	t2,1744(a5)
    25dc:	6f568a93          	addi	s5,a3,1781
    25e0:	6d57aa23          	sw	s5,1748(a5)
    25e4:	ed170f93          	addi	t6,a4,-303
    25e8:	6df7ac23          	sw	t6,1752(a5)
    25ec:	86b60393          	addi	t2,a2,-1941
    25f0:	6c77ae23          	sw	t2,1756(a5)
    25f4:	bf168313          	addi	t1,a3,-1039
    25f8:	6e67a023          	sw	t1,1760(a5)
    25fc:	0ac00893          	li	a7,172
    2600:	6f17a223          	sw	a7,1764(a5)
    2604:	8a370c13          	addi	s8,a4,-1885
    2608:	6f87a423          	sw	s8,1768(a5)
    260c:	48400e13          	li	t3,1156
    2610:	6fc7a623          	sw	t3,1772(a5)
    2614:	faa70813          	addi	a6,a4,-86
    2618:	6f07a823          	sw	a6,1776(a5)
    261c:	b4d70b13          	addi	s6,a4,-1203
    2620:	6f67aa23          	sw	s6,1780(a5)
    2624:	0fc70513          	addi	a0,a4,252
    2628:	6ea7ac23          	sw	a0,1784(a5)
    262c:	edc70d13          	addi	s10,a4,-292
    2630:	6fa7ae23          	sw	s10,1788(a5)
    2634:	75d70b93          	addi	s7,a4,1885
    2638:	1a468493          	addi	s1,a3,420
    263c:	7177a023          	sw	s7,1792(a5)
    2640:	5b470993          	addi	s3,a4,1460
    2644:	7097a223          	sw	s1,1796(a5)
    2648:	7137a423          	sw	s3,1800(a5)
    264c:	b3370c93          	addi	s9,a4,-1229
    2650:	7197a623          	sw	s9,1804(a5)
    2654:	9df68413          	addi	s0,a3,-1569
    2658:	7087a823          	sw	s0,1808(a5)
    265c:	c0a68e93          	addi	t4,a3,-1014
    2660:	71d7aa23          	sw	t4,1812(a5)
    2664:	46468f13          	addi	t5,a3,1124
    2668:	71e7ac23          	sw	t5,1816(a5)
    266c:	3a068d93          	addi	s11,a3,928
    2670:	71b7ae23          	sw	s11,1820(a5)
    2674:	f4a70093          	addi	ra,a4,-182
    2678:	7217a023          	sw	ra,1824(a5)
    267c:	01400913          	li	s2,20
    2680:	7327a223          	sw	s2,1828(a5)
    2684:	f3d60a93          	addi	s5,a2,-195
    2688:	7357a423          	sw	s5,1832(a5)
    268c:	d2168f93          	addi	t6,a3,-735
    2690:	73f7a623          	sw	t6,1836(a5)
    2694:	e5d70393          	addi	t2,a4,-419
    2698:	7277a823          	sw	t2,1840(a5)
    269c:	53a00313          	li	t1,1338
    26a0:	7267aa23          	sw	t1,1844(a5)
    26a4:	49400c13          	li	s8,1172
    26a8:	7387ac23          	sw	s8,1848(a5)
    26ac:	e0070893          	addi	a7,a4,-512
    26b0:	7317ae23          	sw	a7,1852(a5)
    26b4:	c1770e13          	addi	t3,a4,-1001
    26b8:	75c7a023          	sw	t3,1856(a5)
    26bc:	dfa70813          	addi	a6,a4,-518
    26c0:	7507a223          	sw	a6,1860(a5)
    26c4:	3e268b13          	addi	s6,a3,994
    26c8:	7567a423          	sw	s6,1864(a5)
    26cc:	34670513          	addi	a0,a4,838
    26d0:	74a7a623          	sw	a0,1868(a5)
    26d4:	01668d13          	addi	s10,a3,22
    26d8:	75a7a823          	sw	s10,1872(a5)
    26dc:	7547aa23          	sw	s4,1876(a5)
    26e0:	c9560a13          	addi	s4,a2,-875
    26e4:	7547ac23          	sw	s4,1880(a5)
    26e8:	fee60b93          	addi	s7,a2,-18
    26ec:	7577ae23          	sw	s7,1884(a5)
    26f0:	6db70493          	addi	s1,a4,1755
    26f4:	7697a023          	sw	s1,1888(a5)
    26f8:	9f568993          	addi	s3,a3,-1547
    26fc:	7737a223          	sw	s3,1892(a5)
    2700:	3e568c93          	addi	s9,a3,997
    2704:	7797a423          	sw	s9,1896(a5)
    2708:	01f70413          	addi	s0,a4,31
    270c:	7687a623          	sw	s0,1900(a5)
    2710:	9da68e93          	addi	t4,a3,-1574
    2714:	77d7a823          	sw	t4,1904(a5)
    2718:	09a70f13          	addi	t5,a4,154
    271c:	77e7aa23          	sw	t5,1908(a5)
    2720:	ec260d93          	addi	s11,a2,-318
    2724:	77b7ac23          	sw	s11,1912(a5)
    2728:	66368093          	addi	ra,a3,1635
    272c:	7617ae23          	sw	ra,1916(a5)
    2730:	fc160913          	addi	s2,a2,-63
    2734:	7927a023          	sw	s2,1920(a5)
    2738:	47b68a93          	addi	s5,a3,1147
    273c:	52d70f93          	addi	t6,a4,1325
    2740:	7957a223          	sw	s5,1924(a5)
    2744:	95360393          	addi	t2,a2,-1709
    2748:	79f7a423          	sw	t6,1928(a5)
    274c:	7877a623          	sw	t2,1932(a5)
    2750:	ef260313          	addi	t1,a2,-270
    2754:	7867a823          	sw	t1,1936(a5)
    2758:	78b7aa23          	sw	a1,1940(a5)
    275c:	d9d68593          	addi	a1,a3,-611
    2760:	78b7ac23          	sw	a1,1944(a5)
    2764:	39470893          	addi	a7,a4,916
    2768:	7917ae23          	sw	a7,1948(a5)
    276c:	75300c13          	li	s8,1875
    2770:	7b87a023          	sw	s8,1952(a5)
    2774:	bc470e13          	addi	t3,a4,-1084
    2778:	7bc7a223          	sw	t3,1956(a5)
    277c:	11468813          	addi	a6,a3,276
    2780:	7b07a423          	sw	a6,1960(a5)
    2784:	43470b13          	addi	s6,a4,1076
    2788:	7b67a623          	sw	s6,1964(a5)
    278c:	1c270513          	addi	a0,a4,450
    2790:	7aa7a823          	sw	a0,1968(a5)
    2794:	8c068d13          	addi	s10,a3,-1856
    2798:	7ba7aa23          	sw	s10,1972(a5)
    279c:	a0370a13          	addi	s4,a4,-1533
    27a0:	7b47ac23          	sw	s4,1976(a5)
    27a4:	94b60b93          	addi	s7,a2,-1717
    27a8:	7b77ae23          	sw	s7,1980(a5)
    27ac:	faf68493          	addi	s1,a3,-81
    27b0:	7c97a023          	sw	s1,1984(a5)
    27b4:	ca460993          	addi	s3,a2,-860
    27b8:	7d37a223          	sw	s3,1988(a5)
    27bc:	13870c93          	addi	s9,a4,312
    27c0:	7d97a423          	sw	s9,1992(a5)
    27c4:	7c57a623          	sw	t0,1996(a5)
    27c8:	ff168293          	addi	t0,a3,-15
    27cc:	7c57a823          	sw	t0,2000(a5)
    27d0:	e4270413          	addi	s0,a4,-446
    27d4:	7c87aa23          	sw	s0,2004(a5)
    27d8:	a6768e93          	addi	t4,a3,-1433
    27dc:	7dd7ac23          	sw	t4,2008(a5)
    27e0:	9cc60f13          	addi	t5,a2,-1588
    27e4:	7de7ae23          	sw	t5,2012(a5)
    27e8:	3ff68d93          	addi	s11,a3,1023
    27ec:	7fb7a023          	sw	s11,2016(a5)
    27f0:	9f370093          	addi	ra,a4,-1549
    27f4:	7e17a223          	sw	ra,2020(a5)
    27f8:	59e70913          	addi	s2,a4,1438
    27fc:	7f27a423          	sw	s2,2024(a5)
    2800:	b1e70a93          	addi	s5,a4,-1250
    2804:	7f57a623          	sw	s5,2028(a5)
    2808:	84c70f93          	addi	t6,a4,-1972
    280c:	7ff7a823          	sw	t6,2032(a5)
    2810:	26970713          	addi	a4,a4,617
    2814:	7ee7aa23          	sw	a4,2036(a5)
    2818:	0f068693          	addi	a3,a3,240
    281c:	7ed7ac23          	sw	a3,2040(a5)
    2820:	ebc60613          	addi	a2,a2,-324
    2824:	7ec7ae23          	sw	a2,2044(a5)
    2828:	00480537          	lui	a0,0x480
    282c:	0a4000ef          	jal	ra,28d0 <add>
    2830:	03200b13          	li	s6,50
    2834:	00004c37          	lui	s8,0x4
    2838:	878c0513          	addi	a0,s8,-1928 # 3878 <__clz_tab+0x100>
    283c:	dd1fe0ef          	jal	ra,160c <sc_printf.constprop.0>
    2840:	878c0513          	addi	a0,s8,-1928
    2844:	dc9fe0ef          	jal	ra,160c <sc_printf.constprop.0>
    2848:	878c0513          	addi	a0,s8,-1928
    284c:	dc1fe0ef          	jal	ra,160c <sc_printf.constprop.0>
    2850:	878c0513          	addi	a0,s8,-1928
    2854:	db9fe0ef          	jal	ra,160c <sc_printf.constprop.0>
    2858:	878c0513          	addi	a0,s8,-1928
    285c:	db1fe0ef          	jal	ra,160c <sc_printf.constprop.0>
    2860:	878c0513          	addi	a0,s8,-1928
    2864:	da9fe0ef          	jal	ra,160c <sc_printf.constprop.0>
    2868:	878c0513          	addi	a0,s8,-1928
    286c:	da1fe0ef          	jal	ra,160c <sc_printf.constprop.0>
    2870:	878c0513          	addi	a0,s8,-1928
    2874:	d99fe0ef          	jal	ra,160c <sc_printf.constprop.0>
    2878:	878c0513          	addi	a0,s8,-1928
    287c:	d91fe0ef          	jal	ra,160c <sc_printf.constprop.0>
    2880:	ff6b0b13          	addi	s6,s6,-10
    2884:	878c0513          	addi	a0,s8,-1928
    2888:	d85fe0ef          	jal	ra,160c <sc_printf.constprop.0>
    288c:	fa0b16e3          	bnez	s6,2838 <main+0x10a4>
    2890:	03c12083          	lw	ra,60(sp)
    2894:	03812403          	lw	s0,56(sp)
    2898:	03412483          	lw	s1,52(sp)
    289c:	03012903          	lw	s2,48(sp)
    28a0:	02c12983          	lw	s3,44(sp)
    28a4:	02812a03          	lw	s4,40(sp)
    28a8:	02412a83          	lw	s5,36(sp)
    28ac:	02012b03          	lw	s6,32(sp)
    28b0:	01c12b83          	lw	s7,28(sp)
    28b4:	01812c03          	lw	s8,24(sp)
    28b8:	01412c83          	lw	s9,20(sp)
    28bc:	01012d03          	lw	s10,16(sp)
    28c0:	00c12d83          	lw	s11,12(sp)
    28c4:	00000513          	li	a0,0
    28c8:	04010113          	addi	sp,sp,64
    28cc:	00008067          	ret

000028d0 <add>:
    28d0:	1141                	addi	sp,sp,-16
    28d2:	0001                	nop
    28d4:	0001                	nop
    28d6:	0001                	nop
    28d8:	0001                	nop
    28da:	0001                	nop
    28dc:	0001                	nop
    28de:	0001                	nop
    28e0:	0001                	nop
    28e2:	0001                	nop
    28e4:	0001                	nop
    28e6:	0001                	nop
    28e8:	0001                	nop
    28ea:	0001                	nop
    28ec:	0001                	nop
    28ee:	0001                	nop
    28f0:	0001                	nop
    28f2:	0001                	nop
    28f4:	0001                	nop
    28f6:	0001                	nop
    28f8:	0001                	nop
    28fa:	0001                	nop
    28fc:	0001                	nop
    28fe:	0001                	nop
    2900:	0001                	nop
    2902:	0001                	nop
    2904:	0001                	nop
    2906:	0001                	nop
    2908:	0001                	nop
    290a:	0001                	nop
    290c:	0001                	nop
    290e:	0001                	nop
    2910:	0001                	nop
    2912:	0001                	nop
    2914:	0001                	nop
    2916:	0001                	nop
    2918:	0001                	nop
    291a:	0001                	nop
    291c:	0001                	nop
    291e:	0001                	nop
    2920:	0001                	nop
    2922:	0001                	nop
    2924:	0001                	nop
    2926:	0001                	nop
    2928:	0001                	nop
    292a:	0001                	nop
    292c:	0001                	nop
    292e:	0001                	nop
    2930:	0001                	nop
    2932:	0001                	nop
    2934:	0001                	nop
    2936:	0001                	nop
    2938:	0001                	nop
    293a:	0001                	nop
    293c:	0001                	nop
    293e:	0001                	nop
    2940:	0001                	nop
    2942:	0001                	nop
    2944:	0001                	nop
    2946:	0001                	nop
    2948:	0001                	nop
    294a:	0001                	nop
    294c:	0001                	nop
    294e:	0001                	nop
    2950:	0001                	nop
    2952:	0001                	nop
    2954:	0001                	nop
    2956:	0141                	addi	sp,sp,16
    2958:	8082                	ret
	...

0000295c <strnlen>:
    295c:	00b505b3          	add	a1,a0,a1
    2960:	00050793          	mv	a5,a0
    2964:	00b78663          	beq	a5,a1,2970 <strnlen+0x14>
    2968:	0007c703          	lbu	a4,0(a5)
    296c:	00071663          	bnez	a4,2978 <strnlen+0x1c>
    2970:	40a78533          	sub	a0,a5,a0
    2974:	00008067          	ret
    2978:	00178793          	addi	a5,a5,1
    297c:	fe9ff06f          	j	2964 <strnlen+0x8>

00002980 <__moddi3>:
    2980:	00000893          	li	a7,0
    2984:	0005dc63          	bgez	a1,299c <__moddi3+0x1c>
    2988:	40a00533          	neg	a0,a0
    298c:	00a037b3          	snez	a5,a0
    2990:	40b005b3          	neg	a1,a1
    2994:	40f585b3          	sub	a1,a1,a5
    2998:	fff00893          	li	a7,-1
    299c:	0006da63          	bgez	a3,29b0 <__moddi3+0x30>
    29a0:	40c00633          	neg	a2,a2
    29a4:	00c037b3          	snez	a5,a2
    29a8:	40d006b3          	neg	a3,a3
    29ac:	40f686b3          	sub	a3,a3,a5
    29b0:	00060813          	mv	a6,a2
    29b4:	00068313          	mv	t1,a3
    29b8:	00050793          	mv	a5,a0
    29bc:	00058713          	mv	a4,a1
    29c0:	24069863          	bnez	a3,2c10 <__moddi3+0x290>
    29c4:	000036b7          	lui	a3,0x3
    29c8:	77868693          	addi	a3,a3,1912 # 3778 <__clz_tab>
    29cc:	0ec5f863          	bleu	a2,a1,2abc <__moddi3+0x13c>
    29d0:	00010e37          	lui	t3,0x10
    29d4:	0dc67a63          	bleu	t3,a2,2aa8 <__moddi3+0x128>
    29d8:	0ff00e13          	li	t3,255
    29dc:	00ce7463          	bleu	a2,t3,29e4 <__moddi3+0x64>
    29e0:	00800313          	li	t1,8
    29e4:	00665e33          	srl	t3,a2,t1
    29e8:	01c686b3          	add	a3,a3,t3
    29ec:	0006ce03          	lbu	t3,0(a3)
    29f0:	006e0e33          	add	t3,t3,t1
    29f4:	02000313          	li	t1,32
    29f8:	41c30333          	sub	t1,t1,t3
    29fc:	00030c63          	beqz	t1,2a14 <__moddi3+0x94>
    2a00:	006595b3          	sll	a1,a1,t1
    2a04:	01c55e33          	srl	t3,a0,t3
    2a08:	00661833          	sll	a6,a2,t1
    2a0c:	00be6733          	or	a4,t3,a1
    2a10:	006517b3          	sll	a5,a0,t1
    2a14:	01085593          	srli	a1,a6,0x10
    2a18:	02b77633          	remu	a2,a4,a1
    2a1c:	01081513          	slli	a0,a6,0x10
    2a20:	01055513          	srli	a0,a0,0x10
    2a24:	0107d693          	srli	a3,a5,0x10
    2a28:	02b75733          	divu	a4,a4,a1
    2a2c:	01061613          	slli	a2,a2,0x10
    2a30:	00d666b3          	or	a3,a2,a3
    2a34:	02e50733          	mul	a4,a0,a4
    2a38:	00e6fa63          	bleu	a4,a3,2a4c <__moddi3+0xcc>
    2a3c:	010686b3          	add	a3,a3,a6
    2a40:	0106e663          	bltu	a3,a6,2a4c <__moddi3+0xcc>
    2a44:	00e6f463          	bleu	a4,a3,2a4c <__moddi3+0xcc>
    2a48:	010686b3          	add	a3,a3,a6
    2a4c:	40e686b3          	sub	a3,a3,a4
    2a50:	02b6f733          	remu	a4,a3,a1
    2a54:	01079793          	slli	a5,a5,0x10
    2a58:	0107d793          	srli	a5,a5,0x10
    2a5c:	02b6d6b3          	divu	a3,a3,a1
    2a60:	02d506b3          	mul	a3,a0,a3
    2a64:	01071513          	slli	a0,a4,0x10
    2a68:	00f567b3          	or	a5,a0,a5
    2a6c:	00d7fa63          	bleu	a3,a5,2a80 <__moddi3+0x100>
    2a70:	010787b3          	add	a5,a5,a6
    2a74:	0107e663          	bltu	a5,a6,2a80 <__moddi3+0x100>
    2a78:	00d7f463          	bleu	a3,a5,2a80 <__moddi3+0x100>
    2a7c:	010787b3          	add	a5,a5,a6
    2a80:	40d787b3          	sub	a5,a5,a3
    2a84:	0067d533          	srl	a0,a5,t1
    2a88:	00000593          	li	a1,0
    2a8c:	00088c63          	beqz	a7,2aa4 <__moddi3+0x124>
    2a90:	40a007b3          	neg	a5,a0
    2a94:	00f03733          	snez	a4,a5
    2a98:	40b005b3          	neg	a1,a1
    2a9c:	00078513          	mv	a0,a5
    2aa0:	40e585b3          	sub	a1,a1,a4
    2aa4:	00008067          	ret
    2aa8:	01000e37          	lui	t3,0x1000
    2aac:	01000313          	li	t1,16
    2ab0:	f3c66ae3          	bltu	a2,t3,29e4 <__moddi3+0x64>
    2ab4:	01800313          	li	t1,24
    2ab8:	f2dff06f          	j	29e4 <__moddi3+0x64>
    2abc:	00061663          	bnez	a2,2ac8 <__moddi3+0x148>
    2ac0:	00100813          	li	a6,1
    2ac4:	02685833          	divu	a6,a6,t1
    2ac8:	00010737          	lui	a4,0x10
    2acc:	0ae87263          	bleu	a4,a6,2b70 <__moddi3+0x1f0>
    2ad0:	0ff00713          	li	a4,255
    2ad4:	01077463          	bleu	a6,a4,2adc <__moddi3+0x15c>
    2ad8:	00800313          	li	t1,8
    2adc:	00685733          	srl	a4,a6,t1
    2ae0:	00e686b3          	add	a3,a3,a4
    2ae4:	0006ce03          	lbu	t3,0(a3)
    2ae8:	006e0e33          	add	t3,t3,t1
    2aec:	02000313          	li	t1,32
    2af0:	41c30333          	sub	t1,t1,t3
    2af4:	08031863          	bnez	t1,2b84 <__moddi3+0x204>
    2af8:	410585b3          	sub	a1,a1,a6
    2afc:	01085693          	srli	a3,a6,0x10
    2b00:	01081513          	slli	a0,a6,0x10
    2b04:	01055513          	srli	a0,a0,0x10
    2b08:	0107d613          	srli	a2,a5,0x10
    2b0c:	02d5f733          	remu	a4,a1,a3
    2b10:	02d5d5b3          	divu	a1,a1,a3
    2b14:	01071713          	slli	a4,a4,0x10
    2b18:	00c76733          	or	a4,a4,a2
    2b1c:	02b505b3          	mul	a1,a0,a1
    2b20:	00b77a63          	bleu	a1,a4,2b34 <__moddi3+0x1b4>
    2b24:	01070733          	add	a4,a4,a6
    2b28:	01076663          	bltu	a4,a6,2b34 <__moddi3+0x1b4>
    2b2c:	00b77463          	bleu	a1,a4,2b34 <__moddi3+0x1b4>
    2b30:	01070733          	add	a4,a4,a6
    2b34:	40b705b3          	sub	a1,a4,a1
    2b38:	02d5f733          	remu	a4,a1,a3
    2b3c:	01079793          	slli	a5,a5,0x10
    2b40:	0107d793          	srli	a5,a5,0x10
    2b44:	02d5d5b3          	divu	a1,a1,a3
    2b48:	02b505b3          	mul	a1,a0,a1
    2b4c:	01071513          	slli	a0,a4,0x10
    2b50:	00f567b3          	or	a5,a0,a5
    2b54:	00b7fa63          	bleu	a1,a5,2b68 <__moddi3+0x1e8>
    2b58:	010787b3          	add	a5,a5,a6
    2b5c:	0107e663          	bltu	a5,a6,2b68 <__moddi3+0x1e8>
    2b60:	00b7f463          	bleu	a1,a5,2b68 <__moddi3+0x1e8>
    2b64:	010787b3          	add	a5,a5,a6
    2b68:	40b787b3          	sub	a5,a5,a1
    2b6c:	f19ff06f          	j	2a84 <__moddi3+0x104>
    2b70:	01000737          	lui	a4,0x1000
    2b74:	01000313          	li	t1,16
    2b78:	f6e862e3          	bltu	a6,a4,2adc <__moddi3+0x15c>
    2b7c:	01800313          	li	t1,24
    2b80:	f5dff06f          	j	2adc <__moddi3+0x15c>
    2b84:	00681833          	sll	a6,a6,t1
    2b88:	01c5deb3          	srl	t4,a1,t3
    2b8c:	006517b3          	sll	a5,a0,t1
    2b90:	01c55e33          	srl	t3,a0,t3
    2b94:	01085513          	srli	a0,a6,0x10
    2b98:	02aed6b3          	divu	a3,t4,a0
    2b9c:	006595b3          	sll	a1,a1,t1
    2ba0:	00be6e33          	or	t3,t3,a1
    2ba4:	01081593          	slli	a1,a6,0x10
    2ba8:	0105d593          	srli	a1,a1,0x10
    2bac:	010e5613          	srli	a2,t3,0x10
    2bb0:	02aef733          	remu	a4,t4,a0
    2bb4:	02d586b3          	mul	a3,a1,a3
    2bb8:	01071713          	slli	a4,a4,0x10
    2bbc:	00c76733          	or	a4,a4,a2
    2bc0:	00d77a63          	bleu	a3,a4,2bd4 <__moddi3+0x254>
    2bc4:	01070733          	add	a4,a4,a6
    2bc8:	01076663          	bltu	a4,a6,2bd4 <__moddi3+0x254>
    2bcc:	00d77463          	bleu	a3,a4,2bd4 <__moddi3+0x254>
    2bd0:	01070733          	add	a4,a4,a6
    2bd4:	40d70633          	sub	a2,a4,a3
    2bd8:	02a67733          	remu	a4,a2,a0
    2bdc:	010e1e13          	slli	t3,t3,0x10
    2be0:	010e5e13          	srli	t3,t3,0x10
    2be4:	02a65633          	divu	a2,a2,a0
    2be8:	01071713          	slli	a4,a4,0x10
    2bec:	02c58633          	mul	a2,a1,a2
    2bf0:	01c765b3          	or	a1,a4,t3
    2bf4:	00c5fa63          	bleu	a2,a1,2c08 <__moddi3+0x288>
    2bf8:	010585b3          	add	a1,a1,a6
    2bfc:	0105e663          	bltu	a1,a6,2c08 <__moddi3+0x288>
    2c00:	00c5f463          	bleu	a2,a1,2c08 <__moddi3+0x288>
    2c04:	010585b3          	add	a1,a1,a6
    2c08:	40c585b3          	sub	a1,a1,a2
    2c0c:	ef1ff06f          	j	2afc <__moddi3+0x17c>
    2c10:	e6d5eee3          	bltu	a1,a3,2a8c <__moddi3+0x10c>
    2c14:	00010837          	lui	a6,0x10
    2c18:	0506fc63          	bleu	a6,a3,2c70 <__moddi3+0x2f0>
    2c1c:	0ff00e93          	li	t4,255
    2c20:	00deb833          	sltu	a6,t4,a3
    2c24:	00381813          	slli	a6,a6,0x3
    2c28:	00003e37          	lui	t3,0x3
    2c2c:	778e0e13          	addi	t3,t3,1912 # 3778 <__clz_tab>
    2c30:	0106d333          	srl	t1,a3,a6
    2c34:	01c30333          	add	t1,t1,t3
    2c38:	00034e83          	lbu	t4,0(t1)
    2c3c:	02000e13          	li	t3,32
    2c40:	010e8eb3          	add	t4,t4,a6
    2c44:	41de0e33          	sub	t3,t3,t4
    2c48:	020e1e63          	bnez	t3,2c84 <__moddi3+0x304>
    2c4c:	00b6e463          	bltu	a3,a1,2c54 <__moddi3+0x2d4>
    2c50:	00c56a63          	bltu	a0,a2,2c64 <__moddi3+0x2e4>
    2c54:	40c507b3          	sub	a5,a0,a2
    2c58:	40d586b3          	sub	a3,a1,a3
    2c5c:	00f53533          	sltu	a0,a0,a5
    2c60:	40a68733          	sub	a4,a3,a0
    2c64:	00078513          	mv	a0,a5
    2c68:	00070593          	mv	a1,a4
    2c6c:	e21ff06f          	j	2a8c <__moddi3+0x10c>
    2c70:	01000337          	lui	t1,0x1000
    2c74:	01000813          	li	a6,16
    2c78:	fa66e8e3          	bltu	a3,t1,2c28 <__moddi3+0x2a8>
    2c7c:	01800813          	li	a6,24
    2c80:	fa9ff06f          	j	2c28 <__moddi3+0x2a8>
    2c84:	01d65733          	srl	a4,a2,t4
    2c88:	01c696b3          	sll	a3,a3,t3
    2c8c:	00d766b3          	or	a3,a4,a3
    2c90:	01d5d7b3          	srl	a5,a1,t4
    2c94:	01d55733          	srl	a4,a0,t4
    2c98:	01c595b3          	sll	a1,a1,t3
    2c9c:	00b76733          	or	a4,a4,a1
    2ca0:	0106d593          	srli	a1,a3,0x10
    2ca4:	02b7f333          	remu	t1,a5,a1
    2ca8:	01069f13          	slli	t5,a3,0x10
    2cac:	010f5f13          	srli	t5,t5,0x10
    2cb0:	01075813          	srli	a6,a4,0x10
    2cb4:	01c61633          	sll	a2,a2,t3
    2cb8:	01c51533          	sll	a0,a0,t3
    2cbc:	02b7d7b3          	divu	a5,a5,a1
    2cc0:	01031313          	slli	t1,t1,0x10
    2cc4:	01036833          	or	a6,t1,a6
    2cc8:	02ff0fb3          	mul	t6,t5,a5
    2ccc:	00078313          	mv	t1,a5
    2cd0:	01f87e63          	bleu	t6,a6,2cec <__moddi3+0x36c>
    2cd4:	00d80833          	add	a6,a6,a3
    2cd8:	fff78313          	addi	t1,a5,-1
    2cdc:	00d86863          	bltu	a6,a3,2cec <__moddi3+0x36c>
    2ce0:	01f87663          	bleu	t6,a6,2cec <__moddi3+0x36c>
    2ce4:	ffe78313          	addi	t1,a5,-2
    2ce8:	00d80833          	add	a6,a6,a3
    2cec:	41f80833          	sub	a6,a6,t6
    2cf0:	02b87fb3          	remu	t6,a6,a1
    2cf4:	02b85833          	divu	a6,a6,a1
    2cf8:	010f9f93          	slli	t6,t6,0x10
    2cfc:	030f05b3          	mul	a1,t5,a6
    2d00:	01071f13          	slli	t5,a4,0x10
    2d04:	010f5f13          	srli	t5,t5,0x10
    2d08:	01efef33          	or	t5,t6,t5
    2d0c:	00080713          	mv	a4,a6
    2d10:	00bf7e63          	bleu	a1,t5,2d2c <__moddi3+0x3ac>
    2d14:	00df0f33          	add	t5,t5,a3
    2d18:	fff80713          	addi	a4,a6,-1 # ffff <_gp+0xbf5f>
    2d1c:	00df6863          	bltu	t5,a3,2d2c <__moddi3+0x3ac>
    2d20:	00bf7663          	bleu	a1,t5,2d2c <__moddi3+0x3ac>
    2d24:	ffe80713          	addi	a4,a6,-2
    2d28:	00df0f33          	add	t5,t5,a3
    2d2c:	01031313          	slli	t1,t1,0x10
    2d30:	00010fb7          	lui	t6,0x10
    2d34:	00e36333          	or	t1,t1,a4
    2d38:	ffff8793          	addi	a5,t6,-1 # ffff <_gp+0xbf5f>
    2d3c:	01065813          	srli	a6,a2,0x10
    2d40:	40bf0f33          	sub	t5,t5,a1
    2d44:	00f375b3          	and	a1,t1,a5
    2d48:	01035313          	srli	t1,t1,0x10
    2d4c:	00f677b3          	and	a5,a2,a5
    2d50:	02f58733          	mul	a4,a1,a5
    2d54:	02f307b3          	mul	a5,t1,a5
    2d58:	030585b3          	mul	a1,a1,a6
    2d5c:	03030333          	mul	t1,t1,a6
    2d60:	00f585b3          	add	a1,a1,a5
    2d64:	01075813          	srli	a6,a4,0x10
    2d68:	00b80833          	add	a6,a6,a1
    2d6c:	00f87463          	bleu	a5,a6,2d74 <__moddi3+0x3f4>
    2d70:	01f30333          	add	t1,t1,t6
    2d74:	000107b7          	lui	a5,0x10
    2d78:	fff78793          	addi	a5,a5,-1 # ffff <_gp+0xbf5f>
    2d7c:	01085593          	srli	a1,a6,0x10
    2d80:	00f87833          	and	a6,a6,a5
    2d84:	01081813          	slli	a6,a6,0x10
    2d88:	00f77733          	and	a4,a4,a5
    2d8c:	006585b3          	add	a1,a1,t1
    2d90:	00e80733          	add	a4,a6,a4
    2d94:	00bf6663          	bltu	t5,a1,2da0 <__moddi3+0x420>
    2d98:	00bf1e63          	bne	t5,a1,2db4 <__moddi3+0x434>
    2d9c:	00e57c63          	bleu	a4,a0,2db4 <__moddi3+0x434>
    2da0:	40c70633          	sub	a2,a4,a2
    2da4:	00c73733          	sltu	a4,a4,a2
    2da8:	40d585b3          	sub	a1,a1,a3
    2dac:	40e585b3          	sub	a1,a1,a4
    2db0:	00060713          	mv	a4,a2
    2db4:	40e50733          	sub	a4,a0,a4
    2db8:	00e53533          	sltu	a0,a0,a4
    2dbc:	40bf05b3          	sub	a1,t5,a1
    2dc0:	40a585b3          	sub	a1,a1,a0
    2dc4:	01d597b3          	sll	a5,a1,t4
    2dc8:	01c75733          	srl	a4,a4,t3
    2dcc:	00e7e533          	or	a0,a5,a4
    2dd0:	01c5d5b3          	srl	a1,a1,t3
    2dd4:	cb9ff06f          	j	2a8c <__moddi3+0x10c>

00002dd8 <__udivdi3>:
    2dd8:	00058793          	mv	a5,a1
    2ddc:	00060813          	mv	a6,a2
    2de0:	00068893          	mv	a7,a3
    2de4:	00050313          	mv	t1,a0
    2de8:	28069663          	bnez	a3,3074 <__udivdi3+0x29c>
    2dec:	00003737          	lui	a4,0x3
    2df0:	77870713          	addi	a4,a4,1912 # 3778 <__clz_tab>
    2df4:	0ec5f663          	bleu	a2,a1,2ee0 <__udivdi3+0x108>
    2df8:	000106b7          	lui	a3,0x10
    2dfc:	0cd67863          	bleu	a3,a2,2ecc <__udivdi3+0xf4>
    2e00:	0ff00693          	li	a3,255
    2e04:	00c6b6b3          	sltu	a3,a3,a2
    2e08:	00369693          	slli	a3,a3,0x3
    2e0c:	00d658b3          	srl	a7,a2,a3
    2e10:	01170733          	add	a4,a4,a7
    2e14:	00074703          	lbu	a4,0(a4)
    2e18:	00d706b3          	add	a3,a4,a3
    2e1c:	02000713          	li	a4,32
    2e20:	40d70733          	sub	a4,a4,a3
    2e24:	00070c63          	beqz	a4,2e3c <__udivdi3+0x64>
    2e28:	00e797b3          	sll	a5,a5,a4
    2e2c:	00d556b3          	srl	a3,a0,a3
    2e30:	00e61833          	sll	a6,a2,a4
    2e34:	00f6e5b3          	or	a1,a3,a5
    2e38:	00e51333          	sll	t1,a0,a4
    2e3c:	01085513          	srli	a0,a6,0x10
    2e40:	02a5d7b3          	divu	a5,a1,a0
    2e44:	01081613          	slli	a2,a6,0x10
    2e48:	01065613          	srli	a2,a2,0x10
    2e4c:	01035693          	srli	a3,t1,0x10
    2e50:	02a5f733          	remu	a4,a1,a0
    2e54:	02f605b3          	mul	a1,a2,a5
    2e58:	01071713          	slli	a4,a4,0x10
    2e5c:	00d766b3          	or	a3,a4,a3
    2e60:	00078713          	mv	a4,a5
    2e64:	00b6fe63          	bleu	a1,a3,2e80 <__udivdi3+0xa8>
    2e68:	010686b3          	add	a3,a3,a6
    2e6c:	fff78713          	addi	a4,a5,-1
    2e70:	0106e863          	bltu	a3,a6,2e80 <__udivdi3+0xa8>
    2e74:	00b6f663          	bleu	a1,a3,2e80 <__udivdi3+0xa8>
    2e78:	ffe78713          	addi	a4,a5,-2
    2e7c:	010686b3          	add	a3,a3,a6
    2e80:	40b686b3          	sub	a3,a3,a1
    2e84:	02a6f7b3          	remu	a5,a3,a0
    2e88:	01031313          	slli	t1,t1,0x10
    2e8c:	01035313          	srli	t1,t1,0x10
    2e90:	02a6d6b3          	divu	a3,a3,a0
    2e94:	01079793          	slli	a5,a5,0x10
    2e98:	0067e333          	or	t1,a5,t1
    2e9c:	02d605b3          	mul	a1,a2,a3
    2ea0:	00068513          	mv	a0,a3
    2ea4:	00b37c63          	bleu	a1,t1,2ebc <__udivdi3+0xe4>
    2ea8:	00680333          	add	t1,a6,t1
    2eac:	fff68513          	addi	a0,a3,-1 # ffff <_gp+0xbf5f>
    2eb0:	01036663          	bltu	t1,a6,2ebc <__udivdi3+0xe4>
    2eb4:	00b37463          	bleu	a1,t1,2ebc <__udivdi3+0xe4>
    2eb8:	ffe68513          	addi	a0,a3,-2
    2ebc:	01071713          	slli	a4,a4,0x10
    2ec0:	00a76733          	or	a4,a4,a0
    2ec4:	00000593          	li	a1,0
    2ec8:	0e40006f          	j	2fac <__udivdi3+0x1d4>
    2ecc:	010008b7          	lui	a7,0x1000
    2ed0:	01000693          	li	a3,16
    2ed4:	f3166ce3          	bltu	a2,a7,2e0c <__udivdi3+0x34>
    2ed8:	01800693          	li	a3,24
    2edc:	f31ff06f          	j	2e0c <__udivdi3+0x34>
    2ee0:	00061663          	bnez	a2,2eec <__udivdi3+0x114>
    2ee4:	00100693          	li	a3,1
    2ee8:	02c6d833          	divu	a6,a3,a2
    2eec:	000106b7          	lui	a3,0x10
    2ef0:	0cd87263          	bleu	a3,a6,2fb4 <__udivdi3+0x1dc>
    2ef4:	0ff00693          	li	a3,255
    2ef8:	0106f463          	bleu	a6,a3,2f00 <__udivdi3+0x128>
    2efc:	00800893          	li	a7,8
    2f00:	011856b3          	srl	a3,a6,a7
    2f04:	00d70733          	add	a4,a4,a3
    2f08:	00074683          	lbu	a3,0(a4)
    2f0c:	02000713          	li	a4,32
    2f10:	011686b3          	add	a3,a3,a7
    2f14:	40d70733          	sub	a4,a4,a3
    2f18:	0a071863          	bnez	a4,2fc8 <__udivdi3+0x1f0>
    2f1c:	410787b3          	sub	a5,a5,a6
    2f20:	00100593          	li	a1,1
    2f24:	01085613          	srli	a2,a6,0x10
    2f28:	01081893          	slli	a7,a6,0x10
    2f2c:	0108d893          	srli	a7,a7,0x10
    2f30:	01035693          	srli	a3,t1,0x10
    2f34:	02c7f733          	remu	a4,a5,a2
    2f38:	02c7d7b3          	divu	a5,a5,a2
    2f3c:	01071713          	slli	a4,a4,0x10
    2f40:	00d766b3          	or	a3,a4,a3
    2f44:	02f88533          	mul	a0,a7,a5
    2f48:	00078713          	mv	a4,a5
    2f4c:	00a6fe63          	bleu	a0,a3,2f68 <__udivdi3+0x190>
    2f50:	010686b3          	add	a3,a3,a6
    2f54:	fff78713          	addi	a4,a5,-1
    2f58:	0106e863          	bltu	a3,a6,2f68 <__udivdi3+0x190>
    2f5c:	00a6f663          	bleu	a0,a3,2f68 <__udivdi3+0x190>
    2f60:	ffe78713          	addi	a4,a5,-2
    2f64:	010686b3          	add	a3,a3,a6
    2f68:	40a686b3          	sub	a3,a3,a0
    2f6c:	02c6f7b3          	remu	a5,a3,a2
    2f70:	01031313          	slli	t1,t1,0x10
    2f74:	01035313          	srli	t1,t1,0x10
    2f78:	02c6d6b3          	divu	a3,a3,a2
    2f7c:	01079793          	slli	a5,a5,0x10
    2f80:	0067e333          	or	t1,a5,t1
    2f84:	02d888b3          	mul	a7,a7,a3
    2f88:	00068513          	mv	a0,a3
    2f8c:	01137c63          	bleu	a7,t1,2fa4 <__udivdi3+0x1cc>
    2f90:	00680333          	add	t1,a6,t1
    2f94:	fff68513          	addi	a0,a3,-1 # ffff <_gp+0xbf5f>
    2f98:	01036663          	bltu	t1,a6,2fa4 <__udivdi3+0x1cc>
    2f9c:	01137463          	bleu	a7,t1,2fa4 <__udivdi3+0x1cc>
    2fa0:	ffe68513          	addi	a0,a3,-2
    2fa4:	01071713          	slli	a4,a4,0x10
    2fa8:	00a76733          	or	a4,a4,a0
    2fac:	00070513          	mv	a0,a4
    2fb0:	00008067          	ret
    2fb4:	010006b7          	lui	a3,0x1000
    2fb8:	01000893          	li	a7,16
    2fbc:	f4d862e3          	bltu	a6,a3,2f00 <__udivdi3+0x128>
    2fc0:	01800893          	li	a7,24
    2fc4:	f3dff06f          	j	2f00 <__udivdi3+0x128>
    2fc8:	00e81833          	sll	a6,a6,a4
    2fcc:	00d7d5b3          	srl	a1,a5,a3
    2fd0:	00e51333          	sll	t1,a0,a4
    2fd4:	00d556b3          	srl	a3,a0,a3
    2fd8:	01085513          	srli	a0,a6,0x10
    2fdc:	00e797b3          	sll	a5,a5,a4
    2fe0:	02a5f733          	remu	a4,a1,a0
    2fe4:	00f6e8b3          	or	a7,a3,a5
    2fe8:	01081793          	slli	a5,a6,0x10
    2fec:	0107d793          	srli	a5,a5,0x10
    2ff0:	0108d613          	srli	a2,a7,0x10
    2ff4:	02a5d5b3          	divu	a1,a1,a0
    2ff8:	01071713          	slli	a4,a4,0x10
    2ffc:	00c76733          	or	a4,a4,a2
    3000:	02b786b3          	mul	a3,a5,a1
    3004:	00058613          	mv	a2,a1
    3008:	00d77e63          	bleu	a3,a4,3024 <__udivdi3+0x24c>
    300c:	01070733          	add	a4,a4,a6
    3010:	fff58613          	addi	a2,a1,-1
    3014:	01076863          	bltu	a4,a6,3024 <__udivdi3+0x24c>
    3018:	00d77663          	bleu	a3,a4,3024 <__udivdi3+0x24c>
    301c:	ffe58613          	addi	a2,a1,-2
    3020:	01070733          	add	a4,a4,a6
    3024:	40d706b3          	sub	a3,a4,a3
    3028:	02a6f733          	remu	a4,a3,a0
    302c:	01089893          	slli	a7,a7,0x10
    3030:	0108d893          	srli	a7,a7,0x10
    3034:	02a6d6b3          	divu	a3,a3,a0
    3038:	01071713          	slli	a4,a4,0x10
    303c:	02d785b3          	mul	a1,a5,a3
    3040:	011767b3          	or	a5,a4,a7
    3044:	00068713          	mv	a4,a3
    3048:	00b7fe63          	bleu	a1,a5,3064 <__udivdi3+0x28c>
    304c:	010787b3          	add	a5,a5,a6
    3050:	fff68713          	addi	a4,a3,-1 # ffffff <__C_STACK_TOP__+0xfeffff>
    3054:	0107e863          	bltu	a5,a6,3064 <__udivdi3+0x28c>
    3058:	00b7f663          	bleu	a1,a5,3064 <__udivdi3+0x28c>
    305c:	ffe68713          	addi	a4,a3,-2
    3060:	010787b3          	add	a5,a5,a6
    3064:	40b787b3          	sub	a5,a5,a1
    3068:	01061593          	slli	a1,a2,0x10
    306c:	00e5e5b3          	or	a1,a1,a4
    3070:	eb5ff06f          	j	2f24 <__udivdi3+0x14c>
    3074:	18d5e663          	bltu	a1,a3,3200 <__udivdi3+0x428>
    3078:	00010737          	lui	a4,0x10
    307c:	04e6f463          	bleu	a4,a3,30c4 <__udivdi3+0x2ec>
    3080:	0ff00813          	li	a6,255
    3084:	00d83733          	sltu	a4,a6,a3
    3088:	00371713          	slli	a4,a4,0x3
    308c:	00003837          	lui	a6,0x3
    3090:	77880813          	addi	a6,a6,1912 # 3778 <__clz_tab>
    3094:	00e6d5b3          	srl	a1,a3,a4
    3098:	010585b3          	add	a1,a1,a6
    309c:	0005c803          	lbu	a6,0(a1)
    30a0:	02000593          	li	a1,32
    30a4:	00e80833          	add	a6,a6,a4
    30a8:	410585b3          	sub	a1,a1,a6
    30ac:	02059663          	bnez	a1,30d8 <__udivdi3+0x300>
    30b0:	00100713          	li	a4,1
    30b4:	eef6ece3          	bltu	a3,a5,2fac <__udivdi3+0x1d4>
    30b8:	00c53533          	sltu	a0,a0,a2
    30bc:	00154713          	xori	a4,a0,1
    30c0:	eedff06f          	j	2fac <__udivdi3+0x1d4>
    30c4:	010005b7          	lui	a1,0x1000
    30c8:	01000713          	li	a4,16
    30cc:	fcb6e0e3          	bltu	a3,a1,308c <__udivdi3+0x2b4>
    30d0:	01800713          	li	a4,24
    30d4:	fb9ff06f          	j	308c <__udivdi3+0x2b4>
    30d8:	01065733          	srl	a4,a2,a6
    30dc:	00b696b3          	sll	a3,a3,a1
    30e0:	00d766b3          	or	a3,a4,a3
    30e4:	0106de93          	srli	t4,a3,0x10
    30e8:	0107d733          	srl	a4,a5,a6
    30ec:	03d778b3          	remu	a7,a4,t4
    30f0:	00b797b3          	sll	a5,a5,a1
    30f4:	01055833          	srl	a6,a0,a6
    30f8:	00f86333          	or	t1,a6,a5
    30fc:	01069793          	slli	a5,a3,0x10
    3100:	0107d793          	srli	a5,a5,0x10
    3104:	01035813          	srli	a6,t1,0x10
    3108:	00b61633          	sll	a2,a2,a1
    310c:	03d75733          	divu	a4,a4,t4
    3110:	01089893          	slli	a7,a7,0x10
    3114:	0108e833          	or	a6,a7,a6
    3118:	02e78f33          	mul	t5,a5,a4
    311c:	00070e13          	mv	t3,a4
    3120:	01e87e63          	bleu	t5,a6,313c <__udivdi3+0x364>
    3124:	00d80833          	add	a6,a6,a3
    3128:	fff70e13          	addi	t3,a4,-1 # ffff <_gp+0xbf5f>
    312c:	00d86863          	bltu	a6,a3,313c <__udivdi3+0x364>
    3130:	01e87663          	bleu	t5,a6,313c <__udivdi3+0x364>
    3134:	ffe70e13          	addi	t3,a4,-2
    3138:	00d80833          	add	a6,a6,a3
    313c:	41e80833          	sub	a6,a6,t5
    3140:	03d878b3          	remu	a7,a6,t4
    3144:	03d85833          	divu	a6,a6,t4
    3148:	01089893          	slli	a7,a7,0x10
    314c:	03078eb3          	mul	t4,a5,a6
    3150:	01031793          	slli	a5,t1,0x10
    3154:	0107d793          	srli	a5,a5,0x10
    3158:	00f8e7b3          	or	a5,a7,a5
    315c:	00080713          	mv	a4,a6
    3160:	01d7fe63          	bleu	t4,a5,317c <__udivdi3+0x3a4>
    3164:	00d787b3          	add	a5,a5,a3
    3168:	fff80713          	addi	a4,a6,-1
    316c:	00d7e863          	bltu	a5,a3,317c <__udivdi3+0x3a4>
    3170:	01d7f663          	bleu	t4,a5,317c <__udivdi3+0x3a4>
    3174:	ffe80713          	addi	a4,a6,-2
    3178:	00d787b3          	add	a5,a5,a3
    317c:	010e1e13          	slli	t3,t3,0x10
    3180:	41d787b3          	sub	a5,a5,t4
    3184:	00010eb7          	lui	t4,0x10
    3188:	00ee6733          	or	a4,t3,a4
    318c:	fffe8813          	addi	a6,t4,-1 # ffff <_gp+0xbf5f>
    3190:	01077333          	and	t1,a4,a6
    3194:	01075893          	srli	a7,a4,0x10
    3198:	01067833          	and	a6,a2,a6
    319c:	01065613          	srli	a2,a2,0x10
    31a0:	03030e33          	mul	t3,t1,a6
    31a4:	03088833          	mul	a6,a7,a6
    31a8:	010e5693          	srli	a3,t3,0x10
    31ac:	02c30333          	mul	t1,t1,a2
    31b0:	01030333          	add	t1,t1,a6
    31b4:	006686b3          	add	a3,a3,t1
    31b8:	02c888b3          	mul	a7,a7,a2
    31bc:	0106f463          	bleu	a6,a3,31c4 <__udivdi3+0x3ec>
    31c0:	01d888b3          	add	a7,a7,t4
    31c4:	0106d613          	srli	a2,a3,0x10
    31c8:	011608b3          	add	a7,a2,a7
    31cc:	0317e663          	bltu	a5,a7,31f8 <__udivdi3+0x420>
    31d0:	cf179ae3          	bne	a5,a7,2ec4 <__udivdi3+0xec>
    31d4:	000107b7          	lui	a5,0x10
    31d8:	fff78793          	addi	a5,a5,-1 # ffff <_gp+0xbf5f>
    31dc:	00f6f6b3          	and	a3,a3,a5
    31e0:	01069693          	slli	a3,a3,0x10
    31e4:	00fe7e33          	and	t3,t3,a5
    31e8:	00b51533          	sll	a0,a0,a1
    31ec:	01c686b3          	add	a3,a3,t3
    31f0:	00000593          	li	a1,0
    31f4:	dad57ce3          	bleu	a3,a0,2fac <__udivdi3+0x1d4>
    31f8:	fff70713          	addi	a4,a4,-1
    31fc:	cc9ff06f          	j	2ec4 <__udivdi3+0xec>
    3200:	00000593          	li	a1,0
    3204:	00000713          	li	a4,0
    3208:	da5ff06f          	j	2fac <__udivdi3+0x1d4>

0000320c <__umoddi3>:
    320c:	00060893          	mv	a7,a2
    3210:	00068713          	mv	a4,a3
    3214:	00050793          	mv	a5,a0
    3218:	00058813          	mv	a6,a1
    321c:	22069c63          	bnez	a3,3454 <__umoddi3+0x248>
    3220:	000036b7          	lui	a3,0x3
    3224:	77868693          	addi	a3,a3,1912 # 3778 <__clz_tab>
    3228:	0cc5fc63          	bleu	a2,a1,3300 <__umoddi3+0xf4>
    322c:	00010337          	lui	t1,0x10
    3230:	0a667e63          	bleu	t1,a2,32ec <__umoddi3+0xe0>
    3234:	0ff00313          	li	t1,255
    3238:	00c37463          	bleu	a2,t1,3240 <__umoddi3+0x34>
    323c:	00800713          	li	a4,8
    3240:	00e65333          	srl	t1,a2,a4
    3244:	006686b3          	add	a3,a3,t1
    3248:	0006ce03          	lbu	t3,0(a3)
    324c:	02000313          	li	t1,32
    3250:	00ee0e33          	add	t3,t3,a4
    3254:	41c30333          	sub	t1,t1,t3
    3258:	00030c63          	beqz	t1,3270 <__umoddi3+0x64>
    325c:	006595b3          	sll	a1,a1,t1
    3260:	01c55e33          	srl	t3,a0,t3
    3264:	006618b3          	sll	a7,a2,t1
    3268:	00be6833          	or	a6,t3,a1
    326c:	006517b3          	sll	a5,a0,t1
    3270:	0108d613          	srli	a2,a7,0x10
    3274:	02c87733          	remu	a4,a6,a2
    3278:	01089513          	slli	a0,a7,0x10
    327c:	01055513          	srli	a0,a0,0x10
    3280:	0107d693          	srli	a3,a5,0x10
    3284:	02c85833          	divu	a6,a6,a2
    3288:	01071713          	slli	a4,a4,0x10
    328c:	00d766b3          	or	a3,a4,a3
    3290:	03050833          	mul	a6,a0,a6
    3294:	0106fa63          	bleu	a6,a3,32a8 <__umoddi3+0x9c>
    3298:	011686b3          	add	a3,a3,a7
    329c:	0116e663          	bltu	a3,a7,32a8 <__umoddi3+0x9c>
    32a0:	0106f463          	bleu	a6,a3,32a8 <__umoddi3+0x9c>
    32a4:	011686b3          	add	a3,a3,a7
    32a8:	410686b3          	sub	a3,a3,a6
    32ac:	02c6f733          	remu	a4,a3,a2
    32b0:	01079793          	slli	a5,a5,0x10
    32b4:	0107d793          	srli	a5,a5,0x10
    32b8:	02c6d6b3          	divu	a3,a3,a2
    32bc:	02d506b3          	mul	a3,a0,a3
    32c0:	01071513          	slli	a0,a4,0x10
    32c4:	00f567b3          	or	a5,a0,a5
    32c8:	00d7fa63          	bleu	a3,a5,32dc <__umoddi3+0xd0>
    32cc:	011787b3          	add	a5,a5,a7
    32d0:	0117e663          	bltu	a5,a7,32dc <__umoddi3+0xd0>
    32d4:	00d7f463          	bleu	a3,a5,32dc <__umoddi3+0xd0>
    32d8:	011787b3          	add	a5,a5,a7
    32dc:	40d787b3          	sub	a5,a5,a3
    32e0:	0067d533          	srl	a0,a5,t1
    32e4:	00000593          	li	a1,0
    32e8:	00008067          	ret
    32ec:	01000337          	lui	t1,0x1000
    32f0:	01000713          	li	a4,16
    32f4:	f46666e3          	bltu	a2,t1,3240 <__umoddi3+0x34>
    32f8:	01800713          	li	a4,24
    32fc:	f45ff06f          	j	3240 <__umoddi3+0x34>
    3300:	00061663          	bnez	a2,330c <__umoddi3+0x100>
    3304:	00100613          	li	a2,1
    3308:	031658b3          	divu	a7,a2,a7
    330c:	00010637          	lui	a2,0x10
    3310:	0ac8f263          	bleu	a2,a7,33b4 <__umoddi3+0x1a8>
    3314:	0ff00613          	li	a2,255
    3318:	01167463          	bleu	a7,a2,3320 <__umoddi3+0x114>
    331c:	00800713          	li	a4,8
    3320:	00e8d633          	srl	a2,a7,a4
    3324:	00c686b3          	add	a3,a3,a2
    3328:	0006ce03          	lbu	t3,0(a3)
    332c:	02000313          	li	t1,32
    3330:	00ee0e33          	add	t3,t3,a4
    3334:	41c30333          	sub	t1,t1,t3
    3338:	08031863          	bnez	t1,33c8 <__umoddi3+0x1bc>
    333c:	411585b3          	sub	a1,a1,a7
    3340:	0108d713          	srli	a4,a7,0x10
    3344:	01089513          	slli	a0,a7,0x10
    3348:	01055513          	srli	a0,a0,0x10
    334c:	0107d613          	srli	a2,a5,0x10
    3350:	02e5f6b3          	remu	a3,a1,a4
    3354:	02e5d5b3          	divu	a1,a1,a4
    3358:	01069693          	slli	a3,a3,0x10
    335c:	00c6e6b3          	or	a3,a3,a2
    3360:	02b505b3          	mul	a1,a0,a1
    3364:	00b6fa63          	bleu	a1,a3,3378 <__umoddi3+0x16c>
    3368:	011686b3          	add	a3,a3,a7
    336c:	0116e663          	bltu	a3,a7,3378 <__umoddi3+0x16c>
    3370:	00b6f463          	bleu	a1,a3,3378 <__umoddi3+0x16c>
    3374:	011686b3          	add	a3,a3,a7
    3378:	40b685b3          	sub	a1,a3,a1
    337c:	02e5f6b3          	remu	a3,a1,a4
    3380:	01079793          	slli	a5,a5,0x10
    3384:	0107d793          	srli	a5,a5,0x10
    3388:	02e5d5b3          	divu	a1,a1,a4
    338c:	02b505b3          	mul	a1,a0,a1
    3390:	01069513          	slli	a0,a3,0x10
    3394:	00f567b3          	or	a5,a0,a5
    3398:	00b7fa63          	bleu	a1,a5,33ac <__umoddi3+0x1a0>
    339c:	011787b3          	add	a5,a5,a7
    33a0:	0117e663          	bltu	a5,a7,33ac <__umoddi3+0x1a0>
    33a4:	00b7f463          	bleu	a1,a5,33ac <__umoddi3+0x1a0>
    33a8:	011787b3          	add	a5,a5,a7
    33ac:	40b787b3          	sub	a5,a5,a1
    33b0:	f31ff06f          	j	32e0 <__umoddi3+0xd4>
    33b4:	01000637          	lui	a2,0x1000
    33b8:	01000713          	li	a4,16
    33bc:	f6c8e2e3          	bltu	a7,a2,3320 <__umoddi3+0x114>
    33c0:	01800713          	li	a4,24
    33c4:	f5dff06f          	j	3320 <__umoddi3+0x114>
    33c8:	006898b3          	sll	a7,a7,t1
    33cc:	01c5d733          	srl	a4,a1,t3
    33d0:	006517b3          	sll	a5,a0,t1
    33d4:	01c55e33          	srl	t3,a0,t3
    33d8:	0108d513          	srli	a0,a7,0x10
    33dc:	02a776b3          	remu	a3,a4,a0
    33e0:	006595b3          	sll	a1,a1,t1
    33e4:	00be6e33          	or	t3,t3,a1
    33e8:	01089593          	slli	a1,a7,0x10
    33ec:	0105d593          	srli	a1,a1,0x10
    33f0:	010e5613          	srli	a2,t3,0x10
    33f4:	02a75733          	divu	a4,a4,a0
    33f8:	01069693          	slli	a3,a3,0x10
    33fc:	00c6e6b3          	or	a3,a3,a2
    3400:	02e58733          	mul	a4,a1,a4
    3404:	00e6fa63          	bleu	a4,a3,3418 <__umoddi3+0x20c>
    3408:	011686b3          	add	a3,a3,a7
    340c:	0116e663          	bltu	a3,a7,3418 <__umoddi3+0x20c>
    3410:	00e6f463          	bleu	a4,a3,3418 <__umoddi3+0x20c>
    3414:	011686b3          	add	a3,a3,a7
    3418:	40e68633          	sub	a2,a3,a4
    341c:	02a676b3          	remu	a3,a2,a0
    3420:	010e1e13          	slli	t3,t3,0x10
    3424:	010e5e13          	srli	t3,t3,0x10
    3428:	02a65633          	divu	a2,a2,a0
    342c:	01069693          	slli	a3,a3,0x10
    3430:	02c58633          	mul	a2,a1,a2
    3434:	01c6e5b3          	or	a1,a3,t3
    3438:	00c5fa63          	bleu	a2,a1,344c <__umoddi3+0x240>
    343c:	011585b3          	add	a1,a1,a7
    3440:	0115e663          	bltu	a1,a7,344c <__umoddi3+0x240>
    3444:	00c5f463          	bleu	a2,a1,344c <__umoddi3+0x240>
    3448:	011585b3          	add	a1,a1,a7
    344c:	40c585b3          	sub	a1,a1,a2
    3450:	ef1ff06f          	j	3340 <__umoddi3+0x134>
    3454:	e8d5eae3          	bltu	a1,a3,32e8 <__umoddi3+0xdc>
    3458:	00010737          	lui	a4,0x10
    345c:	04e6fc63          	bleu	a4,a3,34b4 <__umoddi3+0x2a8>
    3460:	0ff00e93          	li	t4,255
    3464:	00deb733          	sltu	a4,t4,a3
    3468:	00371713          	slli	a4,a4,0x3
    346c:	00003337          	lui	t1,0x3
    3470:	00e6d8b3          	srl	a7,a3,a4
    3474:	77830313          	addi	t1,t1,1912 # 3778 <__clz_tab>
    3478:	006888b3          	add	a7,a7,t1
    347c:	0008ce83          	lbu	t4,0(a7) # 1000000 <__C_STACK_TOP__+0xff0000>
    3480:	02000e13          	li	t3,32
    3484:	00ee8eb3          	add	t4,t4,a4
    3488:	41de0e33          	sub	t3,t3,t4
    348c:	020e1e63          	bnez	t3,34c8 <__umoddi3+0x2bc>
    3490:	00b6e463          	bltu	a3,a1,3498 <__umoddi3+0x28c>
    3494:	00c56a63          	bltu	a0,a2,34a8 <__umoddi3+0x29c>
    3498:	40c507b3          	sub	a5,a0,a2
    349c:	40d585b3          	sub	a1,a1,a3
    34a0:	00f53533          	sltu	a0,a0,a5
    34a4:	40a58833          	sub	a6,a1,a0
    34a8:	00078513          	mv	a0,a5
    34ac:	00080593          	mv	a1,a6
    34b0:	e39ff06f          	j	32e8 <__umoddi3+0xdc>
    34b4:	010008b7          	lui	a7,0x1000
    34b8:	01000713          	li	a4,16
    34bc:	fb16e8e3          	bltu	a3,a7,346c <__umoddi3+0x260>
    34c0:	01800713          	li	a4,24
    34c4:	fa9ff06f          	j	346c <__umoddi3+0x260>
    34c8:	01d65733          	srl	a4,a2,t4
    34cc:	01c696b3          	sll	a3,a3,t3
    34d0:	00d766b3          	or	a3,a4,a3
    34d4:	01d557b3          	srl	a5,a0,t4
    34d8:	01d5d733          	srl	a4,a1,t4
    34dc:	01c595b3          	sll	a1,a1,t3
    34e0:	00b7e7b3          	or	a5,a5,a1
    34e4:	0106d593          	srli	a1,a3,0x10
    34e8:	02b77333          	remu	t1,a4,a1
    34ec:	01069f13          	slli	t5,a3,0x10
    34f0:	010f5f13          	srli	t5,t5,0x10
    34f4:	0107d893          	srli	a7,a5,0x10
    34f8:	01c61633          	sll	a2,a2,t3
    34fc:	01c51533          	sll	a0,a0,t3
    3500:	02b75733          	divu	a4,a4,a1
    3504:	01031313          	slli	t1,t1,0x10
    3508:	011368b3          	or	a7,t1,a7
    350c:	02ef0833          	mul	a6,t5,a4
    3510:	00070313          	mv	t1,a4
    3514:	0108fe63          	bleu	a6,a7,3530 <__umoddi3+0x324>
    3518:	00d888b3          	add	a7,a7,a3
    351c:	fff70313          	addi	t1,a4,-1 # ffff <_gp+0xbf5f>
    3520:	00d8e863          	bltu	a7,a3,3530 <__umoddi3+0x324>
    3524:	0108f663          	bleu	a6,a7,3530 <__umoddi3+0x324>
    3528:	ffe70313          	addi	t1,a4,-2
    352c:	00d888b3          	add	a7,a7,a3
    3530:	410888b3          	sub	a7,a7,a6
    3534:	02b8ffb3          	remu	t6,a7,a1
    3538:	02b8d8b3          	divu	a7,a7,a1
    353c:	010f9f93          	slli	t6,t6,0x10
    3540:	031f05b3          	mul	a1,t5,a7
    3544:	01079f13          	slli	t5,a5,0x10
    3548:	010f5f13          	srli	t5,t5,0x10
    354c:	01efef33          	or	t5,t6,t5
    3550:	00088713          	mv	a4,a7
    3554:	00bf7e63          	bleu	a1,t5,3570 <__umoddi3+0x364>
    3558:	00df0f33          	add	t5,t5,a3
    355c:	fff88713          	addi	a4,a7,-1 # ffffff <__C_STACK_TOP__+0xfeffff>
    3560:	00df6863          	bltu	t5,a3,3570 <__umoddi3+0x364>
    3564:	00bf7663          	bleu	a1,t5,3570 <__umoddi3+0x364>
    3568:	ffe88713          	addi	a4,a7,-2
    356c:	00df0f33          	add	t5,t5,a3
    3570:	01031313          	slli	t1,t1,0x10
    3574:	000108b7          	lui	a7,0x10
    3578:	00e36333          	or	t1,t1,a4
    357c:	fff88793          	addi	a5,a7,-1 # ffff <_gp+0xbf5f>
    3580:	01065813          	srli	a6,a2,0x10
    3584:	40bf0f33          	sub	t5,t5,a1
    3588:	00f375b3          	and	a1,t1,a5
    358c:	01035313          	srli	t1,t1,0x10
    3590:	00f677b3          	and	a5,a2,a5
    3594:	02f58733          	mul	a4,a1,a5
    3598:	02f307b3          	mul	a5,t1,a5
    359c:	030585b3          	mul	a1,a1,a6
    35a0:	03030333          	mul	t1,t1,a6
    35a4:	00f585b3          	add	a1,a1,a5
    35a8:	01075813          	srli	a6,a4,0x10
    35ac:	00b80833          	add	a6,a6,a1
    35b0:	00f87463          	bleu	a5,a6,35b8 <__umoddi3+0x3ac>
    35b4:	01130333          	add	t1,t1,a7
    35b8:	000107b7          	lui	a5,0x10
    35bc:	fff78793          	addi	a5,a5,-1 # ffff <_gp+0xbf5f>
    35c0:	01085593          	srli	a1,a6,0x10
    35c4:	00f87833          	and	a6,a6,a5
    35c8:	01081813          	slli	a6,a6,0x10
    35cc:	00f77733          	and	a4,a4,a5
    35d0:	006585b3          	add	a1,a1,t1
    35d4:	00e80733          	add	a4,a6,a4
    35d8:	00bf6663          	bltu	t5,a1,35e4 <__umoddi3+0x3d8>
    35dc:	00bf1e63          	bne	t5,a1,35f8 <__umoddi3+0x3ec>
    35e0:	00e57c63          	bleu	a4,a0,35f8 <__umoddi3+0x3ec>
    35e4:	40c70633          	sub	a2,a4,a2
    35e8:	00c73733          	sltu	a4,a4,a2
    35ec:	40d585b3          	sub	a1,a1,a3
    35f0:	40e585b3          	sub	a1,a1,a4
    35f4:	00060713          	mv	a4,a2
    35f8:	40e50733          	sub	a4,a0,a4
    35fc:	00e53533          	sltu	a0,a0,a4
    3600:	40bf05b3          	sub	a1,t5,a1
    3604:	40a585b3          	sub	a1,a1,a0
    3608:	01d597b3          	sll	a5,a1,t4
    360c:	01c75733          	srl	a4,a4,t3
    3610:	00e7e533          	or	a0,a5,a4
    3614:	01c5d5b3          	srl	a1,a1,t3
    3618:	cd1ff06f          	j	32e8 <__umoddi3+0xdc>
    361c:	0000                	unimp
	...
