
build/dhrystone21.elf:     file format elf32-littleriscv


Disassembly of section .text.init:

00000000 <SIM_EXIT-0xf4>:
	...

000000f4 <SIM_EXIT>:
  f4:	00000013          	nop

000000f8 <SIM_STOP>:
  f8:	0000006f          	j	f8 <SIM_STOP>
  fc:	ffff                	0xffff
  fe:	ffff                	0xffff

Disassembly of section .text:

00000100 <machine_trap_entry-0xc0>:
	...

000001c0 <machine_trap_entry>:
     1c0:	0760006f          	j	236 <trap_entry>
     1c4:	00000013          	nop
     1c8:	00000013          	nop
     1cc:	00000013          	nop
     1d0:	00000013          	nop
     1d4:	00000013          	nop
     1d8:	00000013          	nop
     1dc:	00000013          	nop
     1e0:	00000013          	nop
     1e4:	00000013          	nop
     1e8:	00000013          	nop
     1ec:	00000013          	nop
     1f0:	00000013          	nop
     1f4:	00000013          	nop
     1f8:	00000013          	nop
     1fc:	00000013          	nop

00000200 <_start>:
     200:	00003597          	auipc	a1,0x3
     204:	6c058593          	addi	a1,a1,1728 # 38c0 <__BSS_START__>
     208:	00003617          	auipc	a2,0x3
     20c:	6b860613          	addi	a2,a2,1720 # 38c0 <__BSS_START__>
     210:	a021                	j	218 <_start+0x18>
     212:	0005a023          	sw	zero,0(a1)
     216:	0591                	addi	a1,a1,4
     218:	fec59de3          	bne	a1,a2,212 <_start+0x12>
     21c:	6191                	lui	gp,0x4
     21e:	0a018193          	addi	gp,gp,160 # 40a0 <_gp>
     222:	00010117          	auipc	sp,0x10
     226:	dde10113          	addi	sp,sp,-546 # 10000 <__C_STACK_TOP__>
     22a:	4501                	li	a0,0
     22c:	4581                	li	a1,0
     22e:	566010ef          	jal	ra,1794 <main>
     232:	0960006f          	j	2c8 <handle_trap>

00000236 <trap_entry>:
     236:	716d                	addi	sp,sp,-272
     238:	c206                	sw	ra,4(sp)
     23a:	c40a                	sw	sp,8(sp)
     23c:	c60e                	sw	gp,12(sp)
     23e:	c812                	sw	tp,16(sp)
     240:	ca16                	sw	t0,20(sp)
     242:	cc1a                	sw	t1,24(sp)
     244:	ce1e                	sw	t2,28(sp)
     246:	d022                	sw	s0,32(sp)
     248:	d226                	sw	s1,36(sp)
     24a:	d42a                	sw	a0,40(sp)
     24c:	d62e                	sw	a1,44(sp)
     24e:	d832                	sw	a2,48(sp)
     250:	da36                	sw	a3,52(sp)
     252:	dc3a                	sw	a4,56(sp)
     254:	de3e                	sw	a5,60(sp)
     256:	c0c2                	sw	a6,64(sp)
     258:	c2c6                	sw	a7,68(sp)
     25a:	c4ca                	sw	s2,72(sp)
     25c:	c6ce                	sw	s3,76(sp)
     25e:	c8d2                	sw	s4,80(sp)
     260:	cad6                	sw	s5,84(sp)
     262:	ccda                	sw	s6,88(sp)
     264:	cede                	sw	s7,92(sp)
     266:	d0e2                	sw	s8,96(sp)
     268:	d2e6                	sw	s9,100(sp)
     26a:	d4ea                	sw	s10,104(sp)
     26c:	d6ee                	sw	s11,108(sp)
     26e:	d8f2                	sw	t3,112(sp)
     270:	daf6                	sw	t4,116(sp)
     272:	dcfa                	sw	t5,120(sp)
     274:	defe                	sw	t6,124(sp)
     276:	34202573          	csrr	a0,mcause
     27a:	341025f3          	csrr	a1,mepc
     27e:	860a                	mv	a2,sp
     280:	048000ef          	jal	ra,2c8 <handle_trap>
     284:	4092                	lw	ra,4(sp)
     286:	4122                	lw	sp,8(sp)
     288:	41b2                	lw	gp,12(sp)
     28a:	4242                	lw	tp,16(sp)
     28c:	42d2                	lw	t0,20(sp)
     28e:	4362                	lw	t1,24(sp)
     290:	43f2                	lw	t2,28(sp)
     292:	5402                	lw	s0,32(sp)
     294:	5492                	lw	s1,36(sp)
     296:	5522                	lw	a0,40(sp)
     298:	55b2                	lw	a1,44(sp)
     29a:	5642                	lw	a2,48(sp)
     29c:	56d2                	lw	a3,52(sp)
     29e:	5762                	lw	a4,56(sp)
     2a0:	57f2                	lw	a5,60(sp)
     2a2:	4806                	lw	a6,64(sp)
     2a4:	4896                	lw	a7,68(sp)
     2a6:	4926                	lw	s2,72(sp)
     2a8:	49b6                	lw	s3,76(sp)
     2aa:	4a46                	lw	s4,80(sp)
     2ac:	4ad6                	lw	s5,84(sp)
     2ae:	4b66                	lw	s6,88(sp)
     2b0:	4bf6                	lw	s7,92(sp)
     2b2:	5c06                	lw	s8,96(sp)
     2b4:	5c96                	lw	s9,100(sp)
     2b6:	5d26                	lw	s10,104(sp)
     2b8:	5db6                	lw	s11,108(sp)
     2ba:	5e46                	lw	t3,112(sp)
     2bc:	5ed6                	lw	t4,116(sp)
     2be:	5f66                	lw	t5,120(sp)
     2c0:	5ff6                	lw	t6,124(sp)
     2c2:	6151                	addi	sp,sp,272
     2c4:	30200073          	mret

000002c8 <handle_trap>:
     2c8:	e2dff06f          	j	f4 <SIM_EXIT>
	...

00000300 <printf_putch>:
     300:	04022803          	lw	a6,64(tp) # 40 <buflen.1744>
     304:	00020293          	mv	t0,tp
     308:	00180713          	addi	a4,a6,1
     30c:	01028333          	add	t1,t0,a6
     310:	04e22023          	sw	a4,64(tp) # 40 <buflen.1744>
     314:	00a30023          	sb	a0,0(t1)
     318:	00a00393          	li	t2,10
     31c:	00750863          	beq	a0,t2,32c <printf_putch+0x2c>
     320:	04000513          	li	a0,64
     324:	00a70663          	beq	a4,a0,330 <printf_putch+0x30>
     328:	00008067          	ret
     32c:	10e05463          	blez	a4,434 <STACK_SIZE+0x34>
     330:	00777e13          	andi	t3,a4,7
     334:	00020793          	mv	a5,tp
     338:	f0000eb7          	lui	t4,0xf0000
     33c:	fff70f13          	addi	t5,a4,-1
     340:	0a0e0463          	beqz	t3,3e8 <printf_putch+0xe8>
     344:	00100f93          	li	t6,1
     348:	09fe0663          	beq	t3,t6,3d4 <printf_putch+0xd4>
     34c:	00200593          	li	a1,2
     350:	06be0a63          	beq	t3,a1,3c4 <printf_putch+0xc4>
     354:	00300813          	li	a6,3
     358:	050e0e63          	beq	t3,a6,3b4 <printf_putch+0xb4>
     35c:	00400693          	li	a3,4
     360:	04de0263          	beq	t3,a3,3a4 <printf_putch+0xa4>
     364:	00500293          	li	t0,5
     368:	025e0663          	beq	t3,t0,394 <printf_putch+0x94>
     36c:	00600313          	li	t1,6
     370:	006e0a63          	beq	t3,t1,384 <printf_putch+0x84>
     374:	0007c383          	lbu	t2,0(a5)
     378:	000f0713          	mv	a4,t5
     37c:	00178793          	addi	a5,a5,1
     380:	007e8023          	sb	t2,0(t4) # f0000000 <__C_STACK_TOP__+0xefff0000>
     384:	0007c503          	lbu	a0,0(a5)
     388:	fff70713          	addi	a4,a4,-1
     38c:	00178793          	addi	a5,a5,1
     390:	00ae8023          	sb	a0,0(t4)
     394:	0007c883          	lbu	a7,0(a5)
     398:	fff70713          	addi	a4,a4,-1
     39c:	00178793          	addi	a5,a5,1
     3a0:	011e8023          	sb	a7,0(t4)
     3a4:	0007ce03          	lbu	t3,0(a5)
     3a8:	fff70713          	addi	a4,a4,-1
     3ac:	00178793          	addi	a5,a5,1
     3b0:	01ce8023          	sb	t3,0(t4)
     3b4:	0007cf03          	lbu	t5,0(a5)
     3b8:	fff70713          	addi	a4,a4,-1
     3bc:	00178793          	addi	a5,a5,1
     3c0:	01ee8023          	sb	t5,0(t4)
     3c4:	0007cf83          	lbu	t6,0(a5)
     3c8:	fff70713          	addi	a4,a4,-1
     3cc:	00178793          	addi	a5,a5,1
     3d0:	01fe8023          	sb	t6,0(t4)
     3d4:	00178793          	addi	a5,a5,1
     3d8:	fff7c583          	lbu	a1,-1(a5)
     3dc:	fff70713          	addi	a4,a4,-1
     3e0:	00be8023          	sb	a1,0(t4)
     3e4:	04070863          	beqz	a4,434 <STACK_SIZE+0x34>
     3e8:	0007c803          	lbu	a6,0(a5)
     3ec:	00878793          	addi	a5,a5,8
     3f0:	ff870713          	addi	a4,a4,-8
     3f4:	010e8023          	sb	a6,0(t4)
     3f8:	ff97c683          	lbu	a3,-7(a5)
     3fc:	00de8023          	sb	a3,0(t4)
     400:	ffa7c283          	lbu	t0,-6(a5)
     404:	005e8023          	sb	t0,0(t4)
     408:	ffb7c303          	lbu	t1,-5(a5)
     40c:	006e8023          	sb	t1,0(t4)
     410:	ffc7c383          	lbu	t2,-4(a5)
     414:	007e8023          	sb	t2,0(t4)
     418:	ffd7c503          	lbu	a0,-3(a5)
     41c:	00ae8023          	sb	a0,0(t4)
     420:	ffe7c883          	lbu	a7,-2(a5)
     424:	011e8023          	sb	a7,0(t4)
     428:	fff7ce03          	lbu	t3,-1(a5)
     42c:	01ce8023          	sb	t3,0(t4)
     430:	fa071ce3          	bnez	a4,3e8 <printf_putch+0xe8>
     434:	04022023          	sw	zero,64(tp) # 40 <buflen.1744>
     438:	00008067          	ret

0000043c <vprintfmt.constprop.1>:
     43c:	eb010113          	addi	sp,sp,-336
     440:	15212023          	sw	s2,320(sp)
     444:	14112623          	sw	ra,332(sp)
     448:	14812423          	sw	s0,328(sp)
     44c:	13512a23          	sw	s5,308(sp)
     450:	11b12e23          	sw	s11,284(sp)
     454:	00020a93          	mv	s5,tp
     458:	06100093          	li	ra,97
     45c:	00004db7          	lui	s11,0x4
     460:	13312e23          	sw	s3,316(sp)
     464:	14912223          	sw	s1,324(sp)
     468:	13412c23          	sw	s4,312(sp)
     46c:	13612823          	sw	s6,304(sp)
     470:	13712623          	sw	s7,300(sp)
     474:	13812423          	sw	s8,296(sp)
     478:	13912223          	sw	s9,292(sp)
     47c:	13a12023          	sw	s10,288(sp)
     480:	00f12223          	sw	a5,4(sp)
     484:	00a12423          	sw	a0,8(sp)
     488:	00112623          	sw	ra,12(sp)
     48c:	878d8d93          	addi	s11,s11,-1928 # 3878 <__clz_tab+0x100>
     490:	040a8993          	addi	s3,s5,64
     494:	000dc283          	lbu	t0,0(s11)
     498:	02500713          	li	a4,37
     49c:	12e28c63          	beq	t0,a4,5d4 <vprintfmt.constprop.1+0x198>
     4a0:	18028663          	beqz	t0,62c <vprintfmt.constprop.1+0x1f0>
     4a4:	04022303          	lw	t1,64(tp) # 40 <buflen.1744>
     4a8:	00a00493          	li	s1,10
     4ac:	001d8d93          	addi	s11,s11,1
     4b0:	00130713          	addi	a4,t1,1
     4b4:	006a8eb3          	add	t4,s5,t1
     4b8:	04e22023          	sw	a4,64(tp) # 40 <buflen.1744>
     4bc:	005e8023          	sb	t0,0(t4)
     4c0:	16928063          	beq	t0,s1,620 <vprintfmt.constprop.1+0x1e4>
     4c4:	04000593          	li	a1,64
     4c8:	fcb716e3          	bne	a4,a1,494 <vprintfmt.constprop.1+0x58>
     4cc:	00412503          	lw	a0,4(sp)
     4d0:	00777b13          	andi	s6,a4,7
     4d4:	f0000a37          	lui	s4,0xf0000
     4d8:	00020793          	mv	a5,tp
     4dc:	fff70d13          	addi	s10,a4,-1
     4e0:	080b0c63          	beqz	s6,578 <vprintfmt.constprop.1+0x13c>
     4e4:	00100693          	li	a3,1
     4e8:	06db0e63          	beq	s6,a3,564 <vprintfmt.constprop.1+0x128>
     4ec:	00200893          	li	a7,2
     4f0:	071b0263          	beq	s6,a7,554 <vprintfmt.constprop.1+0x118>
     4f4:	00300093          	li	ra,3
     4f8:	041b0663          	beq	s6,ra,544 <vprintfmt.constprop.1+0x108>
     4fc:	00400c13          	li	s8,4
     500:	038b0a63          	beq	s6,s8,534 <vprintfmt.constprop.1+0xf8>
     504:	00500b93          	li	s7,5
     508:	017b0e63          	beq	s6,s7,524 <vprintfmt.constprop.1+0xe8>
     50c:	00600913          	li	s2,6
     510:	152b1c63          	bne	s6,s2,668 <vprintfmt.constprop.1+0x22c>
     514:	0007c383          	lbu	t2,0(a5)
     518:	fff70713          	addi	a4,a4,-1
     51c:	00178793          	addi	a5,a5,1
     520:	007a0023          	sb	t2,0(s4) # f0000000 <__C_STACK_TOP__+0xefff0000>
     524:	0007cf83          	lbu	t6,0(a5)
     528:	fff70713          	addi	a4,a4,-1
     52c:	00178793          	addi	a5,a5,1
     530:	01fa0023          	sb	t6,0(s4)
     534:	0007cf03          	lbu	t5,0(a5)
     538:	fff70713          	addi	a4,a4,-1
     53c:	00178793          	addi	a5,a5,1
     540:	01ea0023          	sb	t5,0(s4)
     544:	0007c803          	lbu	a6,0(a5)
     548:	fff70713          	addi	a4,a4,-1
     54c:	00178793          	addi	a5,a5,1
     550:	010a0023          	sb	a6,0(s4)
     554:	0007c283          	lbu	t0,0(a5)
     558:	fff70713          	addi	a4,a4,-1
     55c:	00178793          	addi	a5,a5,1
     560:	005a0023          	sb	t0,0(s4)
     564:	00178793          	addi	a5,a5,1
     568:	fff7c603          	lbu	a2,-1(a5)
     56c:	fff70713          	addi	a4,a4,-1
     570:	00ca0023          	sb	a2,0(s4)
     574:	04070863          	beqz	a4,5c4 <vprintfmt.constprop.1+0x188>
     578:	0007cc83          	lbu	s9,0(a5)
     57c:	00878793          	addi	a5,a5,8
     580:	ff870713          	addi	a4,a4,-8
     584:	019a0023          	sb	s9,0(s4)
     588:	ff97c303          	lbu	t1,-7(a5)
     58c:	006a0023          	sb	t1,0(s4)
     590:	ffa7c483          	lbu	s1,-6(a5)
     594:	009a0023          	sb	s1,0(s4)
     598:	ffb7ce83          	lbu	t4,-5(a5)
     59c:	01da0023          	sb	t4,0(s4)
     5a0:	ffc7c583          	lbu	a1,-4(a5)
     5a4:	00ba0023          	sb	a1,0(s4)
     5a8:	ffd7cb03          	lbu	s6,-3(a5)
     5ac:	016a0023          	sb	s6,0(s4)
     5b0:	ffe7c503          	lbu	a0,-2(a5)
     5b4:	00aa0023          	sb	a0,0(s4)
     5b8:	fff7cd03          	lbu	s10,-1(a5)
     5bc:	01aa0023          	sb	s10,0(s4)
     5c0:	fa071ce3          	bnez	a4,578 <vprintfmt.constprop.1+0x13c>
     5c4:	04022023          	sw	zero,64(tp) # 40 <buflen.1744>
     5c8:	000dc283          	lbu	t0,0(s11)
     5cc:	02500713          	li	a4,37
     5d0:	ece298e3          	bne	t0,a4,4a0 <vprintfmt.constprop.1+0x64>
     5d4:	001dc603          	lbu	a2,1(s11)
     5d8:	001d8313          	addi	t1,s11,1
     5dc:	000036b7          	lui	a3,0x3
     5e0:	00030f13          	mv	t5,t1
     5e4:	02000b93          	li	s7,32
     5e8:	fff00493          	li	s1,-1
     5ec:	fff00c13          	li	s8,-1
     5f0:	00000913          	li	s2,0
     5f4:	05500893          	li	a7,85
     5f8:	62068693          	addi	a3,a3,1568 # 3620 <__umoddi3+0x414>
     5fc:	00900093          	li	ra,9
     600:	fdd60393          	addi	t2,a2,-35
     604:	0ff3f593          	andi	a1,t2,255
     608:	001f0d93          	addi	s11,t5,1
     60c:	7cb8e663          	bltu	a7,a1,dd8 <vprintfmt.constprop.1+0x99c>
     610:	00259813          	slli	a6,a1,0x2
     614:	00d80a33          	add	s4,a6,a3
     618:	000a2b03          	lw	s6,0(s4)
     61c:	000b0067          	jr	s6
     620:	eae046e3          	bgtz	a4,4cc <vprintfmt.constprop.1+0x90>
     624:	04022023          	sw	zero,64(tp) # 40 <buflen.1744>
     628:	fa1ff06f          	j	5c8 <vprintfmt.constprop.1+0x18c>
     62c:	14c12083          	lw	ra,332(sp)
     630:	14812403          	lw	s0,328(sp)
     634:	14412483          	lw	s1,324(sp)
     638:	14012903          	lw	s2,320(sp)
     63c:	13c12983          	lw	s3,316(sp)
     640:	13812a03          	lw	s4,312(sp)
     644:	13412a83          	lw	s5,308(sp)
     648:	13012b03          	lw	s6,304(sp)
     64c:	12c12b83          	lw	s7,300(sp)
     650:	12812c03          	lw	s8,296(sp)
     654:	12412c83          	lw	s9,292(sp)
     658:	12012d03          	lw	s10,288(sp)
     65c:	11c12d83          	lw	s11,284(sp)
     660:	15010113          	addi	sp,sp,336
     664:	00008067          	ret
     668:	0007ce03          	lbu	t3,0(a5)
     66c:	000d0713          	mv	a4,s10
     670:	00178793          	addi	a5,a5,1
     674:	01ca0023          	sb	t3,0(s4)
     678:	e9dff06f          	j	514 <vprintfmt.constprop.1+0xd8>
     67c:	06100313          	li	t1,97
     680:	01000c93          	li	s9,16
     684:	00000d13          	li	s10,0
     688:	00612623          	sw	t1,12(sp)
     68c:	00100693          	li	a3,1
     690:	3d26d863          	ble	s2,a3,a60 <vprintfmt.constprop.1+0x624>
     694:	00812583          	lw	a1,8(sp)
     698:	00758493          	addi	s1,a1,7
     69c:	ff84fe93          	andi	t4,s1,-8
     6a0:	000ea903          	lw	s2,0(t4)
     6a4:	004eab03          	lw	s6,4(t4)
     6a8:	008e8513          	addi	a0,t4,8
     6ac:	00a12423          	sw	a0,8(sp)
     6b0:	000c8613          	mv	a2,s9
     6b4:	00000693          	li	a3,0
     6b8:	00090513          	mv	a0,s2
     6bc:	000b0593          	mv	a1,s6
     6c0:	34d020ef          	jal	ra,320c <__umoddi3>
     6c4:	00a12823          	sw	a0,16(sp)
     6c8:	456d0c63          	beq	s10,s6,b20 <vprintfmt.constprop.1+0x6e4>
     6cc:	01410a13          	addi	s4,sp,20
     6d0:	00100493          	li	s1,1
     6d4:	000c8613          	mv	a2,s9
     6d8:	00000693          	li	a3,0
     6dc:	00090513          	mv	a0,s2
     6e0:	000b0593          	mv	a1,s6
     6e4:	6f4020ef          	jal	ra,2dd8 <__udivdi3>
     6e8:	000c8613          	mv	a2,s9
     6ec:	00000693          	li	a3,0
     6f0:	00050913          	mv	s2,a0
     6f4:	00058b13          	mv	s6,a1
     6f8:	315020ef          	jal	ra,320c <__umoddi3>
     6fc:	00aa2023          	sw	a0,0(s4)
     700:	00148493          	addi	s1,s1,1
     704:	004a0a13          	addi	s4,s4,4
     708:	fd6d16e3          	bne	s10,s6,6d4 <vprintfmt.constprop.1+0x298>
     70c:	fd9974e3          	bleu	s9,s2,6d4 <vprintfmt.constprop.1+0x298>
     710:	04000313          	li	t1,64
     714:	f0000cb7          	lui	s9,0xf0000
     718:	0384d263          	ble	s8,s1,73c <vprintfmt.constprop.1+0x300>
     71c:	04022083          	lw	ra,64(tp) # 40 <buflen.1744>
     720:	00108e13          	addi	t3,ra,1
     724:	001a83b3          	add	t2,s5,ra
     728:	05c22023          	sw	t3,64(tp) # 40 <buflen.1744>
     72c:	01738023          	sb	s7,0(t2)
     730:	066e0a63          	beq	t3,t1,7a4 <vprintfmt.constprop.1+0x368>
     734:	fffc0c13          	addi	s8,s8,-1
     738:	ff84c2e3          	blt	s1,s8,71c <vprintfmt.constprop.1+0x2e0>
     73c:	00c12c03          	lw	s8,12(sp)
     740:	00249d13          	slli	s10,s1,0x2
     744:	11010893          	addi	a7,sp,272
     748:	01a88fb3          	add	t6,a7,s10
     74c:	efcf8793          	addi	a5,t6,-260
     750:	00c10313          	addi	t1,sp,12
     754:	00900b93          	li	s7,9
     758:	ff6c0393          	addi	t2,s8,-10
     75c:	00a00093          	li	ra,10
     760:	f0000cb7          	lui	s9,0xf0000
     764:	04000e13          	li	t3,64
     768:	d2f306e3          	beq	t1,a5,494 <vprintfmt.constprop.1+0x58>
     76c:	0007a703          	lw	a4,0(a5)
     770:	03000f13          	li	t5,48
     774:	00ebf463          	bleu	a4,s7,77c <vprintfmt.constprop.1+0x340>
     778:	00038f13          	mv	t5,t2
     77c:	04022803          	lw	a6,64(tp) # 40 <buflen.1744>
     780:	01e702b3          	add	t0,a4,t5
     784:	00180693          	addi	a3,a6,1
     788:	010a8633          	add	a2,s5,a6
     78c:	04d22023          	sw	a3,64(tp) # 40 <buflen.1744>
     790:	00560023          	sb	t0,0(a2)
     794:	0a128ee3          	beq	t0,ra,1050 <vprintfmt.constprop.1+0xc14>
     798:	0bc68ee3          	beq	a3,t3,1054 <vprintfmt.constprop.1+0xc18>
     79c:	ffc78793          	addi	a5,a5,-4
     7a0:	fc9ff06f          	j	768 <vprintfmt.constprop.1+0x32c>
     7a4:	41598fb3          	sub	t6,s3,s5
     7a8:	007fff13          	andi	t5,t6,7
     7ac:	000a8893          	mv	a7,s5
     7b0:	080f0663          	beqz	t5,83c <vprintfmt.constprop.1+0x400>
     7b4:	00100813          	li	a6,1
     7b8:	070f0a63          	beq	t5,a6,82c <vprintfmt.constprop.1+0x3f0>
     7bc:	00200293          	li	t0,2
     7c0:	065f0063          	beq	t5,t0,820 <vprintfmt.constprop.1+0x3e4>
     7c4:	00300613          	li	a2,3
     7c8:	04cf0663          	beq	t5,a2,814 <vprintfmt.constprop.1+0x3d8>
     7cc:	00400713          	li	a4,4
     7d0:	02ef0c63          	beq	t5,a4,808 <vprintfmt.constprop.1+0x3cc>
     7d4:	00500593          	li	a1,5
     7d8:	02bf0263          	beq	t5,a1,7fc <vprintfmt.constprop.1+0x3c0>
     7dc:	00600693          	li	a3,6
     7e0:	00df0863          	beq	t5,a3,7f0 <vprintfmt.constprop.1+0x3b4>
     7e4:	000ace83          	lbu	t4,0(s5)
     7e8:	001a8893          	addi	a7,s5,1
     7ec:	01dc8023          	sb	t4,0(s9) # f0000000 <__C_STACK_TOP__+0xefff0000>
     7f0:	0008c503          	lbu	a0,0(a7)
     7f4:	00188893          	addi	a7,a7,1
     7f8:	00ac8023          	sb	a0,0(s9)
     7fc:	0008c903          	lbu	s2,0(a7)
     800:	00188893          	addi	a7,a7,1
     804:	012c8023          	sb	s2,0(s9)
     808:	0008cb03          	lbu	s6,0(a7)
     80c:	00188893          	addi	a7,a7,1
     810:	016c8023          	sb	s6,0(s9)
     814:	0008ca03          	lbu	s4,0(a7)
     818:	00188893          	addi	a7,a7,1
     81c:	014c8023          	sb	s4,0(s9)
     820:	0008cd03          	lbu	s10,0(a7)
     824:	00188893          	addi	a7,a7,1
     828:	01ac8023          	sb	s10,0(s9)
     82c:	00188893          	addi	a7,a7,1
     830:	fff8c783          	lbu	a5,-1(a7)
     834:	00fc8023          	sb	a5,0(s9)
     838:	05388663          	beq	a7,s3,884 <vprintfmt.constprop.1+0x448>
     83c:	0008c083          	lbu	ra,0(a7)
     840:	00888893          	addi	a7,a7,8
     844:	001c8023          	sb	ra,0(s9)
     848:	ff98ce03          	lbu	t3,-7(a7)
     84c:	01cc8023          	sb	t3,0(s9)
     850:	ffa8c383          	lbu	t2,-6(a7)
     854:	007c8023          	sb	t2,0(s9)
     858:	ffb8cf83          	lbu	t6,-5(a7)
     85c:	01fc8023          	sb	t6,0(s9)
     860:	ffc8cf03          	lbu	t5,-4(a7)
     864:	01ec8023          	sb	t5,0(s9)
     868:	ffd8c803          	lbu	a6,-3(a7)
     86c:	010c8023          	sb	a6,0(s9)
     870:	ffe8c283          	lbu	t0,-2(a7)
     874:	005c8023          	sb	t0,0(s9)
     878:	fff8c603          	lbu	a2,-1(a7)
     87c:	00cc8023          	sb	a2,0(s9)
     880:	fb389ee3          	bne	a7,s3,83c <vprintfmt.constprop.1+0x400>
     884:	04022023          	sw	zero,64(tp) # 40 <buflen.1744>
     888:	fffc0c13          	addi	s8,s8,-1
     88c:	eadff06f          	j	738 <vprintfmt.constprop.1+0x2fc>
     890:	001f4603          	lbu	a2,1(t5)
     894:	000d8f13          	mv	t5,s11
     898:	d69ff06f          	j	600 <vprintfmt.constprop.1+0x1c4>
     89c:	04022c03          	lw	s8,64(tp) # 40 <buflen.1744>
     8a0:	02500393          	li	t2,37
     8a4:	04000b93          	li	s7,64
     8a8:	001c0913          	addi	s2,s8,1
     8ac:	018a8e33          	add	t3,s5,s8
     8b0:	05222023          	sw	s2,64(tp) # 40 <buflen.1744>
     8b4:	007e0023          	sb	t2,0(t3)
     8b8:	bd791ee3          	bne	s2,s7,494 <vprintfmt.constprop.1+0x58>
     8bc:	41598fb3          	sub	t6,s3,s5
     8c0:	007fff13          	andi	t5,t6,7
     8c4:	000a8793          	mv	a5,s5
     8c8:	f0000837          	lui	a6,0xf0000
     8cc:	080f0663          	beqz	t5,958 <vprintfmt.constprop.1+0x51c>
     8d0:	00100293          	li	t0,1
     8d4:	065f0a63          	beq	t5,t0,948 <vprintfmt.constprop.1+0x50c>
     8d8:	00200613          	li	a2,2
     8dc:	06cf0063          	beq	t5,a2,93c <vprintfmt.constprop.1+0x500>
     8e0:	00300c93          	li	s9,3
     8e4:	059f0663          	beq	t5,s9,930 <vprintfmt.constprop.1+0x4f4>
     8e8:	00400493          	li	s1,4
     8ec:	029f0c63          	beq	t5,s1,924 <vprintfmt.constprop.1+0x4e8>
     8f0:	00500713          	li	a4,5
     8f4:	02ef0263          	beq	t5,a4,918 <vprintfmt.constprop.1+0x4dc>
     8f8:	00600e93          	li	t4,6
     8fc:	01df0863          	beq	t5,t4,90c <vprintfmt.constprop.1+0x4d0>
     900:	000ac583          	lbu	a1,0(s5)
     904:	001a8793          	addi	a5,s5,1
     908:	00b80023          	sb	a1,0(a6) # f0000000 <__C_STACK_TOP__+0xefff0000>
     90c:	0007c503          	lbu	a0,0(a5)
     910:	00178793          	addi	a5,a5,1
     914:	00a80023          	sb	a0,0(a6)
     918:	0007cb03          	lbu	s6,0(a5)
     91c:	00178793          	addi	a5,a5,1
     920:	01680023          	sb	s6,0(a6)
     924:	0007ca03          	lbu	s4,0(a5)
     928:	00178793          	addi	a5,a5,1
     92c:	01480023          	sb	s4,0(a6)
     930:	0007cd03          	lbu	s10,0(a5)
     934:	00178793          	addi	a5,a5,1
     938:	01a80023          	sb	s10,0(a6)
     93c:	0007c303          	lbu	t1,0(a5)
     940:	00178793          	addi	a5,a5,1
     944:	00680023          	sb	t1,0(a6)
     948:	00178793          	addi	a5,a5,1
     94c:	fff7c683          	lbu	a3,-1(a5)
     950:	00d80023          	sb	a3,0(a6)
     954:	c73788e3          	beq	a5,s3,5c4 <vprintfmt.constprop.1+0x188>
     958:	0007c883          	lbu	a7,0(a5)
     95c:	00878793          	addi	a5,a5,8
     960:	01180023          	sb	a7,0(a6)
     964:	ff97c083          	lbu	ra,-7(a5)
     968:	00180023          	sb	ra,0(a6)
     96c:	ffa7cc03          	lbu	s8,-6(a5)
     970:	01880023          	sb	s8,0(a6)
     974:	ffb7cb83          	lbu	s7,-5(a5)
     978:	01780023          	sb	s7,0(a6)
     97c:	ffc7c903          	lbu	s2,-4(a5)
     980:	01280023          	sb	s2,0(a6)
     984:	ffd7ce03          	lbu	t3,-3(a5)
     988:	01c80023          	sb	t3,0(a6)
     98c:	ffe7c383          	lbu	t2,-2(a5)
     990:	00780023          	sb	t2,0(a6)
     994:	fff7cf83          	lbu	t6,-1(a5)
     998:	01f80023          	sb	t6,0(a6)
     99c:	fb379ee3          	bne	a5,s3,958 <vprintfmt.constprop.1+0x51c>
     9a0:	c25ff06f          	j	5c4 <vprintfmt.constprop.1+0x188>
     9a4:	00812d03          	lw	s10,8(sp)
     9a8:	001f4603          	lbu	a2,1(t5)
     9ac:	000d8f13          	mv	t5,s11
     9b0:	000d2483          	lw	s1,0(s10)
     9b4:	004d0793          	addi	a5,s10,4
     9b8:	00f12423          	sw	a5,8(sp)
     9bc:	c40c52e3          	bgez	s8,600 <vprintfmt.constprop.1+0x1c4>
     9c0:	00048c13          	mv	s8,s1
     9c4:	fff00493          	li	s1,-1
     9c8:	c39ff06f          	j	600 <vprintfmt.constprop.1+0x1c4>
     9cc:	001f4603          	lbu	a2,1(t5)
     9d0:	02d00b93          	li	s7,45
     9d4:	000d8f13          	mv	t5,s11
     9d8:	c29ff06f          	j	600 <vprintfmt.constprop.1+0x1c4>
     9dc:	fffc4b13          	not	s6,s8
     9e0:	41fb5a13          	srai	s4,s6,0x1f
     9e4:	001f4603          	lbu	a2,1(t5)
     9e8:	014c7c33          	and	s8,s8,s4
     9ec:	000d8f13          	mv	t5,s11
     9f0:	c11ff06f          	j	600 <vprintfmt.constprop.1+0x1c4>
     9f4:	001f4603          	lbu	a2,1(t5)
     9f8:	03000b93          	li	s7,48
     9fc:	000d8f13          	mv	t5,s11
     a00:	c01ff06f          	j	600 <vprintfmt.constprop.1+0x1c4>
     a04:	001f4583          	lbu	a1,1(t5)
     a08:	fd060493          	addi	s1,a2,-48
     a0c:	000d8f13          	mv	t5,s11
     a10:	fd058c93          	addi	s9,a1,-48
     a14:	00058613          	mv	a2,a1
     a18:	fb90e2e3          	bltu	ra,s9,9bc <vprintfmt.constprop.1+0x580>
     a1c:	00249d93          	slli	s11,s1,0x2
     a20:	009d84b3          	add	s1,s11,s1
     a24:	00149713          	slli	a4,s1,0x1
     a28:	001f0f13          	addi	t5,t5,1
     a2c:	00b70eb3          	add	t4,a4,a1
     a30:	000f4583          	lbu	a1,0(t5)
     a34:	fd0e8493          	addi	s1,t4,-48
     a38:	fd058513          	addi	a0,a1,-48
     a3c:	00058613          	mv	a2,a1
     a40:	fca0fee3          	bleu	a0,ra,a1c <vprintfmt.constprop.1+0x5e0>
     a44:	f79ff06f          	j	9bc <vprintfmt.constprop.1+0x580>
     a48:	04100293          	li	t0,65
     a4c:	00512623          	sw	t0,12(sp)
     a50:	00100693          	li	a3,1
     a54:	01000c93          	li	s9,16
     a58:	00000d13          	li	s10,0
     a5c:	c326cce3          	blt	a3,s2,694 <vprintfmt.constprop.1+0x258>
     a60:	00812903          	lw	s2,8(sp)
     a64:	00490613          	addi	a2,s2,4
     a68:	2180006f          	j	c80 <vprintfmt.constprop.1+0x844>
     a6c:	00812b83          	lw	s7,8(sp)
     a70:	04022c03          	lw	s8,64(tp) # 40 <buflen.1744>
     a74:	00a00f13          	li	t5,10
     a78:	000ba303          	lw	t1,0(s7)
     a7c:	001c0793          	addi	a5,s8,1
     a80:	018a8a33          	add	s4,s5,s8
     a84:	04f22023          	sw	a5,64(tp) # 40 <buflen.1744>
     a88:	006a0023          	sb	t1,0(s4)
     a8c:	004b8913          	addi	s2,s7,4
     a90:	4be30463          	beq	t1,t5,f38 <vprintfmt.constprop.1+0xafc>
     a94:	04000c93          	li	s9,64
     a98:	4b978263          	beq	a5,s9,f3c <vprintfmt.constprop.1+0xb00>
     a9c:	01212423          	sw	s2,8(sp)
     aa0:	9f5ff06f          	j	494 <vprintfmt.constprop.1+0x58>
     aa4:	00100a13          	li	s4,1
     aa8:	0f2a54e3          	ble	s2,s4,1390 <vprintfmt.constprop.1+0xf54>
     aac:	00812703          	lw	a4,8(sp)
     ab0:	00770093          	addi	ra,a4,7
     ab4:	ff80f293          	andi	t0,ra,-8
     ab8:	0002af83          	lw	t6,0(t0)
     abc:	0042ab03          	lw	s6,4(t0)
     ac0:	00828793          	addi	a5,t0,8
     ac4:	00f12423          	sw	a5,8(sp)
     ac8:	320b5ae3          	bgez	s6,15fc <vprintfmt.constprop.1+0x11c0>
     acc:	04022383          	lw	t2,64(tp) # 40 <buflen.1744>
     ad0:	02d00593          	li	a1,45
     ad4:	04000813          	li	a6,64
     ad8:	00138693          	addi	a3,t2,1
     adc:	007a8d33          	add	s10,s5,t2
     ae0:	04d22023          	sw	a3,64(tp) # 40 <buflen.1744>
     ae4:	00bd0023          	sb	a1,0(s10)
     ae8:	230684e3          	beq	a3,a6,1510 <vprintfmt.constprop.1+0x10d4>
     aec:	41f00933          	neg	s2,t6
     af0:	01203fb3          	snez	t6,s2
     af4:	41600b33          	neg	s6,s6
     af8:	41fb0b33          	sub	s6,s6,t6
     afc:	00a00c93          	li	s9,10
     b00:	000c8613          	mv	a2,s9
     b04:	00000693          	li	a3,0
     b08:	00090513          	mv	a0,s2
     b0c:	000b0593          	mv	a1,s6
     b10:	6fc020ef          	jal	ra,320c <__umoddi3>
     b14:	00000d13          	li	s10,0
     b18:	00a12823          	sw	a0,16(sp)
     b1c:	bb6d18e3          	bne	s10,s6,6cc <vprintfmt.constprop.1+0x290>
     b20:	bb9976e3          	bleu	s9,s2,6cc <vprintfmt.constprop.1+0x290>
     b24:	00100493          	li	s1,1
     b28:	be9ff06f          	j	710 <vprintfmt.constprop.1+0x2d4>
     b2c:	001f4603          	lbu	a2,1(t5)
     b30:	00190913          	addi	s2,s2,1
     b34:	000d8f13          	mv	t5,s11
     b38:	ac9ff06f          	j	600 <vprintfmt.constprop.1+0x1c4>
     b3c:	00800c93          	li	s9,8
     b40:	00000d13          	li	s10,0
     b44:	b49ff06f          	j	68c <vprintfmt.constprop.1+0x250>
     b48:	04022903          	lw	s2,64(tp) # 40 <buflen.1744>
     b4c:	00812703          	lw	a4,8(sp)
     b50:	03000e13          	li	t3,48
     b54:	012a8f33          	add	t5,s5,s2
     b58:	04000a13          	li	s4,64
     b5c:	00190c93          	addi	s9,s2,1
     b60:	01cf0023          	sb	t3,0(t5)
     b64:	00470613          	addi	a2,a4,4
     b68:	734c8663          	beq	s9,s4,1294 <vprintfmt.constprop.1+0xe58>
     b6c:	00290f93          	addi	t6,s2,2
     b70:	019a80b3          	add	ra,s5,s9
     b74:	07800293          	li	t0,120
     b78:	05f22023          	sw	t6,64(tp) # 40 <buflen.1744>
     b7c:	00508023          	sb	t0,0(ra)
     b80:	000a8793          	mv	a5,s5
     b84:	0f4f9463          	bne	t6,s4,c6c <vprintfmt.constprop.1+0x830>
     b88:	415986b3          	sub	a3,s3,s5
     b8c:	0076f393          	andi	t2,a3,7
     b90:	f0000837          	lui	a6,0xf0000
     b94:	08038663          	beqz	t2,c20 <vprintfmt.constprop.1+0x7e4>
     b98:	00100593          	li	a1,1
     b9c:	06b38a63          	beq	t2,a1,c10 <vprintfmt.constprop.1+0x7d4>
     ba0:	00200b13          	li	s6,2
     ba4:	07638063          	beq	t2,s6,c04 <vprintfmt.constprop.1+0x7c8>
     ba8:	00300d13          	li	s10,3
     bac:	05a38663          	beq	t2,s10,bf8 <vprintfmt.constprop.1+0x7bc>
     bb0:	00400313          	li	t1,4
     bb4:	02638c63          	beq	t2,t1,bec <vprintfmt.constprop.1+0x7b0>
     bb8:	00500493          	li	s1,5
     bbc:	02938263          	beq	t2,s1,be0 <vprintfmt.constprop.1+0x7a4>
     bc0:	00600e93          	li	t4,6
     bc4:	01d38863          	beq	t2,t4,bd4 <vprintfmt.constprop.1+0x798>
     bc8:	000ac503          	lbu	a0,0(s5)
     bcc:	001a8793          	addi	a5,s5,1
     bd0:	00a80023          	sb	a0,0(a6) # f0000000 <__C_STACK_TOP__+0xefff0000>
     bd4:	0007c883          	lbu	a7,0(a5)
     bd8:	00178793          	addi	a5,a5,1
     bdc:	01180023          	sb	a7,0(a6)
     be0:	0007c903          	lbu	s2,0(a5)
     be4:	00178793          	addi	a5,a5,1
     be8:	01280023          	sb	s2,0(a6)
     bec:	0007ca03          	lbu	s4,0(a5)
     bf0:	00178793          	addi	a5,a5,1
     bf4:	01480023          	sb	s4,0(a6)
     bf8:	0007cf03          	lbu	t5,0(a5)
     bfc:	00178793          	addi	a5,a5,1
     c00:	01e80023          	sb	t5,0(a6)
     c04:	0007cc83          	lbu	s9,0(a5)
     c08:	00178793          	addi	a5,a5,1
     c0c:	01980023          	sb	s9,0(a6)
     c10:	00178793          	addi	a5,a5,1
     c14:	fff7ce03          	lbu	t3,-1(a5)
     c18:	01c80023          	sb	t3,0(a6)
     c1c:	05378663          	beq	a5,s3,c68 <vprintfmt.constprop.1+0x82c>
     c20:	0007c703          	lbu	a4,0(a5)
     c24:	00878793          	addi	a5,a5,8
     c28:	00e80023          	sb	a4,0(a6)
     c2c:	ff97cf83          	lbu	t6,-7(a5)
     c30:	01f80023          	sb	t6,0(a6)
     c34:	ffa7c083          	lbu	ra,-6(a5)
     c38:	00180023          	sb	ra,0(a6)
     c3c:	ffb7c283          	lbu	t0,-5(a5)
     c40:	00580023          	sb	t0,0(a6)
     c44:	ffc7c683          	lbu	a3,-4(a5)
     c48:	00d80023          	sb	a3,0(a6)
     c4c:	ffd7c383          	lbu	t2,-3(a5)
     c50:	00780023          	sb	t2,0(a6)
     c54:	ffe7c583          	lbu	a1,-2(a5)
     c58:	00b80023          	sb	a1,0(a6)
     c5c:	fff7cb03          	lbu	s6,-1(a5)
     c60:	01680023          	sb	s6,0(a6)
     c64:	fb379ee3          	bne	a5,s3,c20 <vprintfmt.constprop.1+0x7e4>
     c68:	04022023          	sw	zero,64(tp) # 40 <buflen.1744>
     c6c:	00812903          	lw	s2,8(sp)
     c70:	06100893          	li	a7,97
     c74:	01000c93          	li	s9,16
     c78:	00000d13          	li	s10,0
     c7c:	01112623          	sw	a7,12(sp)
     c80:	00092903          	lw	s2,0(s2)
     c84:	00000b13          	li	s6,0
     c88:	00c12423          	sw	a2,8(sp)
     c8c:	a25ff06f          	j	6b0 <vprintfmt.constprop.1+0x274>
     c90:	00812503          	lw	a0,8(sp)
     c94:	00052a03          	lw	s4,0(a0)
     c98:	00450913          	addi	s2,a0,4
     c9c:	700a0663          	beqz	s4,13a8 <vprintfmt.constprop.1+0xf6c>
     ca0:	5f805263          	blez	s8,1284 <vprintfmt.constprop.1+0xe48>
     ca4:	02d00613          	li	a2,45
     ca8:	72cb9c63          	bne	s7,a2,13e0 <vprintfmt.constprop.1+0xfa4>
     cac:	000a4b83          	lbu	s7,0(s4)
     cb0:	000b8e93          	mv	t4,s7
     cb4:	040b8663          	beqz	s7,d00 <vprintfmt.constprop.1+0x8c4>
     cb8:	fff00f13          	li	t5,-1
     cbc:	00a00c93          	li	s9,10
     cc0:	f0000d37          	lui	s10,0xf0000
     cc4:	04000313          	li	t1,64
     cc8:	5a04d663          	bgez	s1,1274 <vprintfmt.constprop.1+0xe38>
     ccc:	04022503          	lw	a0,64(tp) # 40 <buflen.1744>
     cd0:	00150713          	addi	a4,a0,1
     cd4:	00aa8633          	add	a2,s5,a0
     cd8:	04e22023          	sw	a4,64(tp) # 40 <buflen.1744>
     cdc:	01760023          	sb	s7,0(a2)
     ce0:	499e8263          	beq	t4,s9,1164 <vprintfmt.constprop.1+0xd28>
     ce4:	48670263          	beq	a4,t1,1168 <vprintfmt.constprop.1+0xd2c>
     ce8:	001a0a13          	addi	s4,s4,1
     cec:	000a4b83          	lbu	s7,0(s4)
     cf0:	fffc0c13          	addi	s8,s8,-1
     cf4:	000b8e93          	mv	t4,s7
     cf8:	fc0b98e3          	bnez	s7,cc8 <vprintfmt.constprop.1+0x88c>
     cfc:	db8050e3          	blez	s8,a9c <vprintfmt.constprop.1+0x660>
     d00:	04022883          	lw	a7,64(tp) # 40 <buflen.1744>
     d04:	02000a13          	li	s4,32
     d08:	04000f13          	li	t5,64
     d0c:	f0000cb7          	lui	s9,0xf0000
     d10:	00c0006f          	j	d1c <vprintfmt.constprop.1+0x8e0>
     d14:	fffc0c13          	addi	s8,s8,-1
     d18:	d80c02e3          	beqz	s8,a9c <vprintfmt.constprop.1+0x660>
     d1c:	00188d13          	addi	s10,a7,1
     d20:	011a8333          	add	t1,s5,a7
     d24:	05a22023          	sw	s10,64(tp) # 40 <buflen.1744>
     d28:	01430023          	sb	s4,0(t1)
     d2c:	000d0893          	mv	a7,s10
     d30:	ffed12e3          	bne	s10,t5,d14 <vprintfmt.constprop.1+0x8d8>
     d34:	415984b3          	sub	s1,s3,s5
     d38:	0074fb93          	andi	s7,s1,7
     d3c:	000a8793          	mv	a5,s5
     d40:	1a0b8663          	beqz	s7,eec <vprintfmt.constprop.1+0xab0>
     d44:	00100e93          	li	t4,1
     d48:	07db8463          	beq	s7,t4,db0 <vprintfmt.constprop.1+0x974>
     d4c:	00200513          	li	a0,2
     d50:	04ab8a63          	beq	s7,a0,da4 <vprintfmt.constprop.1+0x968>
     d54:	00300613          	li	a2,3
     d58:	04cb8063          	beq	s7,a2,d98 <vprintfmt.constprop.1+0x95c>
     d5c:	00400893          	li	a7,4
     d60:	031b8663          	beq	s7,a7,d8c <vprintfmt.constprop.1+0x950>
     d64:	00500e13          	li	t3,5
     d68:	01cb8c63          	beq	s7,t3,d80 <vprintfmt.constprop.1+0x944>
     d6c:	00600713          	li	a4,6
     d70:	64eb9c63          	bne	s7,a4,13c8 <vprintfmt.constprop.1+0xf8c>
     d74:	0007c083          	lbu	ra,0(a5)
     d78:	00178793          	addi	a5,a5,1
     d7c:	001c8023          	sb	ra,0(s9) # f0000000 <__C_STACK_TOP__+0xefff0000>
     d80:	0007c283          	lbu	t0,0(a5)
     d84:	00178793          	addi	a5,a5,1
     d88:	005c8023          	sb	t0,0(s9)
     d8c:	0007c683          	lbu	a3,0(a5)
     d90:	00178793          	addi	a5,a5,1
     d94:	00dc8023          	sb	a3,0(s9)
     d98:	0007c383          	lbu	t2,0(a5)
     d9c:	00178793          	addi	a5,a5,1
     da0:	007c8023          	sb	t2,0(s9)
     da4:	0007c583          	lbu	a1,0(a5)
     da8:	00178793          	addi	a5,a5,1
     dac:	00bc8023          	sb	a1,0(s9)
     db0:	00178793          	addi	a5,a5,1
     db4:	fff7c803          	lbu	a6,-1(a5)
     db8:	010c8023          	sb	a6,0(s9)
     dbc:	13379863          	bne	a5,s3,eec <vprintfmt.constprop.1+0xab0>
     dc0:	04022023          	sw	zero,64(tp) # 40 <buflen.1744>
     dc4:	00000893          	li	a7,0
     dc8:	f4dff06f          	j	d14 <vprintfmt.constprop.1+0x8d8>
     dcc:	00a00c93          	li	s9,10
     dd0:	00000d13          	li	s10,0
     dd4:	8b9ff06f          	j	68c <vprintfmt.constprop.1+0x250>
     dd8:	04022d83          	lw	s11,64(tp) # 40 <buflen.1744>
     ddc:	02500613          	li	a2,37
     de0:	04000f13          	li	t5,64
     de4:	001d8813          	addi	a6,s11,1
     de8:	01ba82b3          	add	t0,s5,s11
     dec:	05022023          	sw	a6,64(tp) # 40 <buflen.1744>
     df0:	00c28023          	sb	a2,0(t0)
     df4:	00030d93          	mv	s11,t1
     df8:	e9e81e63          	bne	a6,t5,494 <vprintfmt.constprop.1+0x58>
     dfc:	41598cb3          	sub	s9,s3,s5
     e00:	007cf493          	andi	s1,s9,7
     e04:	000a8793          	mv	a5,s5
     e08:	f0000737          	lui	a4,0xf0000
     e0c:	08048663          	beqz	s1,e98 <vprintfmt.constprop.1+0xa5c>
     e10:	00100e93          	li	t4,1
     e14:	07d48a63          	beq	s1,t4,e88 <vprintfmt.constprop.1+0xa4c>
     e18:	00200593          	li	a1,2
     e1c:	06b48063          	beq	s1,a1,e7c <vprintfmt.constprop.1+0xa40>
     e20:	00300513          	li	a0,3
     e24:	04a48663          	beq	s1,a0,e70 <vprintfmt.constprop.1+0xa34>
     e28:	00400b13          	li	s6,4
     e2c:	03648c63          	beq	s1,s6,e64 <vprintfmt.constprop.1+0xa28>
     e30:	00500a13          	li	s4,5
     e34:	03448263          	beq	s1,s4,e58 <vprintfmt.constprop.1+0xa1c>
     e38:	00600d13          	li	s10,6
     e3c:	01a48863          	beq	s1,s10,e4c <vprintfmt.constprop.1+0xa10>
     e40:	000ac683          	lbu	a3,0(s5)
     e44:	001a8793          	addi	a5,s5,1
     e48:	00d70023          	sb	a3,0(a4) # f0000000 <__C_STACK_TOP__+0xefff0000>
     e4c:	0007c883          	lbu	a7,0(a5)
     e50:	00178793          	addi	a5,a5,1
     e54:	01170023          	sb	a7,0(a4)
     e58:	0007c083          	lbu	ra,0(a5)
     e5c:	00178793          	addi	a5,a5,1
     e60:	00170023          	sb	ra,0(a4)
     e64:	0007cc03          	lbu	s8,0(a5)
     e68:	00178793          	addi	a5,a5,1
     e6c:	01870023          	sb	s8,0(a4)
     e70:	0007cb83          	lbu	s7,0(a5)
     e74:	00178793          	addi	a5,a5,1
     e78:	01770023          	sb	s7,0(a4)
     e7c:	0007c903          	lbu	s2,0(a5)
     e80:	00178793          	addi	a5,a5,1
     e84:	01270023          	sb	s2,0(a4)
     e88:	00178793          	addi	a5,a5,1
     e8c:	fff7ce03          	lbu	t3,-1(a5)
     e90:	01c70023          	sb	t3,0(a4)
     e94:	05378663          	beq	a5,s3,ee0 <vprintfmt.constprop.1+0xaa4>
     e98:	0007c383          	lbu	t2,0(a5)
     e9c:	00878793          	addi	a5,a5,8
     ea0:	00770023          	sb	t2,0(a4)
     ea4:	ff97cf83          	lbu	t6,-7(a5)
     ea8:	01f70023          	sb	t6,0(a4)
     eac:	ffa7cd83          	lbu	s11,-6(a5)
     eb0:	01b70023          	sb	s11,0(a4)
     eb4:	ffb7cf03          	lbu	t5,-5(a5)
     eb8:	01e70023          	sb	t5,0(a4)
     ebc:	ffc7c803          	lbu	a6,-4(a5)
     ec0:	01070023          	sb	a6,0(a4)
     ec4:	ffd7c283          	lbu	t0,-3(a5)
     ec8:	00570023          	sb	t0,0(a4)
     ecc:	ffe7c603          	lbu	a2,-2(a5)
     ed0:	00c70023          	sb	a2,0(a4)
     ed4:	fff7cc83          	lbu	s9,-1(a5)
     ed8:	01970023          	sb	s9,0(a4)
     edc:	fb379ee3          	bne	a5,s3,e98 <vprintfmt.constprop.1+0xa5c>
     ee0:	04022023          	sw	zero,64(tp) # 40 <buflen.1744>
     ee4:	00030d93          	mv	s11,t1
     ee8:	dacff06f          	j	494 <vprintfmt.constprop.1+0x58>
     eec:	0007cb03          	lbu	s6,0(a5)
     ef0:	00878793          	addi	a5,a5,8
     ef4:	016c8023          	sb	s6,0(s9)
     ef8:	ff97cd03          	lbu	s10,-7(a5)
     efc:	01ac8023          	sb	s10,0(s9)
     f00:	ffa7c303          	lbu	t1,-6(a5)
     f04:	006c8023          	sb	t1,0(s9)
     f08:	ffb7c483          	lbu	s1,-5(a5)
     f0c:	009c8023          	sb	s1,0(s9)
     f10:	ffc7cb83          	lbu	s7,-4(a5)
     f14:	017c8023          	sb	s7,0(s9)
     f18:	ffd7ce83          	lbu	t4,-3(a5)
     f1c:	01dc8023          	sb	t4,0(s9)
     f20:	ffe7c503          	lbu	a0,-2(a5)
     f24:	00ac8023          	sb	a0,0(s9)
     f28:	fff7c603          	lbu	a2,-1(a5)
     f2c:	00cc8023          	sb	a2,0(s9)
     f30:	fb379ee3          	bne	a5,s3,eec <vprintfmt.constprop.1+0xab0>
     f34:	e8dff06f          	j	dc0 <vprintfmt.constprop.1+0x984>
     f38:	10f05663          	blez	a5,1044 <vprintfmt.constprop.1+0xc08>
     f3c:	00412083          	lw	ra,4(sp)
     f40:	0077fe13          	andi	t3,a5,7
     f44:	f00002b7          	lui	t0,0xf0000
     f48:	00020713          	mv	a4,tp
     f4c:	fff78393          	addi	t2,a5,-1
     f50:	0a0e0463          	beqz	t3,ff8 <vprintfmt.constprop.1+0xbbc>
     f54:	00100813          	li	a6,1
     f58:	090e0663          	beq	t3,a6,fe4 <vprintfmt.constprop.1+0xba8>
     f5c:	00200693          	li	a3,2
     f60:	06de0a63          	beq	t3,a3,fd4 <vprintfmt.constprop.1+0xb98>
     f64:	00300d13          	li	s10,3
     f68:	05ae0e63          	beq	t3,s10,fc4 <vprintfmt.constprop.1+0xb88>
     f6c:	00400593          	li	a1,4
     f70:	04be0263          	beq	t3,a1,fb4 <vprintfmt.constprop.1+0xb78>
     f74:	00500493          	li	s1,5
     f78:	029e0663          	beq	t3,s1,fa4 <vprintfmt.constprop.1+0xb68>
     f7c:	00600e93          	li	t4,6
     f80:	01de0a63          	beq	t3,t4,f94 <vprintfmt.constprop.1+0xb58>
     f84:	00074503          	lbu	a0,0(a4)
     f88:	00038793          	mv	a5,t2
     f8c:	00170713          	addi	a4,a4,1
     f90:	00a28023          	sb	a0,0(t0) # f0000000 <__C_STACK_TOP__+0xefff0000>
     f94:	00074883          	lbu	a7,0(a4)
     f98:	fff78793          	addi	a5,a5,-1
     f9c:	00170713          	addi	a4,a4,1
     fa0:	01128023          	sb	a7,0(t0)
     fa4:	00074603          	lbu	a2,0(a4)
     fa8:	fff78793          	addi	a5,a5,-1
     fac:	00170713          	addi	a4,a4,1
     fb0:	00c28023          	sb	a2,0(t0)
     fb4:	00074f83          	lbu	t6,0(a4)
     fb8:	fff78793          	addi	a5,a5,-1
     fbc:	00170713          	addi	a4,a4,1
     fc0:	01f28023          	sb	t6,0(t0)
     fc4:	00074b03          	lbu	s6,0(a4)
     fc8:	fff78793          	addi	a5,a5,-1
     fcc:	00170713          	addi	a4,a4,1
     fd0:	01628023          	sb	s6,0(t0)
     fd4:	00074c03          	lbu	s8,0(a4)
     fd8:	fff78793          	addi	a5,a5,-1
     fdc:	00170713          	addi	a4,a4,1
     fe0:	01828023          	sb	s8,0(t0)
     fe4:	00170713          	addi	a4,a4,1
     fe8:	fff74b83          	lbu	s7,-1(a4)
     fec:	fff78793          	addi	a5,a5,-1
     ff0:	01728023          	sb	s7,0(t0)
     ff4:	04078863          	beqz	a5,1044 <vprintfmt.constprop.1+0xc08>
     ff8:	00074303          	lbu	t1,0(a4)
     ffc:	00870713          	addi	a4,a4,8
    1000:	ff878793          	addi	a5,a5,-8
    1004:	00628023          	sb	t1,0(t0)
    1008:	ff974f03          	lbu	t5,-7(a4)
    100c:	01e28023          	sb	t5,0(t0)
    1010:	ffa74a03          	lbu	s4,-6(a4)
    1014:	01428023          	sb	s4,0(t0)
    1018:	ffb74c83          	lbu	s9,-5(a4)
    101c:	01928023          	sb	s9,0(t0)
    1020:	ffc74e03          	lbu	t3,-4(a4)
    1024:	01c28023          	sb	t3,0(t0)
    1028:	ffd74083          	lbu	ra,-3(a4)
    102c:	00128023          	sb	ra,0(t0)
    1030:	ffe74383          	lbu	t2,-2(a4)
    1034:	00728023          	sb	t2,0(t0)
    1038:	fff74803          	lbu	a6,-1(a4)
    103c:	01028023          	sb	a6,0(t0)
    1040:	fa079ce3          	bnez	a5,ff8 <vprintfmt.constprop.1+0xbbc>
    1044:	04022023          	sw	zero,64(tp) # 40 <buflen.1744>
    1048:	01212423          	sw	s2,8(sp)
    104c:	c48ff06f          	j	494 <vprintfmt.constprop.1+0x58>
    1050:	10d05463          	blez	a3,1158 <vprintfmt.constprop.1+0xd1c>
    1054:	00412483          	lw	s1,4(sp)
    1058:	0076f593          	andi	a1,a3,7
    105c:	fff68e93          	addi	t4,a3,-1
    1060:	00020713          	mv	a4,tp
    1064:	0a058463          	beqz	a1,110c <vprintfmt.constprop.1+0xcd0>
    1068:	00100513          	li	a0,1
    106c:	08a58663          	beq	a1,a0,10f8 <vprintfmt.constprop.1+0xcbc>
    1070:	00200913          	li	s2,2
    1074:	07258a63          	beq	a1,s2,10e8 <vprintfmt.constprop.1+0xcac>
    1078:	00300b13          	li	s6,3
    107c:	05658e63          	beq	a1,s6,10d8 <vprintfmt.constprop.1+0xc9c>
    1080:	00400a13          	li	s4,4
    1084:	05458263          	beq	a1,s4,10c8 <vprintfmt.constprop.1+0xc8c>
    1088:	00500d13          	li	s10,5
    108c:	03a58663          	beq	a1,s10,10b8 <vprintfmt.constprop.1+0xc7c>
    1090:	00600893          	li	a7,6
    1094:	01158a63          	beq	a1,a7,10a8 <vprintfmt.constprop.1+0xc6c>
    1098:	00074f83          	lbu	t6,0(a4)
    109c:	000e8693          	mv	a3,t4
    10a0:	00170713          	addi	a4,a4,1
    10a4:	01fc8023          	sb	t6,0(s9)
    10a8:	00074c03          	lbu	s8,0(a4)
    10ac:	fff68693          	addi	a3,a3,-1
    10b0:	00170713          	addi	a4,a4,1
    10b4:	018c8023          	sb	s8,0(s9)
    10b8:	00074f03          	lbu	t5,0(a4)
    10bc:	fff68693          	addi	a3,a3,-1
    10c0:	00170713          	addi	a4,a4,1
    10c4:	01ec8023          	sb	t5,0(s9)
    10c8:	00074803          	lbu	a6,0(a4)
    10cc:	fff68693          	addi	a3,a3,-1
    10d0:	00170713          	addi	a4,a4,1
    10d4:	010c8023          	sb	a6,0(s9)
    10d8:	00074283          	lbu	t0,0(a4)
    10dc:	fff68693          	addi	a3,a3,-1
    10e0:	00170713          	addi	a4,a4,1
    10e4:	005c8023          	sb	t0,0(s9)
    10e8:	00074603          	lbu	a2,0(a4)
    10ec:	fff68693          	addi	a3,a3,-1
    10f0:	00170713          	addi	a4,a4,1
    10f4:	00cc8023          	sb	a2,0(s9)
    10f8:	00170713          	addi	a4,a4,1
    10fc:	fff74583          	lbu	a1,-1(a4)
    1100:	fff68693          	addi	a3,a3,-1
    1104:	00bc8023          	sb	a1,0(s9)
    1108:	04068863          	beqz	a3,1158 <vprintfmt.constprop.1+0xd1c>
    110c:	00074483          	lbu	s1,0(a4)
    1110:	00870713          	addi	a4,a4,8
    1114:	ff868693          	addi	a3,a3,-8
    1118:	009c8023          	sb	s1,0(s9)
    111c:	ff974e83          	lbu	t4,-7(a4)
    1120:	01dc8023          	sb	t4,0(s9)
    1124:	ffa74503          	lbu	a0,-6(a4)
    1128:	00ac8023          	sb	a0,0(s9)
    112c:	ffb74903          	lbu	s2,-5(a4)
    1130:	012c8023          	sb	s2,0(s9)
    1134:	ffc74b03          	lbu	s6,-4(a4)
    1138:	016c8023          	sb	s6,0(s9)
    113c:	ffd74a03          	lbu	s4,-3(a4)
    1140:	014c8023          	sb	s4,0(s9)
    1144:	ffe74d03          	lbu	s10,-2(a4)
    1148:	01ac8023          	sb	s10,0(s9)
    114c:	fff74883          	lbu	a7,-1(a4)
    1150:	011c8023          	sb	a7,0(s9)
    1154:	fa069ce3          	bnez	a3,110c <vprintfmt.constprop.1+0xcd0>
    1158:	04022023          	sw	zero,64(tp) # 40 <buflen.1744>
    115c:	ffc78793          	addi	a5,a5,-4
    1160:	e08ff06f          	j	768 <vprintfmt.constprop.1+0x32c>
    1164:	10e05463          	blez	a4,126c <vprintfmt.constprop.1+0xe30>
    1168:	00412e03          	lw	t3,4(sp)
    116c:	00777893          	andi	a7,a4,7
    1170:	fff70f93          	addi	t6,a4,-1
    1174:	00020793          	mv	a5,tp
    1178:	0a088463          	beqz	a7,1220 <vprintfmt.constprop.1+0xde4>
    117c:	00100093          	li	ra,1
    1180:	08188663          	beq	a7,ra,120c <vprintfmt.constprop.1+0xdd0>
    1184:	00200293          	li	t0,2
    1188:	06588a63          	beq	a7,t0,11fc <vprintfmt.constprop.1+0xdc0>
    118c:	00300693          	li	a3,3
    1190:	04d88e63          	beq	a7,a3,11ec <vprintfmt.constprop.1+0xdb0>
    1194:	00400393          	li	t2,4
    1198:	04788263          	beq	a7,t2,11dc <vprintfmt.constprop.1+0xda0>
    119c:	00500593          	li	a1,5
    11a0:	02b88663          	beq	a7,a1,11cc <vprintfmt.constprop.1+0xd90>
    11a4:	00600813          	li	a6,6
    11a8:	01088a63          	beq	a7,a6,11bc <vprintfmt.constprop.1+0xd80>
    11ac:	0007cb03          	lbu	s6,0(a5)
    11b0:	000f8713          	mv	a4,t6
    11b4:	00178793          	addi	a5,a5,1
    11b8:	016d0023          	sb	s6,0(s10) # f0000000 <__C_STACK_TOP__+0xefff0000>
    11bc:	0007cb83          	lbu	s7,0(a5)
    11c0:	fff70713          	addi	a4,a4,-1
    11c4:	00178793          	addi	a5,a5,1
    11c8:	017d0023          	sb	s7,0(s10)
    11cc:	0007ce83          	lbu	t4,0(a5)
    11d0:	fff70713          	addi	a4,a4,-1
    11d4:	00178793          	addi	a5,a5,1
    11d8:	01dd0023          	sb	t4,0(s10)
    11dc:	0007c503          	lbu	a0,0(a5)
    11e0:	fff70713          	addi	a4,a4,-1
    11e4:	00178793          	addi	a5,a5,1
    11e8:	00ad0023          	sb	a0,0(s10)
    11ec:	0007c603          	lbu	a2,0(a5)
    11f0:	fff70713          	addi	a4,a4,-1
    11f4:	00178793          	addi	a5,a5,1
    11f8:	00cd0023          	sb	a2,0(s10)
    11fc:	0007c883          	lbu	a7,0(a5)
    1200:	fff70713          	addi	a4,a4,-1
    1204:	00178793          	addi	a5,a5,1
    1208:	011d0023          	sb	a7,0(s10)
    120c:	00178793          	addi	a5,a5,1
    1210:	fff7ce03          	lbu	t3,-1(a5)
    1214:	fff70713          	addi	a4,a4,-1
    1218:	01cd0023          	sb	t3,0(s10)
    121c:	04070863          	beqz	a4,126c <vprintfmt.constprop.1+0xe30>
    1220:	0007cf83          	lbu	t6,0(a5)
    1224:	00878793          	addi	a5,a5,8
    1228:	ff870713          	addi	a4,a4,-8
    122c:	01fd0023          	sb	t6,0(s10)
    1230:	ff97c083          	lbu	ra,-7(a5)
    1234:	001d0023          	sb	ra,0(s10)
    1238:	ffa7c283          	lbu	t0,-6(a5)
    123c:	005d0023          	sb	t0,0(s10)
    1240:	ffb7c683          	lbu	a3,-5(a5)
    1244:	00dd0023          	sb	a3,0(s10)
    1248:	ffc7c383          	lbu	t2,-4(a5)
    124c:	007d0023          	sb	t2,0(s10)
    1250:	ffd7c583          	lbu	a1,-3(a5)
    1254:	00bd0023          	sb	a1,0(s10)
    1258:	ffe7c803          	lbu	a6,-2(a5)
    125c:	010d0023          	sb	a6,0(s10)
    1260:	fff7cb03          	lbu	s6,-1(a5)
    1264:	016d0023          	sb	s6,0(s10)
    1268:	fa071ce3          	bnez	a4,1220 <vprintfmt.constprop.1+0xde4>
    126c:	04022023          	sw	zero,64(tp) # 40 <buflen.1744>
    1270:	a79ff06f          	j	ce8 <vprintfmt.constprop.1+0x8ac>
    1274:	fff48493          	addi	s1,s1,-1
    1278:	a5e49ae3          	bne	s1,t5,ccc <vprintfmt.constprop.1+0x890>
    127c:	a81ff06f          	j	cfc <vprintfmt.constprop.1+0x8c0>
    1280:	00000c13          	li	s8,0
    1284:	000a4b83          	lbu	s7,0(s4)
    1288:	000b8e93          	mv	t4,s7
    128c:	a20b96e3          	bnez	s7,cb8 <vprintfmt.constprop.1+0x87c>
    1290:	80dff06f          	j	a9c <vprintfmt.constprop.1+0x660>
    1294:	41598833          	sub	a6,s3,s5
    1298:	05922023          	sw	s9,64(tp) # 40 <buflen.1744>
    129c:	00787d13          	andi	s10,a6,7
    12a0:	000a8793          	mv	a5,s5
    12a4:	f0000337          	lui	t1,0xf0000
    12a8:	080d0663          	beqz	s10,1334 <vprintfmt.constprop.1+0xef8>
    12ac:	00100493          	li	s1,1
    12b0:	069d0a63          	beq	s10,s1,1324 <vprintfmt.constprop.1+0xee8>
    12b4:	00200e93          	li	t4,2
    12b8:	07dd0063          	beq	s10,t4,1318 <vprintfmt.constprop.1+0xedc>
    12bc:	00300513          	li	a0,3
    12c0:	04ad0663          	beq	s10,a0,130c <vprintfmt.constprop.1+0xed0>
    12c4:	00400893          	li	a7,4
    12c8:	031d0c63          	beq	s10,a7,1300 <vprintfmt.constprop.1+0xec4>
    12cc:	00500913          	li	s2,5
    12d0:	032d0263          	beq	s10,s2,12f4 <vprintfmt.constprop.1+0xeb8>
    12d4:	00600a13          	li	s4,6
    12d8:	014d0863          	beq	s10,s4,12e8 <vprintfmt.constprop.1+0xeac>
    12dc:	000acf03          	lbu	t5,0(s5)
    12e0:	001a8793          	addi	a5,s5,1
    12e4:	01e30023          	sb	t5,0(t1) # f0000000 <__C_STACK_TOP__+0xefff0000>
    12e8:	0007cc83          	lbu	s9,0(a5)
    12ec:	00178793          	addi	a5,a5,1
    12f0:	01930023          	sb	s9,0(t1)
    12f4:	0007ce03          	lbu	t3,0(a5)
    12f8:	00178793          	addi	a5,a5,1
    12fc:	01c30023          	sb	t3,0(t1)
    1300:	0007c703          	lbu	a4,0(a5)
    1304:	00178793          	addi	a5,a5,1
    1308:	00e30023          	sb	a4,0(t1)
    130c:	0007cf83          	lbu	t6,0(a5)
    1310:	00178793          	addi	a5,a5,1
    1314:	01f30023          	sb	t6,0(t1)
    1318:	0007c083          	lbu	ra,0(a5)
    131c:	00178793          	addi	a5,a5,1
    1320:	00130023          	sb	ra,0(t1)
    1324:	00178793          	addi	a5,a5,1
    1328:	fff7c283          	lbu	t0,-1(a5)
    132c:	00530023          	sb	t0,0(t1)
    1330:	05378663          	beq	a5,s3,137c <vprintfmt.constprop.1+0xf40>
    1334:	0007c683          	lbu	a3,0(a5)
    1338:	00878793          	addi	a5,a5,8
    133c:	00d30023          	sb	a3,0(t1)
    1340:	ff97c383          	lbu	t2,-7(a5)
    1344:	00730023          	sb	t2,0(t1)
    1348:	ffa7c583          	lbu	a1,-6(a5)
    134c:	00b30023          	sb	a1,0(t1)
    1350:	ffb7cb03          	lbu	s6,-5(a5)
    1354:	01630023          	sb	s6,0(t1)
    1358:	ffc7c803          	lbu	a6,-4(a5)
    135c:	01030023          	sb	a6,0(t1)
    1360:	ffd7cd03          	lbu	s10,-3(a5)
    1364:	01a30023          	sb	s10,0(t1)
    1368:	ffe7c483          	lbu	s1,-2(a5)
    136c:	00930023          	sb	s1,0(t1)
    1370:	fff7ce83          	lbu	t4,-1(a5)
    1374:	01d30023          	sb	t4,0(t1)
    1378:	fb379ee3          	bne	a5,s3,1334 <vprintfmt.constprop.1+0xef8>
    137c:	00100313          	li	t1,1
    1380:	07800513          	li	a0,120
    1384:	04622023          	sw	t1,64(tp) # 40 <buflen.1744>
    1388:	00aa8023          	sb	a0,0(s5)
    138c:	8e1ff06f          	j	c6c <vprintfmt.constprop.1+0x830>
    1390:	00812c83          	lw	s9,8(sp)
    1394:	000caf83          	lw	t6,0(s9)
    1398:	004c8e13          	addi	t3,s9,4
    139c:	01c12423          	sw	t3,8(sp)
    13a0:	41ffdb13          	srai	s6,t6,0x1f
    13a4:	f24ff06f          	j	ac8 <vprintfmt.constprop.1+0x68c>
    13a8:	01805663          	blez	s8,13b4 <vprintfmt.constprop.1+0xf78>
    13ac:	02d00893          	li	a7,45
    13b0:	031b9463          	bne	s7,a7,13d8 <vprintfmt.constprop.1+0xf9c>
    13b4:	00004bb7          	lui	s7,0x4
    13b8:	888b8a13          	addi	s4,s7,-1912 # 3888 <__clz_tab+0x110>
    13bc:	02800e93          	li	t4,40
    13c0:	02800b93          	li	s7,40
    13c4:	8f5ff06f          	j	cb8 <vprintfmt.constprop.1+0x87c>
    13c8:	000acf83          	lbu	t6,0(s5)
    13cc:	001a8793          	addi	a5,s5,1
    13d0:	01fc8023          	sb	t6,0(s9)
    13d4:	9a1ff06f          	j	d74 <vprintfmt.constprop.1+0x938>
    13d8:	00004e37          	lui	t3,0x4
    13dc:	888e0a13          	addi	s4,t3,-1912 # 3888 <__clz_tab+0x110>
    13e0:	00048593          	mv	a1,s1
    13e4:	000a0513          	mv	a0,s4
    13e8:	574010ef          	jal	ra,295c <strnlen>
    13ec:	40ac0c33          	sub	s8,s8,a0
    13f0:	e9805ae3          	blez	s8,1284 <vprintfmt.constprop.1+0xe48>
    13f4:	04022b03          	lw	s6,64(tp) # 40 <buflen.1744>
    13f8:	04000e93          	li	t4,64
    13fc:	f0000f37          	lui	t5,0xf0000
    1400:	00c0006f          	j	140c <vprintfmt.constprop.1+0xfd0>
    1404:	fffc0c13          	addi	s8,s8,-1
    1408:	e60c0ce3          	beqz	s8,1280 <vprintfmt.constprop.1+0xe44>
    140c:	001b0f93          	addi	t6,s6,1
    1410:	016a87b3          	add	a5,s5,s6
    1414:	05f22023          	sw	t6,64(tp) # 40 <buflen.1744>
    1418:	01778023          	sb	s7,0(a5)
    141c:	000f8b13          	mv	s6,t6
    1420:	ffdf92e3          	bne	t6,t4,1404 <vprintfmt.constprop.1+0xfc8>
    1424:	415980b3          	sub	ra,s3,s5
    1428:	0070f293          	andi	t0,ra,7
    142c:	000a8e13          	mv	t3,s5
    1430:	08028663          	beqz	t0,14bc <vprintfmt.constprop.1+0x1080>
    1434:	00100713          	li	a4,1
    1438:	06e28a63          	beq	t0,a4,14ac <vprintfmt.constprop.1+0x1070>
    143c:	00200693          	li	a3,2
    1440:	06d28063          	beq	t0,a3,14a0 <vprintfmt.constprop.1+0x1064>
    1444:	00300393          	li	t2,3
    1448:	04728663          	beq	t0,t2,1494 <vprintfmt.constprop.1+0x1058>
    144c:	00400593          	li	a1,4
    1450:	02b28c63          	beq	t0,a1,1488 <vprintfmt.constprop.1+0x104c>
    1454:	00500813          	li	a6,5
    1458:	03028263          	beq	t0,a6,147c <vprintfmt.constprop.1+0x1040>
    145c:	00600b13          	li	s6,6
    1460:	01628863          	beq	t0,s6,1470 <vprintfmt.constprop.1+0x1034>
    1464:	000acc83          	lbu	s9,0(s5)
    1468:	001a8e13          	addi	t3,s5,1
    146c:	019f0023          	sb	s9,0(t5) # f0000000 <__C_STACK_TOP__+0xefff0000>
    1470:	000e4d03          	lbu	s10,0(t3)
    1474:	001e0e13          	addi	t3,t3,1
    1478:	01af0023          	sb	s10,0(t5)
    147c:	000e4303          	lbu	t1,0(t3)
    1480:	001e0e13          	addi	t3,t3,1
    1484:	006f0023          	sb	t1,0(t5)
    1488:	000e4503          	lbu	a0,0(t3)
    148c:	001e0e13          	addi	t3,t3,1
    1490:	00af0023          	sb	a0,0(t5)
    1494:	000e4603          	lbu	a2,0(t3)
    1498:	001e0e13          	addi	t3,t3,1
    149c:	00cf0023          	sb	a2,0(t5)
    14a0:	000e4883          	lbu	a7,0(t3)
    14a4:	001e0e13          	addi	t3,t3,1
    14a8:	011f0023          	sb	a7,0(t5)
    14ac:	001e0e13          	addi	t3,t3,1
    14b0:	fffe4f83          	lbu	t6,-1(t3)
    14b4:	01ff0023          	sb	t6,0(t5)
    14b8:	053e0663          	beq	t3,s3,1504 <vprintfmt.constprop.1+0x10c8>
    14bc:	000e4783          	lbu	a5,0(t3)
    14c0:	008e0e13          	addi	t3,t3,8
    14c4:	00ff0023          	sb	a5,0(t5)
    14c8:	ff9e4083          	lbu	ra,-7(t3)
    14cc:	001f0023          	sb	ra,0(t5)
    14d0:	ffae4283          	lbu	t0,-6(t3)
    14d4:	005f0023          	sb	t0,0(t5)
    14d8:	ffbe4703          	lbu	a4,-5(t3)
    14dc:	00ef0023          	sb	a4,0(t5)
    14e0:	ffce4683          	lbu	a3,-4(t3)
    14e4:	00df0023          	sb	a3,0(t5)
    14e8:	ffde4383          	lbu	t2,-3(t3)
    14ec:	007f0023          	sb	t2,0(t5)
    14f0:	ffee4583          	lbu	a1,-2(t3)
    14f4:	00bf0023          	sb	a1,0(t5)
    14f8:	fffe4803          	lbu	a6,-1(t3)
    14fc:	010f0023          	sb	a6,0(t5)
    1500:	fb3e1ee3          	bne	t3,s3,14bc <vprintfmt.constprop.1+0x1080>
    1504:	04022023          	sw	zero,64(tp) # 40 <buflen.1744>
    1508:	00000b13          	li	s6,0
    150c:	ef9ff06f          	j	1404 <vprintfmt.constprop.1+0xfc8>
    1510:	415984b3          	sub	s1,s3,s5
    1514:	0074fe93          	andi	t4,s1,7
    1518:	000a8713          	mv	a4,s5
    151c:	f0000337          	lui	t1,0xf0000
    1520:	080e8663          	beqz	t4,15ac <vprintfmt.constprop.1+0x1170>
    1524:	00100513          	li	a0,1
    1528:	06ae8a63          	beq	t4,a0,159c <vprintfmt.constprop.1+0x1160>
    152c:	00200893          	li	a7,2
    1530:	071e8063          	beq	t4,a7,1590 <vprintfmt.constprop.1+0x1154>
    1534:	00300613          	li	a2,3
    1538:	04ce8663          	beq	t4,a2,1584 <vprintfmt.constprop.1+0x1148>
    153c:	00400913          	li	s2,4
    1540:	032e8c63          	beq	t4,s2,1578 <vprintfmt.constprop.1+0x113c>
    1544:	00500f13          	li	t5,5
    1548:	03ee8263          	beq	t4,t5,156c <vprintfmt.constprop.1+0x1130>
    154c:	00600a13          	li	s4,6
    1550:	014e8863          	beq	t4,s4,1560 <vprintfmt.constprop.1+0x1124>
    1554:	000acc83          	lbu	s9,0(s5)
    1558:	001a8713          	addi	a4,s5,1
    155c:	01930023          	sb	s9,0(t1) # f0000000 <__C_STACK_TOP__+0xefff0000>
    1560:	00074e03          	lbu	t3,0(a4)
    1564:	00170713          	addi	a4,a4,1
    1568:	01c30023          	sb	t3,0(t1)
    156c:	00074083          	lbu	ra,0(a4)
    1570:	00170713          	addi	a4,a4,1
    1574:	00130023          	sb	ra,0(t1)
    1578:	00074283          	lbu	t0,0(a4)
    157c:	00170713          	addi	a4,a4,1
    1580:	00530023          	sb	t0,0(t1)
    1584:	00074783          	lbu	a5,0(a4)
    1588:	00170713          	addi	a4,a4,1
    158c:	00f30023          	sb	a5,0(t1)
    1590:	00074383          	lbu	t2,0(a4)
    1594:	00170713          	addi	a4,a4,1
    1598:	00730023          	sb	t2,0(t1)
    159c:	00170713          	addi	a4,a4,1
    15a0:	fff74803          	lbu	a6,-1(a4)
    15a4:	01030023          	sb	a6,0(t1)
    15a8:	05370663          	beq	a4,s3,15f4 <vprintfmt.constprop.1+0x11b8>
    15ac:	00074683          	lbu	a3,0(a4)
    15b0:	00870713          	addi	a4,a4,8
    15b4:	00d30023          	sb	a3,0(t1)
    15b8:	ff974d03          	lbu	s10,-7(a4)
    15bc:	01a30023          	sb	s10,0(t1)
    15c0:	ffa74583          	lbu	a1,-6(a4)
    15c4:	00b30023          	sb	a1,0(t1)
    15c8:	ffb74483          	lbu	s1,-5(a4)
    15cc:	00930023          	sb	s1,0(t1)
    15d0:	ffc74e83          	lbu	t4,-4(a4)
    15d4:	01d30023          	sb	t4,0(t1)
    15d8:	ffd74503          	lbu	a0,-3(a4)
    15dc:	00a30023          	sb	a0,0(t1)
    15e0:	ffe74883          	lbu	a7,-2(a4)
    15e4:	01130023          	sb	a7,0(t1)
    15e8:	fff74603          	lbu	a2,-1(a4)
    15ec:	00c30023          	sb	a2,0(t1)
    15f0:	fb371ee3          	bne	a4,s3,15ac <vprintfmt.constprop.1+0x1170>
    15f4:	04022023          	sw	zero,64(tp) # 40 <buflen.1744>
    15f8:	cf4ff06f          	j	aec <vprintfmt.constprop.1+0x6b0>
    15fc:	000f8913          	mv	s2,t6
    1600:	00a00c93          	li	s9,10
    1604:	00000d13          	li	s10,0
    1608:	8a8ff06f          	j	6b0 <vprintfmt.constprop.1+0x274>

0000160c <sc_printf.constprop.0>:
    160c:	fc010113          	addi	sp,sp,-64
    1610:	02410313          	addi	t1,sp,36
    1614:	00030513          	mv	a0,t1
    1618:	00112e23          	sw	ra,28(sp)
    161c:	02b12223          	sw	a1,36(sp)
    1620:	02c12423          	sw	a2,40(sp)
    1624:	02d12623          	sw	a3,44(sp)
    1628:	02e12823          	sw	a4,48(sp)
    162c:	02f12a23          	sw	a5,52(sp)
    1630:	03012c23          	sw	a6,56(sp)
    1634:	03112e23          	sw	a7,60(sp)
    1638:	00612623          	sw	t1,12(sp)
    163c:	e01fe0ef          	jal	ra,43c <vprintfmt.constprop.1>
    1640:	01c12083          	lw	ra,28(sp)
    1644:	00000513          	li	a0,0
    1648:	04010113          	addi	sp,sp,64
    164c:	00008067          	ret

00001650 <putchar>:
    1650:	04022803          	lw	a6,64(tp) # 40 <buflen.1744>
    1654:	00020293          	mv	t0,tp
    1658:	00180713          	addi	a4,a6,1
    165c:	01028333          	add	t1,t0,a6
    1660:	04e22023          	sw	a4,64(tp) # 40 <buflen.1744>
    1664:	00a30023          	sb	a0,0(t1)
    1668:	00a00393          	li	t2,10
    166c:	00750a63          	beq	a0,t2,1680 <putchar+0x30>
    1670:	04000513          	li	a0,64
    1674:	00a70863          	beq	a4,a0,1684 <putchar+0x34>
    1678:	00000513          	li	a0,0
    167c:	00008067          	ret
    1680:	10e05463          	blez	a4,1788 <putchar+0x138>
    1684:	00777e13          	andi	t3,a4,7
    1688:	00020793          	mv	a5,tp
    168c:	f0000eb7          	lui	t4,0xf0000
    1690:	fff70f13          	addi	t5,a4,-1
    1694:	0a0e0463          	beqz	t3,173c <putchar+0xec>
    1698:	00100f93          	li	t6,1
    169c:	09fe0663          	beq	t3,t6,1728 <putchar+0xd8>
    16a0:	00200593          	li	a1,2
    16a4:	06be0a63          	beq	t3,a1,1718 <putchar+0xc8>
    16a8:	00300813          	li	a6,3
    16ac:	050e0e63          	beq	t3,a6,1708 <putchar+0xb8>
    16b0:	00400693          	li	a3,4
    16b4:	04de0263          	beq	t3,a3,16f8 <putchar+0xa8>
    16b8:	00500293          	li	t0,5
    16bc:	025e0663          	beq	t3,t0,16e8 <putchar+0x98>
    16c0:	00600313          	li	t1,6
    16c4:	006e0a63          	beq	t3,t1,16d8 <putchar+0x88>
    16c8:	0007c383          	lbu	t2,0(a5)
    16cc:	000f0713          	mv	a4,t5
    16d0:	00178793          	addi	a5,a5,1
    16d4:	007e8023          	sb	t2,0(t4) # f0000000 <__C_STACK_TOP__+0xefff0000>
    16d8:	0007c503          	lbu	a0,0(a5)
    16dc:	fff70713          	addi	a4,a4,-1
    16e0:	00178793          	addi	a5,a5,1
    16e4:	00ae8023          	sb	a0,0(t4)
    16e8:	0007c883          	lbu	a7,0(a5)
    16ec:	fff70713          	addi	a4,a4,-1
    16f0:	00178793          	addi	a5,a5,1
    16f4:	011e8023          	sb	a7,0(t4)
    16f8:	0007ce03          	lbu	t3,0(a5)
    16fc:	fff70713          	addi	a4,a4,-1
    1700:	00178793          	addi	a5,a5,1
    1704:	01ce8023          	sb	t3,0(t4)
    1708:	0007cf03          	lbu	t5,0(a5)
    170c:	fff70713          	addi	a4,a4,-1
    1710:	00178793          	addi	a5,a5,1
    1714:	01ee8023          	sb	t5,0(t4)
    1718:	0007cf83          	lbu	t6,0(a5)
    171c:	fff70713          	addi	a4,a4,-1
    1720:	00178793          	addi	a5,a5,1
    1724:	01fe8023          	sb	t6,0(t4)
    1728:	00178793          	addi	a5,a5,1
    172c:	fff7c583          	lbu	a1,-1(a5)
    1730:	fff70713          	addi	a4,a4,-1
    1734:	00be8023          	sb	a1,0(t4)
    1738:	04070863          	beqz	a4,1788 <putchar+0x138>
    173c:	0007c803          	lbu	a6,0(a5)
    1740:	00878793          	addi	a5,a5,8
    1744:	ff870713          	addi	a4,a4,-8
    1748:	010e8023          	sb	a6,0(t4)
    174c:	ff97c683          	lbu	a3,-7(a5)
    1750:	00de8023          	sb	a3,0(t4)
    1754:	ffa7c283          	lbu	t0,-6(a5)
    1758:	005e8023          	sb	t0,0(t4)
    175c:	ffb7c303          	lbu	t1,-5(a5)
    1760:	006e8023          	sb	t1,0(t4)
    1764:	ffc7c383          	lbu	t2,-4(a5)
    1768:	007e8023          	sb	t2,0(t4)
    176c:	ffd7c503          	lbu	a0,-3(a5)
    1770:	00ae8023          	sb	a0,0(t4)
    1774:	ffe7c883          	lbu	a7,-2(a5)
    1778:	011e8023          	sb	a7,0(t4)
    177c:	fff7ce03          	lbu	t3,-1(a5)
    1780:	01ce8023          	sb	t3,0(t4)
    1784:	fa071ce3          	bnez	a4,173c <putchar+0xec>
    1788:	04022023          	sw	zero,64(tp) # 40 <buflen.1744>
    178c:	00000513          	li	a0,0
    1790:	00008067          	ret

00001794 <main>:
    1794:	00001737          	lui	a4,0x1
    1798:	fc010113          	addi	sp,sp,-64
    179c:	004807b7          	lui	a5,0x480
    17a0:	02112e23          	sw	ra,60(sp)
    17a4:	02812c23          	sw	s0,56(sp)
    17a8:	02912a23          	sw	s1,52(sp)
    17ac:	03212823          	sw	s2,48(sp)
    17b0:	03312623          	sw	s3,44(sp)
    17b4:	03412423          	sw	s4,40(sp)
    17b8:	03512223          	sw	s5,36(sp)
    17bc:	03612023          	sw	s6,32(sp)
    17c0:	01712e23          	sw	s7,28(sp)
    17c4:	01812c23          	sw	s8,24(sp)
    17c8:	01912a23          	sw	s9,20(sp)
    17cc:	01a12823          	sw	s10,16(sp)
    17d0:	01b12623          	sw	s11,12(sp)
    17d4:	4b570613          	addi	a2,a4,1205 # 14b5 <vprintfmt.constprop.1+0x1079>
    17d8:	000026b7          	lui	a3,0x2
    17dc:	00c7a023          	sw	a2,0(a5) # 480000 <__C_STACK_TOP__+0x470000>
    17e0:	bba70093          	addi	ra,a4,-1094
    17e4:	0017a223          	sw	ra,4(a5)
    17e8:	35468293          	addi	t0,a3,852 # 2354 <main+0xbc0>
    17ec:	0057a423          	sw	t0,8(a5)
    17f0:	17500593          	li	a1,373
    17f4:	00003637          	lui	a2,0x3
    17f8:	00b7a623          	sw	a1,12(a5)
    17fc:	73170313          	addi	t1,a4,1841
    1800:	0067a823          	sw	t1,16(a5)
    1804:	f9860393          	addi	t2,a2,-104 # 2f98 <__udivdi3+0x1c0>
    1808:	0077aa23          	sw	t2,20(a5)
    180c:	b1760513          	addi	a0,a2,-1257
    1810:	00a7ac23          	sw	a0,24(a5)
    1814:	65070413          	addi	s0,a4,1616
    1818:	0087ae23          	sw	s0,28(a5)
    181c:	ded68493          	addi	s1,a3,-531
    1820:	0297a023          	sw	s1,32(a5)
    1824:	88f70813          	addi	a6,a4,-1905
    1828:	0307a223          	sw	a6,36(a5)
    182c:	61368893          	addi	a7,a3,1555
    1830:	0317a423          	sw	a7,40(a5)
    1834:	a4d60993          	addi	s3,a2,-1459
    1838:	0337a623          	sw	s3,44(a5)
    183c:	e3968913          	addi	s2,a3,-455
    1840:	0327a823          	sw	s2,48(a5)
    1844:	14a68a13          	addi	s4,a3,330
    1848:	0347aa23          	sw	s4,52(a5)
    184c:	f6868a93          	addi	s5,a3,-152
    1850:	0357ac23          	sw	s5,56(a5)
    1854:	90f68b13          	addi	s6,a3,-1777
    1858:	0367ae23          	sw	s6,60(a5)
    185c:	a6170b93          	addi	s7,a4,-1439
    1860:	0577a023          	sw	s7,64(a5)
    1864:	25800c13          	li	s8,600
    1868:	0587a223          	sw	s8,68(a5)
    186c:	44868c93          	addi	s9,a3,1096
    1870:	0597a423          	sw	s9,72(a5)
    1874:	a6868d13          	addi	s10,a3,-1432
    1878:	8d560d93          	addi	s11,a2,-1835
    187c:	05b7a623          	sw	s11,76(a5)
    1880:	bfe60e13          	addi	t3,a2,-1026
    1884:	05a7a823          	sw	s10,80(a5)
    1888:	05c7aa23          	sw	t3,84(a5)
    188c:	3a800e93          	li	t4,936
    1890:	05d7ac23          	sw	t4,88(a5)
    1894:	47068f13          	addi	t5,a3,1136
    1898:	05e7ae23          	sw	t5,92(a5)
    189c:	5ac68893          	addi	a7,a3,1452
    18a0:	0717a023          	sw	a7,96(a5)
    18a4:	55200f93          	li	t6,1362
    18a8:	07f7a223          	sw	t6,100(a5)
    18ac:	23500093          	li	ra,565
    18b0:	0617a423          	sw	ra,104(a5)
    18b4:	5e070293          	addi	t0,a4,1504
    18b8:	0657a623          	sw	t0,108(a5)
    18bc:	4ac00593          	li	a1,1196
    18c0:	06b7a823          	sw	a1,112(a5)
    18c4:	da960393          	addi	t2,a2,-599
    18c8:	0677aa23          	sw	t2,116(a5)
    18cc:	d7b60413          	addi	s0,a2,-645
    18d0:	0687ac23          	sw	s0,120(a5)
    18d4:	9f870313          	addi	t1,a4,-1544
    18d8:	0667ae23          	sw	t1,124(a5)
    18dc:	15a00493          	li	s1,346
    18e0:	0897a023          	sw	s1,128(a5)
    18e4:	9b768513          	addi	a0,a3,-1609
    18e8:	08a7a223          	sw	a0,132(a5)
    18ec:	ddd70813          	addi	a6,a4,-547
    18f0:	0907a423          	sw	a6,136(a5)
    18f4:	dc660913          	addi	s2,a2,-570
    18f8:	0927a623          	sw	s2,140(a5)
    18fc:	35600993          	li	s3,854
    1900:	0937a823          	sw	s3,144(a5)
    1904:	aba60a93          	addi	s5,a2,-1350
    1908:	0957aa23          	sw	s5,148(a5)
    190c:	98668a13          	addi	s4,a3,-1658
    1910:	0947ac23          	sw	s4,152(a5)
    1914:	d9268e93          	addi	t4,a3,-622
    1918:	09d7ae23          	sw	t4,156(a5)
    191c:	f7270b13          	addi	s6,a4,-142
    1920:	0b67a023          	sw	s6,160(a5)
    1924:	77900b93          	li	s7,1913
    1928:	0b77a223          	sw	s7,164(a5)
    192c:	99560c93          	addi	s9,a2,-1643
    1930:	0b97a423          	sw	s9,168(a5)
    1934:	25068c13          	addi	s8,a3,592
    1938:	0b87a623          	sw	s8,172(a5)
    193c:	92060d93          	addi	s11,a2,-1760
    1940:	0bb7a823          	sw	s11,176(a5)
    1944:	ecc70d13          	addi	s10,a4,-308
    1948:	0ba7aa23          	sw	s10,180(a5)
    194c:	bb970e13          	addi	t3,a4,-1095
    1950:	0bc7ac23          	sw	t3,184(a5)
    1954:	a2e70f13          	addi	t5,a4,-1490
    1958:	0be7ae23          	sw	t5,188(a5)
    195c:	32970f93          	addi	t6,a4,809
    1960:	0df7a023          	sw	t6,192(a5)
    1964:	09c00093          	li	ra,156
    1968:	0c17a223          	sw	ra,196(a5)
    196c:	67c70293          	addi	t0,a4,1660
    1970:	0c57a423          	sw	t0,200(a5)
    1974:	09b68593          	addi	a1,a3,155
    1978:	0cb7a623          	sw	a1,204(a5)
    197c:	8b768393          	addi	t2,a3,-1865
    1980:	48100313          	li	t1,1153
    1984:	0c67a823          	sw	t1,208(a5)
    1988:	2cf00413          	li	s0,719
    198c:	0c77aa23          	sw	t2,212(a5)
    1990:	0c87ac23          	sw	s0,216(a5)
    1994:	a6a60513          	addi	a0,a2,-1430
    1998:	0ca7ae23          	sw	a0,220(a5)
    199c:	9de60493          	addi	s1,a2,-1570
    19a0:	0e97a023          	sw	s1,224(a5)
    19a4:	05e00813          	li	a6,94
    19a8:	0f07a223          	sw	a6,228(a5)
    19ac:	83c70913          	addi	s2,a4,-1988
    19b0:	0f27a423          	sw	s2,232(a5)
    19b4:	34868993          	addi	s3,a3,840
    19b8:	0f37a623          	sw	s3,236(a5)
    19bc:	06570513          	addi	a0,a4,101
    19c0:	0ea7a823          	sw	a0,240(a5)
    19c4:	cd870a13          	addi	s4,a4,-808
    19c8:	0f47aa23          	sw	s4,244(a5)
    19cc:	04770a93          	addi	s5,a4,71
    19d0:	0f57ac23          	sw	s5,248(a5)
    19d4:	60700b13          	li	s6,1543
    19d8:	0f67ae23          	sw	s6,252(a5)
    19dc:	c8168b93          	addi	s7,a3,-895
    19e0:	1177a023          	sw	s7,256(a5)
    19e4:	04700c93          	li	s9,71
    19e8:	1197a223          	sw	s9,260(a5)
    19ec:	6b668c13          	addi	s8,a3,1718
    19f0:	1187a423          	sw	s8,264(a5)
    19f4:	87268d13          	addi	s10,a3,-1934
    19f8:	11a7a623          	sw	s10,268(a5)
    19fc:	72d00d93          	li	s11,1837
    1a00:	11b7a823          	sw	s11,272(a5)
    1a04:	23570d93          	addi	s11,a4,565
    1a08:	11b7aa23          	sw	s11,276(a5)
    1a0c:	77600d93          	li	s11,1910
    1a10:	11b7ac23          	sw	s11,280(a5)
    1a14:	8a468d13          	addi	s10,a3,-1884
    1a18:	11a7ae23          	sw	s10,284(a5)
    1a1c:	15868c93          	addi	s9,a3,344
    1a20:	1397a023          	sw	s9,288(a5)
    1a24:	f8670c93          	addi	s9,a4,-122
    1a28:	1397a223          	sw	s9,292(a5)
    1a2c:	cf760c13          	addi	s8,a2,-777
    1a30:	1387a423          	sw	s8,296(a5)
    1a34:	30f68b93          	addi	s7,a3,783
    1a38:	1377a623          	sw	s7,300(a5)
    1a3c:	26870c13          	addi	s8,a4,616
    1a40:	1387a823          	sw	s8,304(a5)
    1a44:	c8960b13          	addi	s6,a2,-887
    1a48:	1367aa23          	sw	s6,308(a5)
    1a4c:	29f00b93          	li	s7,671
    1a50:	1377ac23          	sw	s7,312(a5)
    1a54:	1d270b13          	addi	s6,a4,466
    1a58:	1367ae23          	sw	s6,316(a5)
    1a5c:	18500d93          	li	s11,389
    1a60:	15b7a023          	sw	s11,320(a5)
    1a64:	84570c13          	addi	s8,a4,-1979
    1a68:	1587a223          	sw	s8,324(a5)
    1a6c:	41070b13          	addi	s6,a4,1040
    1a70:	1567a423          	sw	s6,328(a5)
    1a74:	8d968a93          	addi	s5,a3,-1831
    1a78:	64e68f13          	addi	t5,a3,1614
    1a7c:	1557a623          	sw	s5,332(a5)
    1a80:	eee68593          	addi	a1,a3,-274
    1a84:	83a60a13          	addi	s4,a2,-1990
    1a88:	15e7a823          	sw	t5,336(a5)
    1a8c:	1547aa23          	sw	s4,340(a5)
    1a90:	e7068993          	addi	s3,a3,-400
    1a94:	14b7ac23          	sw	a1,344(a5)
    1a98:	1537ae23          	sw	s3,348(a5)
    1a9c:	ded60913          	addi	s2,a2,-531
    1aa0:	1727a023          	sw	s2,352(a5)
    1aa4:	6a900a93          	li	s5,1705
    1aa8:	1757a223          	sw	s5,356(a5)
    1aac:	28068493          	addi	s1,a3,640
    1ab0:	1697a423          	sw	s1,360(a5)
    1ab4:	83170a13          	addi	s4,a4,-1999
    1ab8:	1747a623          	sw	s4,364(a5)
    1abc:	acf68413          	addi	s0,a3,-1329
    1ac0:	1687a823          	sw	s0,368(a5)
    1ac4:	5ce00993          	li	s3,1486
    1ac8:	1737aa23          	sw	s3,372(a5)
    1acc:	cac60093          	addi	ra,a2,-852
    1ad0:	1617ac23          	sw	ra,376(a5)
    1ad4:	d5d70913          	addi	s2,a4,-675
    1ad8:	1727ae23          	sw	s2,380(a5)
    1adc:	abe70493          	addi	s1,a4,-1346
    1ae0:	1897a023          	sw	s1,384(a5)
    1ae4:	75800093          	li	ra,1880
    1ae8:	1817a223          	sw	ra,388(a5)
    1aec:	b0760393          	addi	t2,a2,-1273
    1af0:	1877a423          	sw	t2,392(a5)
    1af4:	d7570393          	addi	t2,a4,-651
    1af8:	1877a623          	sw	t2,396(a5)
    1afc:	4d470d93          	addi	s11,a4,1236
    1b00:	19b7a823          	sw	s11,400(a5)
    1b04:	86760e13          	addi	t3,a2,-1945
    1b08:	19c7aa23          	sw	t3,404(a5)
    1b0c:	94368293          	addi	t0,a3,-1725
    1b10:	1857ac23          	sw	t0,408(a5)
    1b14:	ee970293          	addi	t0,a4,-279
    1b18:	1857ae23          	sw	t0,412(a5)
    1b1c:	84160f93          	addi	t6,a2,-1983
    1b20:	1bf7a023          	sw	t6,416(a5)
    1b24:	74b70f93          	addi	t6,a4,1867
    1b28:	1bf7a223          	sw	t6,420(a5)
    1b2c:	6c400c13          	li	s8,1732
    1b30:	1b87a423          	sw	s8,424(a5)
    1b34:	000023b7          	lui	t2,0x2
    1b38:	70970b13          	addi	s6,a4,1801
    1b3c:	1b67a623          	sw	s6,428(a5)
    1b40:	e4038a93          	addi	s5,t2,-448 # 1e40 <main+0x6ac>
    1b44:	1b57a823          	sw	s5,432(a5)
    1b48:	99870a13          	addi	s4,a4,-1640
    1b4c:	1b47aa23          	sw	s4,436(a5)
    1b50:	45900993          	li	s3,1113
    1b54:	1b37ac23          	sw	s3,440(a5)
    1b58:	00003c37          	lui	s8,0x3
    1b5c:	72770d93          	addi	s11,a4,1831
    1b60:	1bb7ae23          	sw	s11,444(a5)
    1b64:	fb8c0293          	addi	t0,s8,-72 # 2fb8 <__udivdi3+0x1e0>
    1b68:	1c57a023          	sw	t0,448(a5)
    1b6c:	91370f93          	addi	t6,a4,-1773
    1b70:	1df7a223          	sw	t6,452(a5)
    1b74:	c9c38b13          	addi	s6,t2,-868
    1b78:	1d67a423          	sw	s6,456(a5)
    1b7c:	71870a93          	addi	s5,a4,1816
    1b80:	1d57a623          	sw	s5,460(a5)
    1b84:	8d570a13          	addi	s4,a4,-1835
    1b88:	1d47a823          	sw	s4,464(a5)
    1b8c:	e5438d93          	addi	s11,t2,-428
    1b90:	1db7aa23          	sw	s11,468(a5)
    1b94:	ad138293          	addi	t0,t2,-1327
    1b98:	a86c0b13          	addi	s6,s8,-1402
    1b9c:	1c57ac23          	sw	t0,472(a5)
    1ba0:	22d70a93          	addi	s5,a4,557
    1ba4:	1d67ae23          	sw	s6,476(a5)
    1ba8:	1f57a023          	sw	s5,480(a5)
    1bac:	04f38d93          	addi	s11,t2,79
    1bb0:	1fb7a223          	sw	s11,484(a5)
    1bb4:	b3838293          	addi	t0,t2,-1224
    1bb8:	1e57a423          	sw	t0,488(a5)
    1bbc:	dd070b13          	addi	s6,a4,-560
    1bc0:	1f67a623          	sw	s6,492(a5)
    1bc4:	53e00a93          	li	s5,1342
    1bc8:	1f57a823          	sw	s5,496(a5)
    1bcc:	65770d93          	addi	s11,a4,1623
    1bd0:	1fb7aa23          	sw	s11,500(a5)
    1bd4:	47a00293          	li	t0,1146
    1bd8:	1e57ac23          	sw	t0,504(a5)
    1bdc:	8e870b13          	addi	s6,a4,-1816
    1be0:	1f67ae23          	sw	s6,508(a5)
    1be4:	52a70d93          	addi	s11,a4,1322
    1be8:	21b7a023          	sw	s11,512(a5)
    1bec:	afdc0293          	addi	t0,s8,-1283
    1bf0:	2057a223          	sw	t0,516(a5)
    1bf4:	33c70d93          	addi	s11,a4,828
    1bf8:	21b7a423          	sw	s11,520(a5)
    1bfc:	76638293          	addi	t0,t2,1894
    1c00:	2057a623          	sw	t0,524(a5)
    1c04:	14a00d93          	li	s11,330
    1c08:	21b7a823          	sw	s11,528(a5)
    1c0c:	56338293          	addi	t0,t2,1379
    1c10:	2057aa23          	sw	t0,532(a5)
    1c14:	3c700d93          	li	s11,967
    1c18:	21b7ac23          	sw	s11,536(a5)
    1c1c:	dd770293          	addi	t0,a4,-553
    1c20:	2057ae23          	sw	t0,540(a5)
    1c24:	7b600d93          	li	s11,1974
    1c28:	23b7a023          	sw	s11,544(a5)
    1c2c:	6c938293          	addi	t0,t2,1737
    1c30:	2257a223          	sw	t0,548(a5)
    1c34:	74970d93          	addi	s11,a4,1865
    1c38:	23b7a423          	sw	s11,552(a5)
    1c3c:	dbec0c13          	addi	s8,s8,-578
    1c40:	2387a623          	sw	s8,556(a5)
    1c44:	21700293          	li	t0,535
    1c48:	2257a823          	sw	t0,560(a5)
    1c4c:	9fc70d93          	addi	s11,a4,-1540
    1c50:	23b7aa23          	sw	s11,564(a5)
    1c54:	32338c13          	addi	s8,t2,803
    1c58:	2387ac23          	sw	s8,568(a5)
    1c5c:	e9270293          	addi	t0,a4,-366
    1c60:	2257ae23          	sw	t0,572(a5)
    1c64:	28300d93          	li	s11,643
    1c68:	25b7a023          	sw	s11,576(a5)
    1c6c:	42400c13          	li	s8,1060
    1c70:	2587a223          	sw	s8,580(a5)
    1c74:	56d38293          	addi	t0,t2,1389
    1c78:	2457a423          	sw	t0,584(a5)
    1c7c:	14370d93          	addi	s11,a4,323
    1c80:	25b7a623          	sw	s11,588(a5)
    1c84:	05500293          	li	t0,85
    1c88:	2457a823          	sw	t0,592(a5)
    1c8c:	3c670d93          	addi	s11,a4,966
    1c90:	25b7aa23          	sw	s11,596(a5)
    1c94:	43770293          	addi	t0,a4,1079
    1c98:	00003db7          	lui	s11,0x3
    1c9c:	2457ac23          	sw	t0,600(a5)
    1ca0:	86cd8293          	addi	t0,s11,-1940 # 286c <main+0x10d8>
    1ca4:	bc170d93          	addi	s11,a4,-1087
    1ca8:	2457ae23          	sw	t0,604(a5)
    1cac:	27b7a023          	sw	s11,608(a5)
    1cb0:	def38293          	addi	t0,t2,-529
    1cb4:	2657a223          	sw	t0,612(a5)
    1cb8:	7f038d93          	addi	s11,t2,2032
    1cbc:	27b7a423          	sw	s11,616(a5)
    1cc0:	3e138393          	addi	t2,t2,993
    1cc4:	2677a623          	sw	t2,620(a5)
    1cc8:	4dd00293          	li	t0,1245
    1ccc:	2657a823          	sw	t0,624(a5)
    1cd0:	dec70d93          	addi	s11,a4,-532
    1cd4:	27b7aa23          	sw	s11,628(a5)
    1cd8:	da370393          	addi	t2,a4,-605
    1cdc:	2677ac23          	sw	t2,632(a5)
    1ce0:	eef70293          	addi	t0,a4,-273
    1ce4:	00003db7          	lui	s11,0x3
    1ce8:	2657ae23          	sw	t0,636(a5)
    1cec:	dd4d8393          	addi	t2,s11,-556 # 2dd4 <__moddi3+0x454>
    1cf0:	2877a023          	sw	t2,640(a5)
    1cf4:	2dd70d93          	addi	s11,a4,733
    1cf8:	29b7a223          	sw	s11,644(a5)
    1cfc:	be670393          	addi	t2,a4,-1050
    1d00:	2877a423          	sw	t2,648(a5)
    1d04:	13e70d93          	addi	s11,a4,318
    1d08:	29b7a623          	sw	s11,652(a5)
    1d0c:	21a00393          	li	t2,538
    1d10:	2877a823          	sw	t2,656(a5)
    1d14:	4fc70d93          	addi	s11,a4,1276
    1d18:	000023b7          	lui	t2,0x2
    1d1c:	29b7aa23          	sw	s11,660(a5)
    1d20:	19838d93          	addi	s11,t2,408 # 2198 <main+0xa04>
    1d24:	29b7ac23          	sw	s11,664(a5)
    1d28:	91770393          	addi	t2,a4,-1769
    1d2c:	00002db7          	lui	s11,0x2
    1d30:	2877ae23          	sw	t2,668(a5)
    1d34:	8f1d8393          	addi	t2,s11,-1807 # 18f1 <main+0x15d>
    1d38:	2a77a023          	sw	t2,672(a5)
    1d3c:	93670d93          	addi	s11,a4,-1738
    1d40:	000033b7          	lui	t2,0x3
    1d44:	2bb7a223          	sw	s11,676(a5)
    1d48:	9af38d93          	addi	s11,t2,-1617 # 29af <__moddi3+0x2f>
    1d4c:	000023b7          	lui	t2,0x2
    1d50:	2bb7a423          	sw	s11,680(a5)
    1d54:	11c38d93          	addi	s11,t2,284 # 211c <main+0x988>
    1d58:	2bb7a623          	sw	s11,684(a5)
    1d5c:	7df00393          	li	t2,2015
    1d60:	2a77a823          	sw	t2,688(a5)
    1d64:	7d000d93          	li	s11,2000
    1d68:	000023b7          	lui	t2,0x2
    1d6c:	2bb7aa23          	sw	s11,692(a5)
    1d70:	5c938d93          	addi	s11,t2,1481 # 25c9 <main+0xe35>
    1d74:	2bb7ac23          	sw	s11,696(a5)
    1d78:	d6670393          	addi	t2,a4,-666
    1d7c:	00002db7          	lui	s11,0x2
    1d80:	2a77ae23          	sw	t2,700(a5)
    1d84:	4c3d8393          	addi	t2,s11,1219 # 24c3 <main+0xd2f>
    1d88:	2c77a023          	sw	t2,704(a5)
    1d8c:	76770d93          	addi	s11,a4,1895
    1d90:	2db7a223          	sw	s11,708(a5)
    1d94:	78070393          	addi	t2,a4,1920
    1d98:	2c77a423          	sw	t2,712(a5)
    1d9c:	000033b7          	lui	t2,0x3
    1da0:	de138d93          	addi	s11,t2,-543 # 2de1 <__udivdi3+0x9>
    1da4:	2db7a623          	sw	s11,716(a5)
    1da8:	d9738393          	addi	t2,t2,-617
    1dac:	2c77a823          	sw	t2,720(a5)
    1db0:	56570d93          	addi	s11,a4,1381
    1db4:	000023b7          	lui	t2,0x2
    1db8:	2db7aa23          	sw	s11,724(a5)
    1dbc:	67d38d93          	addi	s11,t2,1661 # 267d <main+0xee9>
    1dc0:	2db7ac23          	sw	s11,728(a5)
    1dc4:	00003db7          	lui	s11,0x3
    1dc8:	e69d8d93          	addi	s11,s11,-407 # 2e69 <__udivdi3+0x91>
    1dcc:	2db7ae23          	sw	s11,732(a5)
    1dd0:	6ce38393          	addi	t2,t2,1742
    1dd4:	2e77a023          	sw	t2,736(a5)
    1dd8:	09a00d93          	li	s11,154
    1ddc:	000033b7          	lui	t2,0x3
    1de0:	2fb7a223          	sw	s11,740(a5)
    1de4:	90b38d93          	addi	s11,t2,-1781 # 290b <add+0x3b>
    1de8:	000023b7          	lui	t2,0x2
    1dec:	2fb7a423          	sw	s11,744(a5)
    1df0:	95938d93          	addi	s11,t2,-1703 # 1959 <main+0x1c5>
    1df4:	2fb7a623          	sw	s11,748(a5)
    1df8:	5a770393          	addi	t2,a4,1447
    1dfc:	2e77a823          	sw	t2,752(a5)
    1e00:	34370d93          	addi	s11,a4,835
    1e04:	2fb7aa23          	sw	s11,756(a5)
    1e08:	03100393          	li	t2,49
    1e0c:	00002db7          	lui	s11,0x2
    1e10:	2e77ac23          	sw	t2,760(a5)
    1e14:	f6ad8393          	addi	t2,s11,-150 # 1f6a <main+0x7d6>
    1e18:	2e77ae23          	sw	t2,764(a5)
    1e1c:	9a270d93          	addi	s11,a4,-1630
    1e20:	31b7a023          	sw	s11,768(a5)
    1e24:	e0370393          	addi	t2,a4,-509
    1e28:	3077a223          	sw	t2,772(a5)
    1e2c:	2d500d93          	li	s11,725
    1e30:	31b7a423          	sw	s11,776(a5)
    1e34:	68f00393          	li	t2,1679
    1e38:	3077a623          	sw	t2,780(a5)
    1e3c:	ee770d93          	addi	s11,a4,-281
    1e40:	000023b7          	lui	t2,0x2
    1e44:	31b7a823          	sw	s11,784(a5)
    1e48:	fdb38d93          	addi	s11,t2,-37 # 1fdb <main+0x847>
    1e4c:	000033b7          	lui	t2,0x3
    1e50:	31b7aa23          	sw	s11,788(a5)
    1e54:	b5938d93          	addi	s11,t2,-1191 # 2b59 <__moddi3+0x1d9>
    1e58:	31b7ac23          	sw	s11,792(a5)
    1e5c:	e4670393          	addi	t2,a4,-442
    1e60:	00002db7          	lui	s11,0x2
    1e64:	3077ae23          	sw	t2,796(a5)
    1e68:	9bbd8393          	addi	t2,s11,-1605 # 19bb <main+0x227>
    1e6c:	3277a023          	sw	t2,800(a5)
    1e70:	45070d93          	addi	s11,a4,1104
    1e74:	000023b7          	lui	t2,0x2
    1e78:	33b7a223          	sw	s11,804(a5)
    1e7c:	c6c38d93          	addi	s11,t2,-916 # 1c6c <main+0x4d8>
    1e80:	000033b7          	lui	t2,0x3
    1e84:	33b7a423          	sw	s11,808(a5)
    1e88:	f2f38d93          	addi	s11,t2,-209 # 2f2f <__udivdi3+0x157>
    1e8c:	33b7a623          	sw	s11,812(a5)
    1e90:	1ac00393          	li	t2,428
    1e94:	00002db7          	lui	s11,0x2
    1e98:	3277a823          	sw	t2,816(a5)
    1e9c:	21ad8393          	addi	t2,s11,538 # 221a <main+0xa86>
    1ea0:	00003db7          	lui	s11,0x3
    1ea4:	3277aa23          	sw	t2,820(a5)
    1ea8:	ac2d8393          	addi	t2,s11,-1342 # 2ac2 <__moddi3+0x142>
    1eac:	3277ac23          	sw	t2,824(a5)
    1eb0:	4a670d93          	addi	s11,a4,1190
    1eb4:	33b7ae23          	sw	s11,828(a5)
    1eb8:	24200393          	li	t2,578
    1ebc:	3477a023          	sw	t2,832(a5)
    1ec0:	4f100d93          	li	s11,1265
    1ec4:	35b7a223          	sw	s11,836(a5)
    1ec8:	00003db7          	lui	s11,0x3
    1ecc:	35e7a423          	sw	t5,840(a5)
    1ed0:	a4bd8f13          	addi	t5,s11,-1461 # 2a4b <__moddi3+0xcb>
    1ed4:	35e7a623          	sw	t5,844(a5)
    1ed8:	f7970393          	addi	t2,a4,-135
    1edc:	3477a823          	sw	t2,848(a5)
    1ee0:	000023b7          	lui	t2,0x2
    1ee4:	48338f13          	addi	t5,t2,1155 # 2483 <main+0xcef>
    1ee8:	35e7aa23          	sw	t5,852(a5)
    1eec:	a6338f13          	addi	t5,t2,-1437
    1ef0:	35e7ac23          	sw	t5,856(a5)
    1ef4:	32b70f13          	addi	t5,a4,811
    1ef8:	35e7ae23          	sw	t5,860(a5)
    1efc:	37b00f13          	li	t5,891
    1f00:	37e7a023          	sw	t5,864(a5)
    1f04:	5ea70f13          	addi	t5,a4,1514
    1f08:	37e7a223          	sw	t5,868(a5)
    1f0c:	c3d70f13          	addi	t5,a4,-963
    1f10:	37e7a423          	sw	t5,872(a5)
    1f14:	42e00f13          	li	t5,1070
    1f18:	37e7a623          	sw	t5,876(a5)
    1f1c:	b4c70f13          	addi	t5,a4,-1204
    1f20:	37e7a823          	sw	t5,880(a5)
    1f24:	0d970f13          	addi	t5,a4,217
    1f28:	37e7aa23          	sw	t5,884(a5)
    1f2c:	7dd38f13          	addi	t5,t2,2013
    1f30:	37e7ac23          	sw	t5,888(a5)
    1f34:	40038f13          	addi	t5,t2,1024
    1f38:	37e7ae23          	sw	t5,892(a5)
    1f3c:	99070f13          	addi	t5,a4,-1648
    1f40:	39e7a023          	sw	t5,896(a5)
    1f44:	c6470f13          	addi	t5,a4,-924
    1f48:	39e7a223          	sw	t5,900(a5)
    1f4c:	a6f38f13          	addi	t5,t2,-1425
    1f50:	39e7a423          	sw	t5,904(a5)
    1f54:	bc370f13          	addi	t5,a4,-1085
    1f58:	39e7a623          	sw	t5,908(a5)
    1f5c:	b6d70f13          	addi	t5,a4,-1171
    1f60:	39e7a823          	sw	t5,912(a5)
    1f64:	06200f13          	li	t5,98
    1f68:	39e7aa23          	sw	t5,916(a5)
    1f6c:	82c38f13          	addi	t5,t2,-2004
    1f70:	39e7ac23          	sw	t5,920(a5)
    1f74:	da768813          	addi	a6,a3,-601
    1f78:	3907ae23          	sw	a6,924(a5)
    1f7c:	0ac38f13          	addi	t5,t2,172
    1f80:	3be7a023          	sw	t5,928(a5)
    1f84:	861d8f13          	addi	t5,s11,-1951
    1f88:	3be7a223          	sw	t5,932(a5)
    1f8c:	d4670f13          	addi	t5,a4,-698
    1f90:	3be7a423          	sw	t5,936(a5)
    1f94:	f5470f13          	addi	t5,a4,-172
    1f98:	3be7a623          	sw	t5,940(a5)
    1f9c:	7a070f13          	addi	t5,a4,1952
    1fa0:	3be7a823          	sw	t5,944(a5)
    1fa4:	f8970f13          	addi	t5,a4,-119
    1fa8:	3be7aa23          	sw	t5,948(a5)
    1fac:	3bf7ac23          	sw	t6,952(a5)
    1fb0:	43b70f93          	addi	t6,a4,1083
    1fb4:	3bf7ae23          	sw	t6,956(a5)
    1fb8:	a6f70f13          	addi	t5,a4,-1425
    1fbc:	3de7a023          	sw	t5,960(a5)
    1fc0:	a8ad8f13          	addi	t5,s11,-1398
    1fc4:	3de7a223          	sw	t5,964(a5)
    1fc8:	be270f13          	addi	t5,a4,-1054
    1fcc:	3de7a423          	sw	t5,968(a5)
    1fd0:	8cc38f13          	addi	t5,t2,-1844
    1fd4:	3de7a623          	sw	t5,972(a5)
    1fd8:	3c100f13          	li	t5,961
    1fdc:	3de7a823          	sw	t5,976(a5)
    1fe0:	63000f13          	li	t5,1584
    1fe4:	3de7aa23          	sw	t5,980(a5)
    1fe8:	04570f13          	addi	t5,a4,69
    1fec:	3de7ac23          	sw	t5,984(a5)
    1ff0:	cced8f93          	addi	t6,s11,-818
    1ff4:	3df7ae23          	sw	t6,988(a5)
    1ff8:	2db38f13          	addi	t5,t2,731
    1ffc:	3fe7a023          	sw	t5,992(a5)
    2000:	3ff70f93          	addi	t6,a4,1023
    2004:	3ff7a223          	sw	t6,996(a5)
    2008:	8fd70f13          	addi	t5,a4,-1795
    200c:	45300f93          	li	t6,1107
    2010:	3fe7a423          	sw	t5,1000(a5)
    2014:	33568313          	addi	t1,a3,821
    2018:	3ff7a623          	sw	t6,1004(a5)
    201c:	3e67a823          	sw	t1,1008(a5)
    2020:	4d938f13          	addi	t5,t2,1241
    2024:	3fe7aa23          	sw	t5,1012(a5)
    2028:	c7970f93          	addi	t6,a4,-903
    202c:	3ff7ac23          	sw	t6,1016(a5)
    2030:	07d00f13          	li	t5,125
    2034:	3fe7ae23          	sw	t5,1020(a5)
    2038:	00038f93          	mv	t6,t2
    203c:	ac638393          	addi	t2,t2,-1338
    2040:	4077a023          	sw	t2,1024(a5)
    2044:	8c8f8f13          	addi	t5,t6,-1848
    2048:	41e7a223          	sw	t5,1028(a5)
    204c:	1e7f8393          	addi	t2,t6,487
    2050:	4077a423          	sw	t2,1032(a5)
    2054:	ef970f13          	addi	t5,a4,-263
    2058:	41e7a623          	sw	t5,1036(a5)
    205c:	311f8393          	addi	t2,t6,785
    2060:	4077a823          	sw	t2,1040(a5)
    2064:	d7ad8f13          	addi	t5,s11,-646
    2068:	41e7aa23          	sw	t5,1044(a5)
    206c:	62800393          	li	t2,1576
    2070:	4077ac23          	sw	t2,1048(a5)
    2074:	ea8f8f13          	addi	t5,t6,-344
    2078:	41e7ae23          	sw	t5,1052(a5)
    207c:	ae970393          	addi	t2,a4,-1303
    2080:	4277a023          	sw	t2,1056(a5)
    2084:	15300f13          	li	t5,339
    2088:	43e7a223          	sw	t5,1060(a5)
    208c:	61af8393          	addi	t2,t6,1562
    2090:	4277a423          	sw	t2,1064(a5)
    2094:	d07d8f13          	addi	t5,s11,-761
    2098:	43e7a623          	sw	t5,1068(a5)
    209c:	43d7a823          	sw	t4,1072(a5)
    20a0:	a2670e93          	addi	t4,a4,-1498
    20a4:	43d7aa23          	sw	t4,1076(a5)
    20a8:	afd70393          	addi	t2,a4,-1283
    20ac:	4277ac23          	sw	t2,1080(a5)
    20b0:	afbf8f13          	addi	t5,t6,-1285
    20b4:	43e7ae23          	sw	t5,1084(a5)
    20b8:	875d8e93          	addi	t4,s11,-1931
    20bc:	45d7a023          	sw	t4,1088(a5)
    20c0:	9aef8393          	addi	t2,t6,-1618
    20c4:	4477a223          	sw	t2,1092(a5)
    20c8:	1e270f13          	addi	t5,a4,482
    20cc:	45e7a423          	sw	t5,1096(a5)
    20d0:	42e70393          	addi	t2,a4,1070
    20d4:	4477a623          	sw	t2,1100(a5)
    20d8:	383f8f13          	addi	t5,t6,899
    20dc:	45e7a823          	sw	t5,1104(a5)
    20e0:	a54d8393          	addi	t2,s11,-1452
    20e4:	4477aa23          	sw	t2,1108(a5)
    20e8:	fe5d8f13          	addi	t5,s11,-27
    20ec:	45e7ac23          	sw	t5,1112(a5)
    20f0:	89ad8393          	addi	t2,s11,-1894
    20f4:	4477ae23          	sw	t2,1116(a5)
    20f8:	bc770f13          	addi	t5,a4,-1081
    20fc:	47e7a023          	sw	t5,1120(a5)
    2100:	f6a70393          	addi	t2,a4,-150
    2104:	4677a223          	sw	t2,1124(a5)
    2108:	f9bd8d93          	addi	s11,s11,-101
    210c:	47b7a423          	sw	s11,1128(a5)
    2110:	982f8f13          	addi	t5,t6,-1662
    2114:	34470393          	addi	t2,a4,836
    2118:	47e7a623          	sw	t5,1132(a5)
    211c:	4677a823          	sw	t2,1136(a5)
    2120:	000f8393          	mv	t2,t6
    2124:	c53f8f93          	addi	t6,t6,-941
    2128:	47f7aa23          	sw	t6,1140(a5)
    212c:	53100d93          	li	s11,1329
    2130:	00003f37          	lui	t5,0x3
    2134:	47b7ac23          	sw	s11,1144(a5)
    2138:	fecf0f93          	addi	t6,t5,-20 # 2fec <__udivdi3+0x214>
    213c:	47f7ae23          	sw	t6,1148(a5)
    2140:	c0d70d93          	addi	s11,a4,-1011
    2144:	00003fb7          	lui	t6,0x3
    2148:	49b7a023          	sw	s11,1152(a5)
    214c:	a8bf8d93          	addi	s11,t6,-1397 # 2a8b <__moddi3+0x10b>
    2150:	49b7a223          	sw	s11,1156(a5)
    2154:	09838f93          	addi	t6,t2,152
    2158:	49f7a423          	sw	t6,1160(a5)
    215c:	40770d93          	addi	s11,a4,1031
    2160:	49b7a623          	sw	s11,1164(a5)
    2164:	7c270f93          	addi	t6,a4,1986
    2168:	49f7a823          	sw	t6,1168(a5)
    216c:	41570d93          	addi	s11,a4,1045
    2170:	00003fb7          	lui	t6,0x3
    2174:	49b7aa23          	sw	s11,1172(a5)
    2178:	b73f8d93          	addi	s11,t6,-1165 # 2b73 <__moddi3+0x1f3>
    217c:	49b7ac23          	sw	s11,1176(a5)
    2180:	8ee38f93          	addi	t6,t2,-1810
    2184:	49f7ae23          	sw	t6,1180(a5)
    2188:	54b38393          	addi	t2,t2,1355
    218c:	4a77a023          	sw	t2,1184(a5)
    2190:	f3060d13          	addi	s10,a2,-208
    2194:	4ba7a223          	sw	s10,1188(a5)
    2198:	14b70d13          	addi	s10,a4,331
    219c:	4ba7a423          	sw	s10,1192(a5)
    21a0:	af668b93          	addi	s7,a3,-1290
    21a4:	4b77a623          	sw	s7,1196(a5)
    21a8:	84860413          	addi	s0,a2,-1976
    21ac:	4a87a823          	sw	s0,1200(a5)
    21b0:	da868093          	addi	ra,a3,-600
    21b4:	4a17aa23          	sw	ra,1204(a5)
    21b8:	54c00b93          	li	s7,1356
    21bc:	4b77ac23          	sw	s7,1208(a5)
    21c0:	e3268493          	addi	s1,a3,-462
    21c4:	4a97ae23          	sw	s1,1212(a5)
    21c8:	e0170413          	addi	s0,a4,-511
    21cc:	4c87a023          	sw	s0,1216(a5)
    21d0:	be568913          	addi	s2,a3,-1051
    21d4:	4d27a223          	sw	s2,1220(a5)
    21d8:	28400093          	li	ra,644
    21dc:	4c17a423          	sw	ra,1224(a5)
    21e0:	67f70493          	addi	s1,a4,1663
    21e4:	4c97a623          	sw	s1,1228(a5)
    21e8:	72568993          	addi	s3,a3,1829
    21ec:	4d37a823          	sw	s3,1232(a5)
    21f0:	1c970993          	addi	s3,a4,457
    21f4:	4d37aa23          	sw	s3,1236(a5)
    21f8:	69f70913          	addi	s2,a4,1695
    21fc:	4d27ac23          	sw	s2,1240(a5)
    2200:	94270f93          	addi	t6,a4,-1726
    2204:	4df7ae23          	sw	t6,1244(a5)
    2208:	57768a13          	addi	s4,a3,1399
    220c:	4f47a023          	sw	s4,1248(a5)
    2210:	bb368a93          	addi	s5,a3,-1101
    2214:	4f57a223          	sw	s5,1252(a5)
    2218:	a7c70a13          	addi	s4,a4,-1412
    221c:	4f47a423          	sw	s4,1256(a5)
    2220:	b8c70a93          	addi	s5,a4,-1140
    2224:	acb68b13          	addi	s6,a3,-1333
    2228:	4f57a623          	sw	s5,1260(a5)
    222c:	78500393          	li	t2,1925
    2230:	4e77a823          	sw	t2,1264(a5)
    2234:	4f67aa23          	sw	s6,1268(a5)
    2238:	4fc7ac23          	sw	t3,1272(a5)
    223c:	b7470e13          	addi	t3,a4,-1164
    2240:	4fc7ae23          	sw	t3,1276(a5)
    2244:	0b270b13          	addi	s6,a4,178
    2248:	5167a023          	sw	s6,1280(a5)
    224c:	5db70d13          	addi	s10,a4,1499
    2250:	51a7a223          	sw	s10,1284(a5)
    2254:	6c370b93          	addi	s7,a4,1731
    2258:	5177a423          	sw	s7,1288(a5)
    225c:	14200413          	li	s0,322
    2260:	5087a623          	sw	s0,1292(a5)
    2264:	f8960c13          	addi	s8,a2,-119
    2268:	5187a823          	sw	s8,1296(a5)
    226c:	42170c13          	addi	s8,a4,1057
    2270:	5187aa23          	sw	s8,1300(a5)
    2274:	0b170093          	addi	ra,a4,177
    2278:	5017ac23          	sw	ra,1304(a5)
    227c:	9bb70493          	addi	s1,a4,-1605
    2280:	5097ae23          	sw	s1,1308(a5)
    2284:	18e70913          	addi	s2,a4,398
    2288:	00002fb7          	lui	t6,0x2
    228c:	5327a023          	sw	s2,1312(a5)
    2290:	000024b7          	lui	s1,0x2
    2294:	0f5f8a13          	addi	s4,t6,245 # 20f5 <main+0x961>
    2298:	5347a223          	sw	s4,1316(a5)
    229c:	81948a93          	addi	s5,s1,-2023 # 1819 <main+0x85>
    22a0:	5357a423          	sw	s5,1320(a5)
    22a4:	74570393          	addi	t2,a4,1861
    22a8:	5277a623          	sw	t2,1324(a5)
    22ac:	89148e13          	addi	t3,s1,-1903
    22b0:	53c7a823          	sw	t3,1328(a5)
    22b4:	6a848b13          	addi	s6,s1,1704
    22b8:	5367aa23          	sw	s6,1332(a5)
    22bc:	27a48d13          	addi	s10,s1,634
    22c0:	53a7ac23          	sw	s10,1336(a5)
    22c4:	00003c37          	lui	s8,0x3
    22c8:	d4e70b93          	addi	s7,a4,-690
    22cc:	5377ae23          	sw	s7,1340(a5)
    22d0:	ad6c0413          	addi	s0,s8,-1322 # 2ad6 <__moddi3+0x156>
    22d4:	5487a023          	sw	s0,1344(a5)
    22d8:	b4bc0093          	addi	ra,s8,-1205
    22dc:	5417a223          	sw	ra,1348(a5)
    22e0:	db6c0913          	addi	s2,s8,-586
    22e4:	5527a423          	sw	s2,1352(a5)
    22e8:	0c000f93          	li	t6,192
    22ec:	55f7a623          	sw	t6,1356(a5)
    22f0:	ab570a13          	addi	s4,a4,-1355
    22f4:	5547a823          	sw	s4,1360(a5)
    22f8:	37c70a93          	addi	s5,a4,892
    22fc:	5557aa23          	sw	s5,1364(a5)
    2300:	7fe70393          	addi	t2,a4,2046
    2304:	5477ac23          	sw	t2,1368(a5)
    2308:	8a948e13          	addi	t3,s1,-1879
    230c:	55c7ae23          	sw	t3,1372(a5)
    2310:	f5b48b13          	addi	s6,s1,-165
    2314:	5767a023          	sw	s6,1376(a5)
    2318:	59970d13          	addi	s10,a4,1433
    231c:	57a7a223          	sw	s10,1380(a5)
    2320:	29248b93          	addi	s7,s1,658
    2324:	5777a423          	sw	s7,1384(a5)
    2328:	3f248413          	addi	s0,s1,1010
    232c:	5687a623          	sw	s0,1388(a5)
    2330:	cd648093          	addi	ra,s1,-810
    2334:	5617a823          	sw	ra,1392(a5)
    2338:	d9170f93          	addi	t6,a4,-623
    233c:	24570a13          	addi	s4,a4,581
    2340:	57f7aa23          	sw	t6,1396(a5)
    2344:	e67c0a93          	addi	s5,s8,-409
    2348:	5747ac23          	sw	s4,1400(a5)
    234c:	5757ae23          	sw	s5,1404(a5)
    2350:	3bf00393          	li	t2,959
    2354:	5877a023          	sw	t2,1408(a5)
    2358:	e47c0c13          	addi	s8,s8,-441
    235c:	5987a223          	sw	s8,1412(a5)
    2360:	5ee70b13          	addi	s6,a4,1518
    2364:	5967a423          	sw	s6,1416(a5)
    2368:	38048d13          	addi	s10,s1,896
    236c:	59a7a623          	sw	s10,1420(a5)
    2370:	94f70493          	addi	s1,a4,-1713
    2374:	5897a823          	sw	s1,1424(a5)
    2378:	d2770413          	addi	s0,a4,-729
    237c:	5887aa23          	sw	s0,1428(a5)
    2380:	77968e93          	addi	t4,a3,1913
    2384:	59d7ac23          	sw	t4,1432(a5)
    2388:	0da68f13          	addi	t5,a3,218
    238c:	59e7ae23          	sw	t5,1436(a5)
    2390:	85a68d93          	addi	s11,a3,-1958
    2394:	5bb7a023          	sw	s11,1440(a5)
    2398:	0d700e93          	li	t4,215
    239c:	5bd7a223          	sw	t4,1444(a5)
    23a0:	04c00f13          	li	t5,76
    23a4:	5be7a423          	sw	t5,1448(a5)
    23a8:	3a200d93          	li	s11,930
    23ac:	5bb7a623          	sw	s11,1452(a5)
    23b0:	8a168913          	addi	s2,a3,-1887
    23b4:	5b27a823          	sw	s2,1456(a5)
    23b8:	56d70093          	addi	ra,a4,1389
    23bc:	5a17aa23          	sw	ra,1460(a5)
    23c0:	de260e13          	addi	t3,a2,-542
    23c4:	5bc7ac23          	sw	t3,1464(a5)
    23c8:	43570a13          	addi	s4,a4,1077
    23cc:	5b47ae23          	sw	s4,1468(a5)
    23d0:	5ff68b93          	addi	s7,a3,1535
    23d4:	5d77a023          	sw	s7,1472(a5)
    23d8:	b3f70f93          	addi	t6,a4,-1217
    23dc:	5df7a223          	sw	t6,1476(a5)
    23e0:	56800393          	li	t2,1384
    23e4:	5c77a423          	sw	t2,1480(a5)
    23e8:	5c67a623          	sw	t1,1484(a5)
    23ec:	99568913          	addi	s2,a3,-1643
    23f0:	5d27a823          	sw	s2,1488(a5)
    23f4:	41368a93          	addi	s5,a3,1043
    23f8:	5d57aa23          	sw	s5,1492(a5)
    23fc:	45f00313          	li	t1,1119
    2400:	5c67ac23          	sw	t1,1496(a5)
    2404:	5d17ae23          	sw	a7,1500(a5)
    2408:	82170893          	addi	a7,a4,-2015
    240c:	5f17a023          	sw	a7,1504(a5)
    2410:	60f70e13          	addi	t3,a4,1551
    2414:	5fc7a223          	sw	t3,1508(a5)
    2418:	5f07a423          	sw	a6,1512(a5)
    241c:	d1170b13          	addi	s6,a4,-751
    2420:	5f67a623          	sw	s6,1516(a5)
    2424:	70268c13          	addi	s8,a3,1794
    2428:	5f87a823          	sw	s8,1520(a5)
    242c:	c1668813          	addi	a6,a3,-1002
    2430:	5ea7aa23          	sw	a0,1524(a5)
    2434:	16a70513          	addi	a0,a4,362
    2438:	5ea7ac23          	sw	a0,1528(a5)
    243c:	18a70b93          	addi	s7,a4,394
    2440:	5f07ae23          	sw	a6,1532(a5)
    2444:	6177a023          	sw	s7,1536(a5)
    2448:	5d468d13          	addi	s10,a3,1492
    244c:	61a7a223          	sw	s10,1540(a5)
    2450:	4fa70413          	addi	s0,a4,1274
    2454:	6087a423          	sw	s0,1544(a5)
    2458:	ad968493          	addi	s1,a3,-1319
    245c:	6097a623          	sw	s1,1548(a5)
    2460:	28800e93          	li	t4,648
    2464:	61d7a823          	sw	t4,1552(a5)
    2468:	61470d93          	addi	s11,a4,1556
    246c:	61b7aa23          	sw	s11,1556(a5)
    2470:	c3960f13          	addi	t5,a2,-967
    2474:	61e7ac23          	sw	t5,1560(a5)
    2478:	29a70913          	addi	s2,a4,666
    247c:	6127ae23          	sw	s2,1564(a5)
    2480:	8c960093          	addi	ra,a2,-1847
    2484:	6217a023          	sw	ra,1568(a5)
    2488:	0d068a93          	addi	s5,a3,208
    248c:	6357a223          	sw	s5,1572(a5)
    2490:	dc360f93          	addi	t6,a2,-573
    2494:	63f7a423          	sw	t6,1576(a5)
    2498:	9f470313          	addi	t1,a4,-1548
    249c:	6267a623          	sw	t1,1580(a5)
    24a0:	eb468393          	addi	t2,a3,-332
    24a4:	6277a823          	sw	t2,1584(a5)
    24a8:	e0b68893          	addi	a7,a3,-501
    24ac:	6317aa23          	sw	a7,1588(a5)
    24b0:	17000c13          	li	s8,368
    24b4:	6387ac23          	sw	s8,1592(a5)
    24b8:	8f060e13          	addi	t3,a2,-1808
    24bc:	63c7ae23          	sw	t3,1596(a5)
    24c0:	e4470813          	addi	a6,a4,-444
    24c4:	6507a023          	sw	a6,1600(a5)
    24c8:	79e00b13          	li	s6,1950
    24cc:	6567a223          	sw	s6,1604(a5)
    24d0:	0eb68513          	addi	a0,a3,235
    24d4:	64a7a423          	sw	a0,1608(a5)
    24d8:	6a370d13          	addi	s10,a4,1699
    24dc:	65a7a623          	sw	s10,1612(a5)
    24e0:	00400b93          	li	s7,4
    24e4:	6577a823          	sw	s7,1616(a5)
    24e8:	97d60493          	addi	s1,a2,-1667
    24ec:	6497aa23          	sw	s1,1620(a5)
    24f0:	6597ac23          	sw	s9,1624(a5)
    24f4:	da870c93          	addi	s9,a4,-600
    24f8:	6597ae23          	sw	s9,1628(a5)
    24fc:	22900413          	li	s0,553
    2500:	6687a023          	sw	s0,1632(a5)
    2504:	a7360e93          	addi	t4,a2,-1421
    2508:	67d7a223          	sw	t4,1636(a5)
    250c:	b4868f13          	addi	t5,a3,-1208
    2510:	67e7a423          	sw	t5,1640(a5)
    2514:	31070d93          	addi	s11,a4,784
    2518:	67b7a623          	sw	s11,1644(a5)
    251c:	98b60093          	addi	ra,a2,-1653
    2520:	6617a823          	sw	ra,1648(a5)
    2524:	cb770913          	addi	s2,a4,-841
    2528:	6727aa23          	sw	s2,1652(a5)
    252c:	5c868a93          	addi	s5,a3,1480
    2530:	a0960393          	addi	t2,a2,-1527
    2534:	6757ac23          	sw	s5,1656(a5)
    2538:	53070f93          	addi	t6,a4,1328
    253c:	67f7ae23          	sw	t6,1660(a5)
    2540:	bcd70313          	addi	t1,a4,-1075
    2544:	6877a023          	sw	t2,1664(a5)
    2548:	6867a223          	sw	t1,1668(a5)
    254c:	0d070893          	addi	a7,a4,208
    2550:	6917a423          	sw	a7,1672(a5)
    2554:	59200c13          	li	s8,1426
    2558:	6987a623          	sw	s8,1676(a5)
    255c:	31968e13          	addi	t3,a3,793
    2560:	69c7a823          	sw	t3,1680(a5)
    2564:	2b000813          	li	a6,688
    2568:	6907aa23          	sw	a6,1684(a5)
    256c:	e5060b13          	addi	s6,a2,-432
    2570:	6967ac23          	sw	s6,1688(a5)
    2574:	f5f68513          	addi	a0,a3,-161
    2578:	68a7ae23          	sw	a0,1692(a5)
    257c:	e8960d13          	addi	s10,a2,-375
    2580:	6ba7a023          	sw	s10,1696(a5)
    2584:	aea60b93          	addi	s7,a2,-1302
    2588:	6b77a223          	sw	s7,1700(a5)
    258c:	c6e68493          	addi	s1,a3,-914
    2590:	6a97a423          	sw	s1,1704(a5)
    2594:	6b37a623          	sw	s3,1708(a5)
    2598:	6bb68993          	addi	s3,a3,1723
    259c:	6b37a823          	sw	s3,1712(a5)
    25a0:	69470c93          	addi	s9,a4,1684
    25a4:	6b97aa23          	sw	s9,1716(a5)
    25a8:	38300413          	li	s0,899
    25ac:	6a87ac23          	sw	s0,1720(a5)
    25b0:	5fe68e93          	addi	t4,a3,1534
    25b4:	6bd7ae23          	sw	t4,1724(a5)
    25b8:	68270f13          	addi	t5,a4,1666
    25bc:	6de7a023          	sw	t5,1728(a5)
    25c0:	9f570d93          	addi	s11,a4,-1547
    25c4:	6db7a223          	sw	s11,1732(a5)
    25c8:	14068093          	addi	ra,a3,320
    25cc:	6c17a423          	sw	ra,1736(a5)
    25d0:	8be60913          	addi	s2,a2,-1858
    25d4:	6d27a623          	sw	s2,1740(a5)
    25d8:	6c77a823          	sw	t2,1744(a5)
    25dc:	6f568a93          	addi	s5,a3,1781
    25e0:	6d57aa23          	sw	s5,1748(a5)
    25e4:	ed170f93          	addi	t6,a4,-303
    25e8:	6df7ac23          	sw	t6,1752(a5)
    25ec:	86b60393          	addi	t2,a2,-1941
    25f0:	6c77ae23          	sw	t2,1756(a5)
    25f4:	bf168313          	addi	t1,a3,-1039
    25f8:	6e67a023          	sw	t1,1760(a5)
    25fc:	0ac00893          	li	a7,172
    2600:	6f17a223          	sw	a7,1764(a5)
    2604:	8a370c13          	addi	s8,a4,-1885
    2608:	6f87a423          	sw	s8,1768(a5)
    260c:	48400e13          	li	t3,1156
    2610:	6fc7a623          	sw	t3,1772(a5)
    2614:	faa70813          	addi	a6,a4,-86
    2618:	6f07a823          	sw	a6,1776(a5)
    261c:	b4d70b13          	addi	s6,a4,-1203
    2620:	6f67aa23          	sw	s6,1780(a5)
    2624:	0fc70513          	addi	a0,a4,252
    2628:	6ea7ac23          	sw	a0,1784(a5)
    262c:	edc70d13          	addi	s10,a4,-292
    2630:	6fa7ae23          	sw	s10,1788(a5)
    2634:	75d70b93          	addi	s7,a4,1885
    2638:	1a468493          	addi	s1,a3,420
    263c:	7177a023          	sw	s7,1792(a5)
    2640:	5b470993          	addi	s3,a4,1460
    2644:	7097a223          	sw	s1,1796(a5)
    2648:	7137a423          	sw	s3,1800(a5)
    264c:	b3370c93          	addi	s9,a4,-1229
    2650:	7197a623          	sw	s9,1804(a5)
    2654:	9df68413          	addi	s0,a3,-1569
    2658:	7087a823          	sw	s0,1808(a5)
    265c:	c0a68e93          	addi	t4,a3,-1014
    2660:	71d7aa23          	sw	t4,1812(a5)
    2664:	46468f13          	addi	t5,a3,1124
    2668:	71e7ac23          	sw	t5,1816(a5)
    266c:	3a068d93          	addi	s11,a3,928
    2670:	71b7ae23          	sw	s11,1820(a5)
    2674:	f4a70093          	addi	ra,a4,-182
    2678:	7217a023          	sw	ra,1824(a5)
    267c:	01400913          	li	s2,20
    2680:	7327a223          	sw	s2,1828(a5)
    2684:	f3d60a93          	addi	s5,a2,-195
    2688:	7357a423          	sw	s5,1832(a5)
    268c:	d2168f93          	addi	t6,a3,-735
    2690:	73f7a623          	sw	t6,1836(a5)
    2694:	e5d70393          	addi	t2,a4,-419
    2698:	7277a823          	sw	t2,1840(a5)
    269c:	53a00313          	li	t1,1338
    26a0:	7267aa23          	sw	t1,1844(a5)
    26a4:	49400c13          	li	s8,1172
    26a8:	7387ac23          	sw	s8,1848(a5)
    26ac:	e0070893          	addi	a7,a4,-512
    26b0:	7317ae23          	sw	a7,1852(a5)
    26b4:	c1770e13          	addi	t3,a4,-1001
    26b8:	75c7a023          	sw	t3,1856(a5)
    26bc:	dfa70813          	addi	a6,a4,-518
    26c0:	7507a223          	sw	a6,1860(a5)
    26c4:	3e268b13          	addi	s6,a3,994
    26c8:	7567a423          	sw	s6,1864(a5)
    26cc:	34670513          	addi	a0,a4,838
    26d0:	74a7a623          	sw	a0,1868(a5)
    26d4:	01668d13          	addi	s10,a3,22
    26d8:	75a7a823          	sw	s10,1872(a5)
    26dc:	7547aa23          	sw	s4,1876(a5)
    26e0:	c9560a13          	addi	s4,a2,-875
    26e4:	7547ac23          	sw	s4,1880(a5)
    26e8:	fee60b93          	addi	s7,a2,-18
    26ec:	7577ae23          	sw	s7,1884(a5)
    26f0:	6db70493          	addi	s1,a4,1755
    26f4:	7697a023          	sw	s1,1888(a5)
    26f8:	9f568993          	addi	s3,a3,-1547
    26fc:	7737a223          	sw	s3,1892(a5)
    2700:	3e568c93          	addi	s9,a3,997
    2704:	7797a423          	sw	s9,1896(a5)
    2708:	01f70413          	addi	s0,a4,31
    270c:	7687a623          	sw	s0,1900(a5)
    2710:	9da68e93          	addi	t4,a3,-1574
    2714:	77d7a823          	sw	t4,1904(a5)
    2718:	09a70f13          	addi	t5,a4,154
    271c:	77e7aa23          	sw	t5,1908(a5)
    2720:	ec260d93          	addi	s11,a2,-318
    2724:	77b7ac23          	sw	s11,1912(a5)
    2728:	66368093          	addi	ra,a3,1635
    272c:	7617ae23          	sw	ra,1916(a5)
    2730:	fc160913          	addi	s2,a2,-63
    2734:	7927a023          	sw	s2,1920(a5)
    2738:	47b68a93          	addi	s5,a3,1147
    273c:	52d70f93          	addi	t6,a4,1325
    2740:	7957a223          	sw	s5,1924(a5)
    2744:	95360393          	addi	t2,a2,-1709
    2748:	79f7a423          	sw	t6,1928(a5)
    274c:	7877a623          	sw	t2,1932(a5)
    2750:	ef260313          	addi	t1,a2,-270
    2754:	7867a823          	sw	t1,1936(a5)
    2758:	78b7aa23          	sw	a1,1940(a5)
    275c:	d9d68593          	addi	a1,a3,-611
    2760:	78b7ac23          	sw	a1,1944(a5)
    2764:	39470893          	addi	a7,a4,916
    2768:	7917ae23          	sw	a7,1948(a5)
    276c:	75300c13          	li	s8,1875
    2770:	7b87a023          	sw	s8,1952(a5)
    2774:	bc470e13          	addi	t3,a4,-1084
    2778:	7bc7a223          	sw	t3,1956(a5)
    277c:	11468813          	addi	a6,a3,276
    2780:	7b07a423          	sw	a6,1960(a5)
    2784:	43470b13          	addi	s6,a4,1076
    2788:	7b67a623          	sw	s6,1964(a5)
    278c:	1c270513          	addi	a0,a4,450
    2790:	7aa7a823          	sw	a0,1968(a5)
    2794:	8c068d13          	addi	s10,a3,-1856
    2798:	7ba7aa23          	sw	s10,1972(a5)
    279c:	a0370a13          	addi	s4,a4,-1533
    27a0:	7b47ac23          	sw	s4,1976(a5)
    27a4:	94b60b93          	addi	s7,a2,-1717
    27a8:	7b77ae23          	sw	s7,1980(a5)
    27ac:	faf68493          	addi	s1,a3,-81
    27b0:	7c97a023          	sw	s1,1984(a5)
    27b4:	ca460993          	addi	s3,a2,-860
    27b8:	7d37a223          	sw	s3,1988(a5)
    27bc:	13870c93          	addi	s9,a4,312
    27c0:	7d97a423          	sw	s9,1992(a5)
    27c4:	7c57a623          	sw	t0,1996(a5)
    27c8:	ff168293          	addi	t0,a3,-15
    27cc:	7c57a823          	sw	t0,2000(a5)
    27d0:	e4270413          	addi	s0,a4,-446
    27d4:	7c87aa23          	sw	s0,2004(a5)
    27d8:	a6768e93          	addi	t4,a3,-1433
    27dc:	7dd7ac23          	sw	t4,2008(a5)
    27e0:	9cc60f13          	addi	t5,a2,-1588
    27e4:	7de7ae23          	sw	t5,2012(a5)
    27e8:	3ff68d93          	addi	s11,a3,1023
    27ec:	7fb7a023          	sw	s11,2016(a5)
    27f0:	9f370093          	addi	ra,a4,-1549
    27f4:	7e17a223          	sw	ra,2020(a5)
    27f8:	59e70913          	addi	s2,a4,1438
    27fc:	7f27a423          	sw	s2,2024(a5)
    2800:	b1e70a93          	addi	s5,a4,-1250
    2804:	7f57a623          	sw	s5,2028(a5)
    2808:	84c70f93          	addi	t6,a4,-1972
    280c:	7ff7a823          	sw	t6,2032(a5)
    2810:	26970713          	addi	a4,a4,617
    2814:	7ee7aa23          	sw	a4,2036(a5)
    2818:	0f068693          	addi	a3,a3,240
    281c:	7ed7ac23          	sw	a3,2040(a5)
    2820:	ebc60613          	addi	a2,a2,-324
    2824:	7ec7ae23          	sw	a2,2044(a5)
    2828:	00480537          	lui	a0,0x480
    282c:	0a4000ef          	jal	ra,28d0 <add>
    2830:	03200b13          	li	s6,50
    2834:	00004c37          	lui	s8,0x4
    2838:	878c0513          	addi	a0,s8,-1928 # 3878 <__clz_tab+0x100>
    283c:	dd1fe0ef          	jal	ra,160c <sc_printf.constprop.0>
    2840:	878c0513          	addi	a0,s8,-1928
    2844:	dc9fe0ef          	jal	ra,160c <sc_printf.constprop.0>
    2848:	878c0513          	addi	a0,s8,-1928
    284c:	dc1fe0ef          	jal	ra,160c <sc_printf.constprop.0>
    2850:	878c0513          	addi	a0,s8,-1928
    2854:	db9fe0ef          	jal	ra,160c <sc_printf.constprop.0>
    2858:	878c0513          	addi	a0,s8,-1928
    285c:	db1fe0ef          	jal	ra,160c <sc_printf.constprop.0>
    2860:	878c0513          	addi	a0,s8,-1928
    2864:	da9fe0ef          	jal	ra,160c <sc_printf.constprop.0>
    2868:	878c0513          	addi	a0,s8,-1928
    286c:	da1fe0ef          	jal	ra,160c <sc_printf.constprop.0>
    2870:	878c0513          	addi	a0,s8,-1928
    2874:	d99fe0ef          	jal	ra,160c <sc_printf.constprop.0>
    2878:	878c0513          	addi	a0,s8,-1928
    287c:	d91fe0ef          	jal	ra,160c <sc_printf.constprop.0>
    2880:	ff6b0b13          	addi	s6,s6,-10
    2884:	878c0513          	addi	a0,s8,-1928
    2888:	d85fe0ef          	jal	ra,160c <sc_printf.constprop.0>
    288c:	fa0b16e3          	bnez	s6,2838 <main+0x10a4>
    2890:	03c12083          	lw	ra,60(sp)
    2894:	03812403          	lw	s0,56(sp)
    2898:	03412483          	lw	s1,52(sp)
    289c:	03012903          	lw	s2,48(sp)
    28a0:	02c12983          	lw	s3,44(sp)
    28a4:	02812a03          	lw	s4,40(sp)
    28a8:	02412a83          	lw	s5,36(sp)
    28ac:	02012b03          	lw	s6,32(sp)
    28b0:	01c12b83          	lw	s7,28(sp)
    28b4:	01812c03          	lw	s8,24(sp)
    28b8:	01412c83          	lw	s9,20(sp)
    28bc:	01012d03          	lw	s10,16(sp)
    28c0:	00c12d83          	lw	s11,12(sp)
    28c4:	00000513          	li	a0,0
    28c8:	04010113          	addi	sp,sp,64
    28cc:	00008067          	ret

000028d0 <add>:
    28d0:	1141                	addi	sp,sp,-16
    28d2:	0001                	nop
    28d4:	0001                	nop
    28d6:	0001                	nop
    28d8:	0001                	nop
    28da:	0001                	nop
    28dc:	0001                	nop
    28de:	0001                	nop
    28e0:	0001                	nop
    28e2:	0001                	nop
    28e4:	0001                	nop
    28e6:	0001                	nop
    28e8:	0001                	nop
    28ea:	0001                	nop
    28ec:	0001                	nop
    28ee:	0001                	nop
    28f0:	0001                	nop
    28f2:	0001                	nop
    28f4:	0001                	nop
    28f6:	0001                	nop
    28f8:	0001                	nop
    28fa:	0001                	nop
    28fc:	0001                	nop
    28fe:	0001                	nop
    2900:	0001                	nop
    2902:	0001                	nop
    2904:	0001                	nop
    2906:	0001                	nop
    2908:	0001                	nop
    290a:	0001                	nop
    290c:	0001                	nop
    290e:	0001                	nop
    2910:	0001                	nop
    2912:	0001                	nop
    2914:	0001                	nop
    2916:	0001                	nop
    2918:	0001                	nop
    291a:	0001                	nop
    291c:	0001                	nop
    291e:	0001                	nop
    2920:	0001                	nop
    2922:	0001                	nop
    2924:	0001                	nop
    2926:	0001                	nop
    2928:	0001                	nop
    292a:	0001                	nop
    292c:	0001                	nop
    292e:	0001                	nop
    2930:	0001                	nop
    2932:	0001                	nop
    2934:	0001                	nop
    2936:	0001                	nop
    2938:	0001                	nop
    293a:	0001                	nop
    293c:	0001                	nop
    293e:	0001                	nop
    2940:	0001                	nop
    2942:	0001                	nop
    2944:	0001                	nop
    2946:	0001                	nop
    2948:	0001                	nop
    294a:	0001                	nop
    294c:	0001                	nop
    294e:	0001                	nop
    2950:	0001                	nop
    2952:	0001                	nop
    2954:	0001                	nop
    2956:	0141                	addi	sp,sp,16
    2958:	8082                	ret
	...

0000295c <strnlen>:
    295c:	00b505b3          	add	a1,a0,a1
    2960:	00050793          	mv	a5,a0
    2964:	00b78663          	beq	a5,a1,2970 <strnlen+0x14>
    2968:	0007c703          	lbu	a4,0(a5)
    296c:	00071663          	bnez	a4,2978 <strnlen+0x1c>
    2970:	40a78533          	sub	a0,a5,a0
    2974:	00008067          	ret
    2978:	00178793          	addi	a5,a5,1
    297c:	fe9ff06f          	j	2964 <strnlen+0x8>

00002980 <__moddi3>:
    2980:	00000893          	li	a7,0
    2984:	0005dc63          	bgez	a1,299c <__moddi3+0x1c>
    2988:	40a00533          	neg	a0,a0
    298c:	00a037b3          	snez	a5,a0
    2990:	40b005b3          	neg	a1,a1
    2994:	40f585b3          	sub	a1,a1,a5
    2998:	fff00893          	li	a7,-1
    299c:	0006da63          	bgez	a3,29b0 <__moddi3+0x30>
    29a0:	40c00633          	neg	a2,a2
    29a4:	00c037b3          	snez	a5,a2
    29a8:	40d006b3          	neg	a3,a3
    29ac:	40f686b3          	sub	a3,a3,a5
    29b0:	00060813          	mv	a6,a2
    29b4:	00068313          	mv	t1,a3
    29b8:	00050793          	mv	a5,a0
    29bc:	00058713          	mv	a4,a1
    29c0:	24069863          	bnez	a3,2c10 <__moddi3+0x290>
    29c4:	000036b7          	lui	a3,0x3
    29c8:	77868693          	addi	a3,a3,1912 # 3778 <__clz_tab>
    29cc:	0ec5f863          	bleu	a2,a1,2abc <__moddi3+0x13c>
    29d0:	00010e37          	lui	t3,0x10
    29d4:	0dc67a63          	bleu	t3,a2,2aa8 <__moddi3+0x128>
    29d8:	0ff00e13          	li	t3,255
    29dc:	00ce7463          	bleu	a2,t3,29e4 <__moddi3+0x64>
    29e0:	00800313          	li	t1,8
    29e4:	00665e33          	srl	t3,a2,t1
    29e8:	01c686b3          	add	a3,a3,t3
    29ec:	0006ce03          	lbu	t3,0(a3)
    29f0:	006e0e33          	add	t3,t3,t1
    29f4:	02000313          	li	t1,32
    29f8:	41c30333          	sub	t1,t1,t3
    29fc:	00030c63          	beqz	t1,2a14 <__moddi3+0x94>
    2a00:	006595b3          	sll	a1,a1,t1
    2a04:	01c55e33          	srl	t3,a0,t3
    2a08:	00661833          	sll	a6,a2,t1
    2a0c:	00be6733          	or	a4,t3,a1
    2a10:	006517b3          	sll	a5,a0,t1
    2a14:	01085593          	srli	a1,a6,0x10
    2a18:	02b77633          	remu	a2,a4,a1
    2a1c:	01081513          	slli	a0,a6,0x10
    2a20:	01055513          	srli	a0,a0,0x10
    2a24:	0107d693          	srli	a3,a5,0x10
    2a28:	02b75733          	divu	a4,a4,a1
    2a2c:	01061613          	slli	a2,a2,0x10
    2a30:	00d666b3          	or	a3,a2,a3
    2a34:	02e50733          	mul	a4,a0,a4
    2a38:	00e6fa63          	bleu	a4,a3,2a4c <__moddi3+0xcc>
    2a3c:	010686b3          	add	a3,a3,a6
    2a40:	0106e663          	bltu	a3,a6,2a4c <__moddi3+0xcc>
    2a44:	00e6f463          	bleu	a4,a3,2a4c <__moddi3+0xcc>
    2a48:	010686b3          	add	a3,a3,a6
    2a4c:	40e686b3          	sub	a3,a3,a4
    2a50:	02b6f733          	remu	a4,a3,a1
    2a54:	01079793          	slli	a5,a5,0x10
    2a58:	0107d793          	srli	a5,a5,0x10
    2a5c:	02b6d6b3          	divu	a3,a3,a1
    2a60:	02d506b3          	mul	a3,a0,a3
    2a64:	01071513          	slli	a0,a4,0x10
    2a68:	00f567b3          	or	a5,a0,a5
    2a6c:	00d7fa63          	bleu	a3,a5,2a80 <__moddi3+0x100>
    2a70:	010787b3          	add	a5,a5,a6
    2a74:	0107e663          	bltu	a5,a6,2a80 <__moddi3+0x100>
    2a78:	00d7f463          	bleu	a3,a5,2a80 <__moddi3+0x100>
    2a7c:	010787b3          	add	a5,a5,a6
    2a80:	40d787b3          	sub	a5,a5,a3
    2a84:	0067d533          	srl	a0,a5,t1
    2a88:	00000593          	li	a1,0
    2a8c:	00088c63          	beqz	a7,2aa4 <__moddi3+0x124>
    2a90:	40a007b3          	neg	a5,a0
    2a94:	00f03733          	snez	a4,a5
    2a98:	40b005b3          	neg	a1,a1
    2a9c:	00078513          	mv	a0,a5
    2aa0:	40e585b3          	sub	a1,a1,a4
    2aa4:	00008067          	ret
    2aa8:	01000e37          	lui	t3,0x1000
    2aac:	01000313          	li	t1,16
    2ab0:	f3c66ae3          	bltu	a2,t3,29e4 <__moddi3+0x64>
    2ab4:	01800313          	li	t1,24
    2ab8:	f2dff06f          	j	29e4 <__moddi3+0x64>
    2abc:	00061663          	bnez	a2,2ac8 <__moddi3+0x148>
    2ac0:	00100813          	li	a6,1
    2ac4:	02685833          	divu	a6,a6,t1
    2ac8:	00010737          	lui	a4,0x10
    2acc:	0ae87263          	bleu	a4,a6,2b70 <__moddi3+0x1f0>
    2ad0:	0ff00713          	li	a4,255
    2ad4:	01077463          	bleu	a6,a4,2adc <__moddi3+0x15c>
    2ad8:	00800313          	li	t1,8
    2adc:	00685733          	srl	a4,a6,t1
    2ae0:	00e686b3          	add	a3,a3,a4
    2ae4:	0006ce03          	lbu	t3,0(a3)
    2ae8:	006e0e33          	add	t3,t3,t1
    2aec:	02000313          	li	t1,32
    2af0:	41c30333          	sub	t1,t1,t3
    2af4:	08031863          	bnez	t1,2b84 <__moddi3+0x204>
    2af8:	410585b3          	sub	a1,a1,a6
    2afc:	01085693          	srli	a3,a6,0x10
    2b00:	01081513          	slli	a0,a6,0x10
    2b04:	01055513          	srli	a0,a0,0x10
    2b08:	0107d613          	srli	a2,a5,0x10
    2b0c:	02d5f733          	remu	a4,a1,a3
    2b10:	02d5d5b3          	divu	a1,a1,a3
    2b14:	01071713          	slli	a4,a4,0x10
    2b18:	00c76733          	or	a4,a4,a2
    2b1c:	02b505b3          	mul	a1,a0,a1
    2b20:	00b77a63          	bleu	a1,a4,2b34 <__moddi3+0x1b4>
    2b24:	01070733          	add	a4,a4,a6
    2b28:	01076663          	bltu	a4,a6,2b34 <__moddi3+0x1b4>
    2b2c:	00b77463          	bleu	a1,a4,2b34 <__moddi3+0x1b4>
    2b30:	01070733          	add	a4,a4,a6
    2b34:	40b705b3          	sub	a1,a4,a1
    2b38:	02d5f733          	remu	a4,a1,a3
    2b3c:	01079793          	slli	a5,a5,0x10
    2b40:	0107d793          	srli	a5,a5,0x10
    2b44:	02d5d5b3          	divu	a1,a1,a3
    2b48:	02b505b3          	mul	a1,a0,a1
    2b4c:	01071513          	slli	a0,a4,0x10
    2b50:	00f567b3          	or	a5,a0,a5
    2b54:	00b7fa63          	bleu	a1,a5,2b68 <__moddi3+0x1e8>
    2b58:	010787b3          	add	a5,a5,a6
    2b5c:	0107e663          	bltu	a5,a6,2b68 <__moddi3+0x1e8>
    2b60:	00b7f463          	bleu	a1,a5,2b68 <__moddi3+0x1e8>
    2b64:	010787b3          	add	a5,a5,a6
    2b68:	40b787b3          	sub	a5,a5,a1
    2b6c:	f19ff06f          	j	2a84 <__moddi3+0x104>
    2b70:	01000737          	lui	a4,0x1000
    2b74:	01000313          	li	t1,16
    2b78:	f6e862e3          	bltu	a6,a4,2adc <__moddi3+0x15c>
    2b7c:	01800313          	li	t1,24
    2b80:	f5dff06f          	j	2adc <__moddi3+0x15c>
    2b84:	00681833          	sll	a6,a6,t1
    2b88:	01c5deb3          	srl	t4,a1,t3
    2b8c:	006517b3          	sll	a5,a0,t1
    2b90:	01c55e33          	srl	t3,a0,t3
    2b94:	01085513          	srli	a0,a6,0x10
    2b98:	02aed6b3          	divu	a3,t4,a0
    2b9c:	006595b3          	sll	a1,a1,t1
    2ba0:	00be6e33          	or	t3,t3,a1
    2ba4:	01081593          	slli	a1,a6,0x10
    2ba8:	0105d593          	srli	a1,a1,0x10
    2bac:	010e5613          	srli	a2,t3,0x10
    2bb0:	02aef733          	remu	a4,t4,a0
    2bb4:	02d586b3          	mul	a3,a1,a3
    2bb8:	01071713          	slli	a4,a4,0x10
    2bbc:	00c76733          	or	a4,a4,a2
    2bc0:	00d77a63          	bleu	a3,a4,2bd4 <__moddi3+0x254>
    2bc4:	01070733          	add	a4,a4,a6
    2bc8:	01076663          	bltu	a4,a6,2bd4 <__moddi3+0x254>
    2bcc:	00d77463          	bleu	a3,a4,2bd4 <__moddi3+0x254>
    2bd0:	01070733          	add	a4,a4,a6
    2bd4:	40d70633          	sub	a2,a4,a3
    2bd8:	02a67733          	remu	a4,a2,a0
    2bdc:	010e1e13          	slli	t3,t3,0x10
    2be0:	010e5e13          	srli	t3,t3,0x10
    2be4:	02a65633          	divu	a2,a2,a0
    2be8:	01071713          	slli	a4,a4,0x10
    2bec:	02c58633          	mul	a2,a1,a2
    2bf0:	01c765b3          	or	a1,a4,t3
    2bf4:	00c5fa63          	bleu	a2,a1,2c08 <__moddi3+0x288>
    2bf8:	010585b3          	add	a1,a1,a6
    2bfc:	0105e663          	bltu	a1,a6,2c08 <__moddi3+0x288>
    2c00:	00c5f463          	bleu	a2,a1,2c08 <__moddi3+0x288>
    2c04:	010585b3          	add	a1,a1,a6
    2c08:	40c585b3          	sub	a1,a1,a2
    2c0c:	ef1ff06f          	j	2afc <__moddi3+0x17c>
    2c10:	e6d5eee3          	bltu	a1,a3,2a8c <__moddi3+0x10c>
    2c14:	00010837          	lui	a6,0x10
    2c18:	0506fc63          	bleu	a6,a3,2c70 <__moddi3+0x2f0>
    2c1c:	0ff00e93          	li	t4,255
    2c20:	00deb833          	sltu	a6,t4,a3
    2c24:	00381813          	slli	a6,a6,0x3
    2c28:	00003e37          	lui	t3,0x3
    2c2c:	778e0e13          	addi	t3,t3,1912 # 3778 <__clz_tab>
    2c30:	0106d333          	srl	t1,a3,a6
    2c34:	01c30333          	add	t1,t1,t3
    2c38:	00034e83          	lbu	t4,0(t1)
    2c3c:	02000e13          	li	t3,32
    2c40:	010e8eb3          	add	t4,t4,a6
    2c44:	41de0e33          	sub	t3,t3,t4
    2c48:	020e1e63          	bnez	t3,2c84 <__moddi3+0x304>
    2c4c:	00b6e463          	bltu	a3,a1,2c54 <__moddi3+0x2d4>
    2c50:	00c56a63          	bltu	a0,a2,2c64 <__moddi3+0x2e4>
    2c54:	40c507b3          	sub	a5,a0,a2
    2c58:	40d586b3          	sub	a3,a1,a3
    2c5c:	00f53533          	sltu	a0,a0,a5
    2c60:	40a68733          	sub	a4,a3,a0
    2c64:	00078513          	mv	a0,a5
    2c68:	00070593          	mv	a1,a4
    2c6c:	e21ff06f          	j	2a8c <__moddi3+0x10c>
    2c70:	01000337          	lui	t1,0x1000
    2c74:	01000813          	li	a6,16
    2c78:	fa66e8e3          	bltu	a3,t1,2c28 <__moddi3+0x2a8>
    2c7c:	01800813          	li	a6,24
    2c80:	fa9ff06f          	j	2c28 <__moddi3+0x2a8>
    2c84:	01d65733          	srl	a4,a2,t4
    2c88:	01c696b3          	sll	a3,a3,t3
    2c8c:	00d766b3          	or	a3,a4,a3
    2c90:	01d5d7b3          	srl	a5,a1,t4
    2c94:	01d55733          	srl	a4,a0,t4
    2c98:	01c595b3          	sll	a1,a1,t3
    2c9c:	00b76733          	or	a4,a4,a1
    2ca0:	0106d593          	srli	a1,a3,0x10
    2ca4:	02b7f333          	remu	t1,a5,a1
    2ca8:	01069f13          	slli	t5,a3,0x10
    2cac:	010f5f13          	srli	t5,t5,0x10
    2cb0:	01075813          	srli	a6,a4,0x10
    2cb4:	01c61633          	sll	a2,a2,t3
    2cb8:	01c51533          	sll	a0,a0,t3
    2cbc:	02b7d7b3          	divu	a5,a5,a1
    2cc0:	01031313          	slli	t1,t1,0x10
    2cc4:	01036833          	or	a6,t1,a6
    2cc8:	02ff0fb3          	mul	t6,t5,a5
    2ccc:	00078313          	mv	t1,a5
    2cd0:	01f87e63          	bleu	t6,a6,2cec <__moddi3+0x36c>
    2cd4:	00d80833          	add	a6,a6,a3
    2cd8:	fff78313          	addi	t1,a5,-1
    2cdc:	00d86863          	bltu	a6,a3,2cec <__moddi3+0x36c>
    2ce0:	01f87663          	bleu	t6,a6,2cec <__moddi3+0x36c>
    2ce4:	ffe78313          	addi	t1,a5,-2
    2ce8:	00d80833          	add	a6,a6,a3
    2cec:	41f80833          	sub	a6,a6,t6
    2cf0:	02b87fb3          	remu	t6,a6,a1
    2cf4:	02b85833          	divu	a6,a6,a1
    2cf8:	010f9f93          	slli	t6,t6,0x10
    2cfc:	030f05b3          	mul	a1,t5,a6
    2d00:	01071f13          	slli	t5,a4,0x10
    2d04:	010f5f13          	srli	t5,t5,0x10
    2d08:	01efef33          	or	t5,t6,t5
    2d0c:	00080713          	mv	a4,a6
    2d10:	00bf7e63          	bleu	a1,t5,2d2c <__moddi3+0x3ac>
    2d14:	00df0f33          	add	t5,t5,a3
    2d18:	fff80713          	addi	a4,a6,-1 # ffff <_gp+0xbf5f>
    2d1c:	00df6863          	bltu	t5,a3,2d2c <__moddi3+0x3ac>
    2d20:	00bf7663          	bleu	a1,t5,2d2c <__moddi3+0x3ac>
    2d24:	ffe80713          	addi	a4,a6,-2
    2d28:	00df0f33          	add	t5,t5,a3
    2d2c:	01031313          	slli	t1,t1,0x10
    2d30:	00010fb7          	lui	t6,0x10
    2d34:	00e36333          	or	t1,t1,a4
    2d38:	ffff8793          	addi	a5,t6,-1 # ffff <_gp+0xbf5f>
    2d3c:	01065813          	srli	a6,a2,0x10
    2d40:	40bf0f33          	sub	t5,t5,a1
    2d44:	00f375b3          	and	a1,t1,a5
    2d48:	01035313          	srli	t1,t1,0x10
    2d4c:	00f677b3          	and	a5,a2,a5
    2d50:	02f58733          	mul	a4,a1,a5
    2d54:	02f307b3          	mul	a5,t1,a5
    2d58:	030585b3          	mul	a1,a1,a6
    2d5c:	03030333          	mul	t1,t1,a6
    2d60:	00f585b3          	add	a1,a1,a5
    2d64:	01075813          	srli	a6,a4,0x10
    2d68:	00b80833          	add	a6,a6,a1
    2d6c:	00f87463          	bleu	a5,a6,2d74 <__moddi3+0x3f4>
    2d70:	01f30333          	add	t1,t1,t6
    2d74:	000107b7          	lui	a5,0x10
    2d78:	fff78793          	addi	a5,a5,-1 # ffff <_gp+0xbf5f>
    2d7c:	01085593          	srli	a1,a6,0x10
    2d80:	00f87833          	and	a6,a6,a5
    2d84:	01081813          	slli	a6,a6,0x10
    2d88:	00f77733          	and	a4,a4,a5
    2d8c:	006585b3          	add	a1,a1,t1
    2d90:	00e80733          	add	a4,a6,a4
    2d94:	00bf6663          	bltu	t5,a1,2da0 <__moddi3+0x420>
    2d98:	00bf1e63          	bne	t5,a1,2db4 <__moddi3+0x434>
    2d9c:	00e57c63          	bleu	a4,a0,2db4 <__moddi3+0x434>
    2da0:	40c70633          	sub	a2,a4,a2
    2da4:	00c73733          	sltu	a4,a4,a2
    2da8:	40d585b3          	sub	a1,a1,a3
    2dac:	40e585b3          	sub	a1,a1,a4
    2db0:	00060713          	mv	a4,a2
    2db4:	40e50733          	sub	a4,a0,a4
    2db8:	00e53533          	sltu	a0,a0,a4
    2dbc:	40bf05b3          	sub	a1,t5,a1
    2dc0:	40a585b3          	sub	a1,a1,a0
    2dc4:	01d597b3          	sll	a5,a1,t4
    2dc8:	01c75733          	srl	a4,a4,t3
    2dcc:	00e7e533          	or	a0,a5,a4
    2dd0:	01c5d5b3          	srl	a1,a1,t3
    2dd4:	cb9ff06f          	j	2a8c <__moddi3+0x10c>

00002dd8 <__udivdi3>:
    2dd8:	00058793          	mv	a5,a1
    2ddc:	00060813          	mv	a6,a2
    2de0:	00068893          	mv	a7,a3
    2de4:	00050313          	mv	t1,a0
    2de8:	28069663          	bnez	a3,3074 <__udivdi3+0x29c>
    2dec:	00003737          	lui	a4,0x3
    2df0:	77870713          	addi	a4,a4,1912 # 3778 <__clz_tab>
    2df4:	0ec5f663          	bleu	a2,a1,2ee0 <__udivdi3+0x108>
    2df8:	000106b7          	lui	a3,0x10
    2dfc:	0cd67863          	bleu	a3,a2,2ecc <__udivdi3+0xf4>
    2e00:	0ff00693          	li	a3,255
    2e04:	00c6b6b3          	sltu	a3,a3,a2
    2e08:	00369693          	slli	a3,a3,0x3
    2e0c:	00d658b3          	srl	a7,a2,a3
    2e10:	01170733          	add	a4,a4,a7
    2e14:	00074703          	lbu	a4,0(a4)
    2e18:	00d706b3          	add	a3,a4,a3
    2e1c:	02000713          	li	a4,32
    2e20:	40d70733          	sub	a4,a4,a3
    2e24:	00070c63          	beqz	a4,2e3c <__udivdi3+0x64>
    2e28:	00e797b3          	sll	a5,a5,a4
    2e2c:	00d556b3          	srl	a3,a0,a3
    2e30:	00e61833          	sll	a6,a2,a4
    2e34:	00f6e5b3          	or	a1,a3,a5
    2e38:	00e51333          	sll	t1,a0,a4
    2e3c:	01085513          	srli	a0,a6,0x10
    2e40:	02a5d7b3          	divu	a5,a1,a0
    2e44:	01081613          	slli	a2,a6,0x10
    2e48:	01065613          	srli	a2,a2,0x10
    2e4c:	01035693          	srli	a3,t1,0x10
    2e50:	02a5f733          	remu	a4,a1,a0
    2e54:	02f605b3          	mul	a1,a2,a5
    2e58:	01071713          	slli	a4,a4,0x10
    2e5c:	00d766b3          	or	a3,a4,a3
    2e60:	00078713          	mv	a4,a5
    2e64:	00b6fe63          	bleu	a1,a3,2e80 <__udivdi3+0xa8>
    2e68:	010686b3          	add	a3,a3,a6
    2e6c:	fff78713          	addi	a4,a5,-1
    2e70:	0106e863          	bltu	a3,a6,2e80 <__udivdi3+0xa8>
    2e74:	00b6f663          	bleu	a1,a3,2e80 <__udivdi3+0xa8>
    2e78:	ffe78713          	addi	a4,a5,-2
    2e7c:	010686b3          	add	a3,a3,a6
    2e80:	40b686b3          	sub	a3,a3,a1
    2e84:	02a6f7b3          	remu	a5,a3,a0
    2e88:	01031313          	slli	t1,t1,0x10
    2e8c:	01035313          	srli	t1,t1,0x10
    2e90:	02a6d6b3          	divu	a3,a3,a0
    2e94:	01079793          	slli	a5,a5,0x10
    2e98:	0067e333          	or	t1,a5,t1
    2e9c:	02d605b3          	mul	a1,a2,a3
    2ea0:	00068513          	mv	a0,a3
    2ea4:	00b37c63          	bleu	a1,t1,2ebc <__udivdi3+0xe4>
    2ea8:	00680333          	add	t1,a6,t1
    2eac:	fff68513          	addi	a0,a3,-1 # ffff <_gp+0xbf5f>
    2eb0:	01036663          	bltu	t1,a6,2ebc <__udivdi3+0xe4>
    2eb4:	00b37463          	bleu	a1,t1,2ebc <__udivdi3+0xe4>
    2eb8:	ffe68513          	addi	a0,a3,-2
    2ebc:	01071713          	slli	a4,a4,0x10
    2ec0:	00a76733          	or	a4,a4,a0
    2ec4:	00000593          	li	a1,0
    2ec8:	0e40006f          	j	2fac <__udivdi3+0x1d4>
    2ecc:	010008b7          	lui	a7,0x1000
    2ed0:	01000693          	li	a3,16
    2ed4:	f3166ce3          	bltu	a2,a7,2e0c <__udivdi3+0x34>
    2ed8:	01800693          	li	a3,24
    2edc:	f31ff06f          	j	2e0c <__udivdi3+0x34>
    2ee0:	00061663          	bnez	a2,2eec <__udivdi3+0x114>
    2ee4:	00100693          	li	a3,1
    2ee8:	02c6d833          	divu	a6,a3,a2
    2eec:	000106b7          	lui	a3,0x10
    2ef0:	0cd87263          	bleu	a3,a6,2fb4 <__udivdi3+0x1dc>
    2ef4:	0ff00693          	li	a3,255
    2ef8:	0106f463          	bleu	a6,a3,2f00 <__udivdi3+0x128>
    2efc:	00800893          	li	a7,8
    2f00:	011856b3          	srl	a3,a6,a7
    2f04:	00d70733          	add	a4,a4,a3
    2f08:	00074683          	lbu	a3,0(a4)
    2f0c:	02000713          	li	a4,32
    2f10:	011686b3          	add	a3,a3,a7
    2f14:	40d70733          	sub	a4,a4,a3
    2f18:	0a071863          	bnez	a4,2fc8 <__udivdi3+0x1f0>
    2f1c:	410787b3          	sub	a5,a5,a6
    2f20:	00100593          	li	a1,1
    2f24:	01085613          	srli	a2,a6,0x10
    2f28:	01081893          	slli	a7,a6,0x10
    2f2c:	0108d893          	srli	a7,a7,0x10
    2f30:	01035693          	srli	a3,t1,0x10
    2f34:	02c7f733          	remu	a4,a5,a2
    2f38:	02c7d7b3          	divu	a5,a5,a2
    2f3c:	01071713          	slli	a4,a4,0x10
    2f40:	00d766b3          	or	a3,a4,a3
    2f44:	02f88533          	mul	a0,a7,a5
    2f48:	00078713          	mv	a4,a5
    2f4c:	00a6fe63          	bleu	a0,a3,2f68 <__udivdi3+0x190>
    2f50:	010686b3          	add	a3,a3,a6
    2f54:	fff78713          	addi	a4,a5,-1
    2f58:	0106e863          	bltu	a3,a6,2f68 <__udivdi3+0x190>
    2f5c:	00a6f663          	bleu	a0,a3,2f68 <__udivdi3+0x190>
    2f60:	ffe78713          	addi	a4,a5,-2
    2f64:	010686b3          	add	a3,a3,a6
    2f68:	40a686b3          	sub	a3,a3,a0
    2f6c:	02c6f7b3          	remu	a5,a3,a2
    2f70:	01031313          	slli	t1,t1,0x10
    2f74:	01035313          	srli	t1,t1,0x10
    2f78:	02c6d6b3          	divu	a3,a3,a2
    2f7c:	01079793          	slli	a5,a5,0x10
    2f80:	0067e333          	or	t1,a5,t1
    2f84:	02d888b3          	mul	a7,a7,a3
    2f88:	00068513          	mv	a0,a3
    2f8c:	01137c63          	bleu	a7,t1,2fa4 <__udivdi3+0x1cc>
    2f90:	00680333          	add	t1,a6,t1
    2f94:	fff68513          	addi	a0,a3,-1 # ffff <_gp+0xbf5f>
    2f98:	01036663          	bltu	t1,a6,2fa4 <__udivdi3+0x1cc>
    2f9c:	01137463          	bleu	a7,t1,2fa4 <__udivdi3+0x1cc>
    2fa0:	ffe68513          	addi	a0,a3,-2
    2fa4:	01071713          	slli	a4,a4,0x10
    2fa8:	00a76733          	or	a4,a4,a0
    2fac:	00070513          	mv	a0,a4
    2fb0:	00008067          	ret
    2fb4:	010006b7          	lui	a3,0x1000
    2fb8:	01000893          	li	a7,16
    2fbc:	f4d862e3          	bltu	a6,a3,2f00 <__udivdi3+0x128>
    2fc0:	01800893          	li	a7,24
    2fc4:	f3dff06f          	j	2f00 <__udivdi3+0x128>
    2fc8:	00e81833          	sll	a6,a6,a4
    2fcc:	00d7d5b3          	srl	a1,a5,a3
    2fd0:	00e51333          	sll	t1,a0,a4
    2fd4:	00d556b3          	srl	a3,a0,a3
    2fd8:	01085513          	srli	a0,a6,0x10
    2fdc:	00e797b3          	sll	a5,a5,a4
    2fe0:	02a5f733          	remu	a4,a1,a0
    2fe4:	00f6e8b3          	or	a7,a3,a5
    2fe8:	01081793          	slli	a5,a6,0x10
    2fec:	0107d793          	srli	a5,a5,0x10
    2ff0:	0108d613          	srli	a2,a7,0x10
    2ff4:	02a5d5b3          	divu	a1,a1,a0
    2ff8:	01071713          	slli	a4,a4,0x10
    2ffc:	00c76733          	or	a4,a4,a2
    3000:	02b786b3          	mul	a3,a5,a1
    3004:	00058613          	mv	a2,a1
    3008:	00d77e63          	bleu	a3,a4,3024 <__udivdi3+0x24c>
    300c:	01070733          	add	a4,a4,a6
    3010:	fff58613          	addi	a2,a1,-1
    3014:	01076863          	bltu	a4,a6,3024 <__udivdi3+0x24c>
    3018:	00d77663          	bleu	a3,a4,3024 <__udivdi3+0x24c>
    301c:	ffe58613          	addi	a2,a1,-2
    3020:	01070733          	add	a4,a4,a6
    3024:	40d706b3          	sub	a3,a4,a3
    3028:	02a6f733          	remu	a4,a3,a0
    302c:	01089893          	slli	a7,a7,0x10
    3030:	0108d893          	srli	a7,a7,0x10
    3034:	02a6d6b3          	divu	a3,a3,a0
    3038:	01071713          	slli	a4,a4,0x10
    303c:	02d785b3          	mul	a1,a5,a3
    3040:	011767b3          	or	a5,a4,a7
    3044:	00068713          	mv	a4,a3
    3048:	00b7fe63          	bleu	a1,a5,3064 <__udivdi3+0x28c>
    304c:	010787b3          	add	a5,a5,a6
    3050:	fff68713          	addi	a4,a3,-1 # ffffff <__C_STACK_TOP__+0xfeffff>
    3054:	0107e863          	bltu	a5,a6,3064 <__udivdi3+0x28c>
    3058:	00b7f663          	bleu	a1,a5,3064 <__udivdi3+0x28c>
    305c:	ffe68713          	addi	a4,a3,-2
    3060:	010787b3          	add	a5,a5,a6
    3064:	40b787b3          	sub	a5,a5,a1
    3068:	01061593          	slli	a1,a2,0x10
    306c:	00e5e5b3          	or	a1,a1,a4
    3070:	eb5ff06f          	j	2f24 <__udivdi3+0x14c>
    3074:	18d5e663          	bltu	a1,a3,3200 <__udivdi3+0x428>
    3078:	00010737          	lui	a4,0x10
    307c:	04e6f463          	bleu	a4,a3,30c4 <__udivdi3+0x2ec>
    3080:	0ff00813          	li	a6,255
    3084:	00d83733          	sltu	a4,a6,a3
    3088:	00371713          	slli	a4,a4,0x3
    308c:	00003837          	lui	a6,0x3
    3090:	77880813          	addi	a6,a6,1912 # 3778 <__clz_tab>
    3094:	00e6d5b3          	srl	a1,a3,a4
    3098:	010585b3          	add	a1,a1,a6
    309c:	0005c803          	lbu	a6,0(a1)
    30a0:	02000593          	li	a1,32
    30a4:	00e80833          	add	a6,a6,a4
    30a8:	410585b3          	sub	a1,a1,a6
    30ac:	02059663          	bnez	a1,30d8 <__udivdi3+0x300>
    30b0:	00100713          	li	a4,1
    30b4:	eef6ece3          	bltu	a3,a5,2fac <__udivdi3+0x1d4>
    30b8:	00c53533          	sltu	a0,a0,a2
    30bc:	00154713          	xori	a4,a0,1
    30c0:	eedff06f          	j	2fac <__udivdi3+0x1d4>
    30c4:	010005b7          	lui	a1,0x1000
    30c8:	01000713          	li	a4,16
    30cc:	fcb6e0e3          	bltu	a3,a1,308c <__udivdi3+0x2b4>
    30d0:	01800713          	li	a4,24
    30d4:	fb9ff06f          	j	308c <__udivdi3+0x2b4>
    30d8:	01065733          	srl	a4,a2,a6
    30dc:	00b696b3          	sll	a3,a3,a1
    30e0:	00d766b3          	or	a3,a4,a3
    30e4:	0106de93          	srli	t4,a3,0x10
    30e8:	0107d733          	srl	a4,a5,a6
    30ec:	03d778b3          	remu	a7,a4,t4
    30f0:	00b797b3          	sll	a5,a5,a1
    30f4:	01055833          	srl	a6,a0,a6
    30f8:	00f86333          	or	t1,a6,a5
    30fc:	01069793          	slli	a5,a3,0x10
    3100:	0107d793          	srli	a5,a5,0x10
    3104:	01035813          	srli	a6,t1,0x10
    3108:	00b61633          	sll	a2,a2,a1
    310c:	03d75733          	divu	a4,a4,t4
    3110:	01089893          	slli	a7,a7,0x10
    3114:	0108e833          	or	a6,a7,a6
    3118:	02e78f33          	mul	t5,a5,a4
    311c:	00070e13          	mv	t3,a4
    3120:	01e87e63          	bleu	t5,a6,313c <__udivdi3+0x364>
    3124:	00d80833          	add	a6,a6,a3
    3128:	fff70e13          	addi	t3,a4,-1 # ffff <_gp+0xbf5f>
    312c:	00d86863          	bltu	a6,a3,313c <__udivdi3+0x364>
    3130:	01e87663          	bleu	t5,a6,313c <__udivdi3+0x364>
    3134:	ffe70e13          	addi	t3,a4,-2
    3138:	00d80833          	add	a6,a6,a3
    313c:	41e80833          	sub	a6,a6,t5
    3140:	03d878b3          	remu	a7,a6,t4
    3144:	03d85833          	divu	a6,a6,t4
    3148:	01089893          	slli	a7,a7,0x10
    314c:	03078eb3          	mul	t4,a5,a6
    3150:	01031793          	slli	a5,t1,0x10
    3154:	0107d793          	srli	a5,a5,0x10
    3158:	00f8e7b3          	or	a5,a7,a5
    315c:	00080713          	mv	a4,a6
    3160:	01d7fe63          	bleu	t4,a5,317c <__udivdi3+0x3a4>
    3164:	00d787b3          	add	a5,a5,a3
    3168:	fff80713          	addi	a4,a6,-1
    316c:	00d7e863          	bltu	a5,a3,317c <__udivdi3+0x3a4>
    3170:	01d7f663          	bleu	t4,a5,317c <__udivdi3+0x3a4>
    3174:	ffe80713          	addi	a4,a6,-2
    3178:	00d787b3          	add	a5,a5,a3
    317c:	010e1e13          	slli	t3,t3,0x10
    3180:	41d787b3          	sub	a5,a5,t4
    3184:	00010eb7          	lui	t4,0x10
    3188:	00ee6733          	or	a4,t3,a4
    318c:	fffe8813          	addi	a6,t4,-1 # ffff <_gp+0xbf5f>
    3190:	01077333          	and	t1,a4,a6
    3194:	01075893          	srli	a7,a4,0x10
    3198:	01067833          	and	a6,a2,a6
    319c:	01065613          	srli	a2,a2,0x10
    31a0:	03030e33          	mul	t3,t1,a6
    31a4:	03088833          	mul	a6,a7,a6
    31a8:	010e5693          	srli	a3,t3,0x10
    31ac:	02c30333          	mul	t1,t1,a2
    31b0:	01030333          	add	t1,t1,a6
    31b4:	006686b3          	add	a3,a3,t1
    31b8:	02c888b3          	mul	a7,a7,a2
    31bc:	0106f463          	bleu	a6,a3,31c4 <__udivdi3+0x3ec>
    31c0:	01d888b3          	add	a7,a7,t4
    31c4:	0106d613          	srli	a2,a3,0x10
    31c8:	011608b3          	add	a7,a2,a7
    31cc:	0317e663          	bltu	a5,a7,31f8 <__udivdi3+0x420>
    31d0:	cf179ae3          	bne	a5,a7,2ec4 <__udivdi3+0xec>
    31d4:	000107b7          	lui	a5,0x10
    31d8:	fff78793          	addi	a5,a5,-1 # ffff <_gp+0xbf5f>
    31dc:	00f6f6b3          	and	a3,a3,a5
    31e0:	01069693          	slli	a3,a3,0x10
    31e4:	00fe7e33          	and	t3,t3,a5
    31e8:	00b51533          	sll	a0,a0,a1
    31ec:	01c686b3          	add	a3,a3,t3
    31f0:	00000593          	li	a1,0
    31f4:	dad57ce3          	bleu	a3,a0,2fac <__udivdi3+0x1d4>
    31f8:	fff70713          	addi	a4,a4,-1
    31fc:	cc9ff06f          	j	2ec4 <__udivdi3+0xec>
    3200:	00000593          	li	a1,0
    3204:	00000713          	li	a4,0
    3208:	da5ff06f          	j	2fac <__udivdi3+0x1d4>

0000320c <__umoddi3>:
    320c:	00060893          	mv	a7,a2
    3210:	00068713          	mv	a4,a3
    3214:	00050793          	mv	a5,a0
    3218:	00058813          	mv	a6,a1
    321c:	22069c63          	bnez	a3,3454 <__umoddi3+0x248>
    3220:	000036b7          	lui	a3,0x3
    3224:	77868693          	addi	a3,a3,1912 # 3778 <__clz_tab>
    3228:	0cc5fc63          	bleu	a2,a1,3300 <__umoddi3+0xf4>
    322c:	00010337          	lui	t1,0x10
    3230:	0a667e63          	bleu	t1,a2,32ec <__umoddi3+0xe0>
    3234:	0ff00313          	li	t1,255
    3238:	00c37463          	bleu	a2,t1,3240 <__umoddi3+0x34>
    323c:	00800713          	li	a4,8
    3240:	00e65333          	srl	t1,a2,a4
    3244:	006686b3          	add	a3,a3,t1
    3248:	0006ce03          	lbu	t3,0(a3)
    324c:	02000313          	li	t1,32
    3250:	00ee0e33          	add	t3,t3,a4
    3254:	41c30333          	sub	t1,t1,t3
    3258:	00030c63          	beqz	t1,3270 <__umoddi3+0x64>
    325c:	006595b3          	sll	a1,a1,t1
    3260:	01c55e33          	srl	t3,a0,t3
    3264:	006618b3          	sll	a7,a2,t1
    3268:	00be6833          	or	a6,t3,a1
    326c:	006517b3          	sll	a5,a0,t1
    3270:	0108d613          	srli	a2,a7,0x10
    3274:	02c87733          	remu	a4,a6,a2
    3278:	01089513          	slli	a0,a7,0x10
    327c:	01055513          	srli	a0,a0,0x10
    3280:	0107d693          	srli	a3,a5,0x10
    3284:	02c85833          	divu	a6,a6,a2
    3288:	01071713          	slli	a4,a4,0x10
    328c:	00d766b3          	or	a3,a4,a3
    3290:	03050833          	mul	a6,a0,a6
    3294:	0106fa63          	bleu	a6,a3,32a8 <__umoddi3+0x9c>
    3298:	011686b3          	add	a3,a3,a7
    329c:	0116e663          	bltu	a3,a7,32a8 <__umoddi3+0x9c>
    32a0:	0106f463          	bleu	a6,a3,32a8 <__umoddi3+0x9c>
    32a4:	011686b3          	add	a3,a3,a7
    32a8:	410686b3          	sub	a3,a3,a6
    32ac:	02c6f733          	remu	a4,a3,a2
    32b0:	01079793          	slli	a5,a5,0x10
    32b4:	0107d793          	srli	a5,a5,0x10
    32b8:	02c6d6b3          	divu	a3,a3,a2
    32bc:	02d506b3          	mul	a3,a0,a3
    32c0:	01071513          	slli	a0,a4,0x10
    32c4:	00f567b3          	or	a5,a0,a5
    32c8:	00d7fa63          	bleu	a3,a5,32dc <__umoddi3+0xd0>
    32cc:	011787b3          	add	a5,a5,a7
    32d0:	0117e663          	bltu	a5,a7,32dc <__umoddi3+0xd0>
    32d4:	00d7f463          	bleu	a3,a5,32dc <__umoddi3+0xd0>
    32d8:	011787b3          	add	a5,a5,a7
    32dc:	40d787b3          	sub	a5,a5,a3
    32e0:	0067d533          	srl	a0,a5,t1
    32e4:	00000593          	li	a1,0
    32e8:	00008067          	ret
    32ec:	01000337          	lui	t1,0x1000
    32f0:	01000713          	li	a4,16
    32f4:	f46666e3          	bltu	a2,t1,3240 <__umoddi3+0x34>
    32f8:	01800713          	li	a4,24
    32fc:	f45ff06f          	j	3240 <__umoddi3+0x34>
    3300:	00061663          	bnez	a2,330c <__umoddi3+0x100>
    3304:	00100613          	li	a2,1
    3308:	031658b3          	divu	a7,a2,a7
    330c:	00010637          	lui	a2,0x10
    3310:	0ac8f263          	bleu	a2,a7,33b4 <__umoddi3+0x1a8>
    3314:	0ff00613          	li	a2,255
    3318:	01167463          	bleu	a7,a2,3320 <__umoddi3+0x114>
    331c:	00800713          	li	a4,8
    3320:	00e8d633          	srl	a2,a7,a4
    3324:	00c686b3          	add	a3,a3,a2
    3328:	0006ce03          	lbu	t3,0(a3)
    332c:	02000313          	li	t1,32
    3330:	00ee0e33          	add	t3,t3,a4
    3334:	41c30333          	sub	t1,t1,t3
    3338:	08031863          	bnez	t1,33c8 <__umoddi3+0x1bc>
    333c:	411585b3          	sub	a1,a1,a7
    3340:	0108d713          	srli	a4,a7,0x10
    3344:	01089513          	slli	a0,a7,0x10
    3348:	01055513          	srli	a0,a0,0x10
    334c:	0107d613          	srli	a2,a5,0x10
    3350:	02e5f6b3          	remu	a3,a1,a4
    3354:	02e5d5b3          	divu	a1,a1,a4
    3358:	01069693          	slli	a3,a3,0x10
    335c:	00c6e6b3          	or	a3,a3,a2
    3360:	02b505b3          	mul	a1,a0,a1
    3364:	00b6fa63          	bleu	a1,a3,3378 <__umoddi3+0x16c>
    3368:	011686b3          	add	a3,a3,a7
    336c:	0116e663          	bltu	a3,a7,3378 <__umoddi3+0x16c>
    3370:	00b6f463          	bleu	a1,a3,3378 <__umoddi3+0x16c>
    3374:	011686b3          	add	a3,a3,a7
    3378:	40b685b3          	sub	a1,a3,a1
    337c:	02e5f6b3          	remu	a3,a1,a4
    3380:	01079793          	slli	a5,a5,0x10
    3384:	0107d793          	srli	a5,a5,0x10
    3388:	02e5d5b3          	divu	a1,a1,a4
    338c:	02b505b3          	mul	a1,a0,a1
    3390:	01069513          	slli	a0,a3,0x10
    3394:	00f567b3          	or	a5,a0,a5
    3398:	00b7fa63          	bleu	a1,a5,33ac <__umoddi3+0x1a0>
    339c:	011787b3          	add	a5,a5,a7
    33a0:	0117e663          	bltu	a5,a7,33ac <__umoddi3+0x1a0>
    33a4:	00b7f463          	bleu	a1,a5,33ac <__umoddi3+0x1a0>
    33a8:	011787b3          	add	a5,a5,a7
    33ac:	40b787b3          	sub	a5,a5,a1
    33b0:	f31ff06f          	j	32e0 <__umoddi3+0xd4>
    33b4:	01000637          	lui	a2,0x1000
    33b8:	01000713          	li	a4,16
    33bc:	f6c8e2e3          	bltu	a7,a2,3320 <__umoddi3+0x114>
    33c0:	01800713          	li	a4,24
    33c4:	f5dff06f          	j	3320 <__umoddi3+0x114>
    33c8:	006898b3          	sll	a7,a7,t1
    33cc:	01c5d733          	srl	a4,a1,t3
    33d0:	006517b3          	sll	a5,a0,t1
    33d4:	01c55e33          	srl	t3,a0,t3
    33d8:	0108d513          	srli	a0,a7,0x10
    33dc:	02a776b3          	remu	a3,a4,a0
    33e0:	006595b3          	sll	a1,a1,t1
    33e4:	00be6e33          	or	t3,t3,a1
    33e8:	01089593          	slli	a1,a7,0x10
    33ec:	0105d593          	srli	a1,a1,0x10
    33f0:	010e5613          	srli	a2,t3,0x10
    33f4:	02a75733          	divu	a4,a4,a0
    33f8:	01069693          	slli	a3,a3,0x10
    33fc:	00c6e6b3          	or	a3,a3,a2
    3400:	02e58733          	mul	a4,a1,a4
    3404:	00e6fa63          	bleu	a4,a3,3418 <__umoddi3+0x20c>
    3408:	011686b3          	add	a3,a3,a7
    340c:	0116e663          	bltu	a3,a7,3418 <__umoddi3+0x20c>
    3410:	00e6f463          	bleu	a4,a3,3418 <__umoddi3+0x20c>
    3414:	011686b3          	add	a3,a3,a7
    3418:	40e68633          	sub	a2,a3,a4
    341c:	02a676b3          	remu	a3,a2,a0
    3420:	010e1e13          	slli	t3,t3,0x10
    3424:	010e5e13          	srli	t3,t3,0x10
    3428:	02a65633          	divu	a2,a2,a0
    342c:	01069693          	slli	a3,a3,0x10
    3430:	02c58633          	mul	a2,a1,a2
    3434:	01c6e5b3          	or	a1,a3,t3
    3438:	00c5fa63          	bleu	a2,a1,344c <__umoddi3+0x240>
    343c:	011585b3          	add	a1,a1,a7
    3440:	0115e663          	bltu	a1,a7,344c <__umoddi3+0x240>
    3444:	00c5f463          	bleu	a2,a1,344c <__umoddi3+0x240>
    3448:	011585b3          	add	a1,a1,a7
    344c:	40c585b3          	sub	a1,a1,a2
    3450:	ef1ff06f          	j	3340 <__umoddi3+0x134>
    3454:	e8d5eae3          	bltu	a1,a3,32e8 <__umoddi3+0xdc>
    3458:	00010737          	lui	a4,0x10
    345c:	04e6fc63          	bleu	a4,a3,34b4 <__umoddi3+0x2a8>
    3460:	0ff00e93          	li	t4,255
    3464:	00deb733          	sltu	a4,t4,a3
    3468:	00371713          	slli	a4,a4,0x3
    346c:	00003337          	lui	t1,0x3
    3470:	00e6d8b3          	srl	a7,a3,a4
    3474:	77830313          	addi	t1,t1,1912 # 3778 <__clz_tab>
    3478:	006888b3          	add	a7,a7,t1
    347c:	0008ce83          	lbu	t4,0(a7) # 1000000 <__C_STACK_TOP__+0xff0000>
    3480:	02000e13          	li	t3,32
    3484:	00ee8eb3          	add	t4,t4,a4
    3488:	41de0e33          	sub	t3,t3,t4
    348c:	020e1e63          	bnez	t3,34c8 <__umoddi3+0x2bc>
    3490:	00b6e463          	bltu	a3,a1,3498 <__umoddi3+0x28c>
    3494:	00c56a63          	bltu	a0,a2,34a8 <__umoddi3+0x29c>
    3498:	40c507b3          	sub	a5,a0,a2
    349c:	40d585b3          	sub	a1,a1,a3
    34a0:	00f53533          	sltu	a0,a0,a5
    34a4:	40a58833          	sub	a6,a1,a0
    34a8:	00078513          	mv	a0,a5
    34ac:	00080593          	mv	a1,a6
    34b0:	e39ff06f          	j	32e8 <__umoddi3+0xdc>
    34b4:	010008b7          	lui	a7,0x1000
    34b8:	01000713          	li	a4,16
    34bc:	fb16e8e3          	bltu	a3,a7,346c <__umoddi3+0x260>
    34c0:	01800713          	li	a4,24
    34c4:	fa9ff06f          	j	346c <__umoddi3+0x260>
    34c8:	01d65733          	srl	a4,a2,t4
    34cc:	01c696b3          	sll	a3,a3,t3
    34d0:	00d766b3          	or	a3,a4,a3
    34d4:	01d557b3          	srl	a5,a0,t4
    34d8:	01d5d733          	srl	a4,a1,t4
    34dc:	01c595b3          	sll	a1,a1,t3
    34e0:	00b7e7b3          	or	a5,a5,a1
    34e4:	0106d593          	srli	a1,a3,0x10
    34e8:	02b77333          	remu	t1,a4,a1
    34ec:	01069f13          	slli	t5,a3,0x10
    34f0:	010f5f13          	srli	t5,t5,0x10
    34f4:	0107d893          	srli	a7,a5,0x10
    34f8:	01c61633          	sll	a2,a2,t3
    34fc:	01c51533          	sll	a0,a0,t3
    3500:	02b75733          	divu	a4,a4,a1
    3504:	01031313          	slli	t1,t1,0x10
    3508:	011368b3          	or	a7,t1,a7
    350c:	02ef0833          	mul	a6,t5,a4
    3510:	00070313          	mv	t1,a4
    3514:	0108fe63          	bleu	a6,a7,3530 <__umoddi3+0x324>
    3518:	00d888b3          	add	a7,a7,a3
    351c:	fff70313          	addi	t1,a4,-1 # ffff <_gp+0xbf5f>
    3520:	00d8e863          	bltu	a7,a3,3530 <__umoddi3+0x324>
    3524:	0108f663          	bleu	a6,a7,3530 <__umoddi3+0x324>
    3528:	ffe70313          	addi	t1,a4,-2
    352c:	00d888b3          	add	a7,a7,a3
    3530:	410888b3          	sub	a7,a7,a6
    3534:	02b8ffb3          	remu	t6,a7,a1
    3538:	02b8d8b3          	divu	a7,a7,a1
    353c:	010f9f93          	slli	t6,t6,0x10
    3540:	031f05b3          	mul	a1,t5,a7
    3544:	01079f13          	slli	t5,a5,0x10
    3548:	010f5f13          	srli	t5,t5,0x10
    354c:	01efef33          	or	t5,t6,t5
    3550:	00088713          	mv	a4,a7
    3554:	00bf7e63          	bleu	a1,t5,3570 <__umoddi3+0x364>
    3558:	00df0f33          	add	t5,t5,a3
    355c:	fff88713          	addi	a4,a7,-1 # ffffff <__C_STACK_TOP__+0xfeffff>
    3560:	00df6863          	bltu	t5,a3,3570 <__umoddi3+0x364>
    3564:	00bf7663          	bleu	a1,t5,3570 <__umoddi3+0x364>
    3568:	ffe88713          	addi	a4,a7,-2
    356c:	00df0f33          	add	t5,t5,a3
    3570:	01031313          	slli	t1,t1,0x10
    3574:	000108b7          	lui	a7,0x10
    3578:	00e36333          	or	t1,t1,a4
    357c:	fff88793          	addi	a5,a7,-1 # ffff <_gp+0xbf5f>
    3580:	01065813          	srli	a6,a2,0x10
    3584:	40bf0f33          	sub	t5,t5,a1
    3588:	00f375b3          	and	a1,t1,a5
    358c:	01035313          	srli	t1,t1,0x10
    3590:	00f677b3          	and	a5,a2,a5
    3594:	02f58733          	mul	a4,a1,a5
    3598:	02f307b3          	mul	a5,t1,a5
    359c:	030585b3          	mul	a1,a1,a6
    35a0:	03030333          	mul	t1,t1,a6
    35a4:	00f585b3          	add	a1,a1,a5
    35a8:	01075813          	srli	a6,a4,0x10
    35ac:	00b80833          	add	a6,a6,a1
    35b0:	00f87463          	bleu	a5,a6,35b8 <__umoddi3+0x3ac>
    35b4:	01130333          	add	t1,t1,a7
    35b8:	000107b7          	lui	a5,0x10
    35bc:	fff78793          	addi	a5,a5,-1 # ffff <_gp+0xbf5f>
    35c0:	01085593          	srli	a1,a6,0x10
    35c4:	00f87833          	and	a6,a6,a5
    35c8:	01081813          	slli	a6,a6,0x10
    35cc:	00f77733          	and	a4,a4,a5
    35d0:	006585b3          	add	a1,a1,t1
    35d4:	00e80733          	add	a4,a6,a4
    35d8:	00bf6663          	bltu	t5,a1,35e4 <__umoddi3+0x3d8>
    35dc:	00bf1e63          	bne	t5,a1,35f8 <__umoddi3+0x3ec>
    35e0:	00e57c63          	bleu	a4,a0,35f8 <__umoddi3+0x3ec>
    35e4:	40c70633          	sub	a2,a4,a2
    35e8:	00c73733          	sltu	a4,a4,a2
    35ec:	40d585b3          	sub	a1,a1,a3
    35f0:	40e585b3          	sub	a1,a1,a4
    35f4:	00060713          	mv	a4,a2
    35f8:	40e50733          	sub	a4,a0,a4
    35fc:	00e53533          	sltu	a0,a0,a4
    3600:	40bf05b3          	sub	a1,t5,a1
    3604:	40a585b3          	sub	a1,a1,a0
    3608:	01d597b3          	sll	a5,a1,t4
    360c:	01c75733          	srl	a4,a4,t3
    3610:	00e7e533          	or	a0,a5,a4
    3614:	01c5d5b3          	srl	a1,a1,t3
    3618:	cd1ff06f          	j	32e8 <__umoddi3+0xdc>
    361c:	0000                	unimp
	...

Disassembly of section .rodata:

00003620 <__clz_tab-0x158>:
    3620:	0890                	addi	a2,sp,80
    3622:	0000                	unimp
    3624:	0dd8                	addi	a4,sp,724
    3626:	0000                	unimp
    3628:	089c                	addi	a5,sp,80
    362a:	0000                	unimp
    362c:	0dd8                	addi	a4,sp,724
    362e:	0000                	unimp
    3630:	0dd8                	addi	a4,sp,724
    3632:	0000                	unimp
    3634:	0dd8                	addi	a4,sp,724
    3636:	0000                	unimp
    3638:	0dd8                	addi	a4,sp,724
    363a:	0000                	unimp
    363c:	09a4                	addi	s1,sp,216
    363e:	0000                	unimp
    3640:	0dd8                	addi	a4,sp,724
    3642:	0000                	unimp
    3644:	0dd8                	addi	a4,sp,724
    3646:	0000                	unimp
    3648:	09cc                	addi	a1,sp,212
    364a:	0000                	unimp
    364c:	09dc                	addi	a5,sp,212
    364e:	0000                	unimp
    3650:	0dd8                	addi	a4,sp,724
    3652:	0000                	unimp
    3654:	09f4                	addi	a3,sp,220
    3656:	0000                	unimp
    3658:	0a04                	addi	s1,sp,272
    365a:	0000                	unimp
    365c:	0a04                	addi	s1,sp,272
    365e:	0000                	unimp
    3660:	0a04                	addi	s1,sp,272
    3662:	0000                	unimp
    3664:	0a04                	addi	s1,sp,272
    3666:	0000                	unimp
    3668:	0a04                	addi	s1,sp,272
    366a:	0000                	unimp
    366c:	0a04                	addi	s1,sp,272
    366e:	0000                	unimp
    3670:	0a04                	addi	s1,sp,272
    3672:	0000                	unimp
    3674:	0a04                	addi	s1,sp,272
    3676:	0000                	unimp
    3678:	0a04                	addi	s1,sp,272
    367a:	0000                	unimp
    367c:	0dd8                	addi	a4,sp,724
    367e:	0000                	unimp
    3680:	0dd8                	addi	a4,sp,724
    3682:	0000                	unimp
    3684:	0dd8                	addi	a4,sp,724
    3686:	0000                	unimp
    3688:	0dd8                	addi	a4,sp,724
    368a:	0000                	unimp
    368c:	0dd8                	addi	a4,sp,724
    368e:	0000                	unimp
    3690:	0dd8                	addi	a4,sp,724
    3692:	0000                	unimp
    3694:	0dd8                	addi	a4,sp,724
    3696:	0000                	unimp
    3698:	0dd8                	addi	a4,sp,724
    369a:	0000                	unimp
    369c:	0dd8                	addi	a4,sp,724
    369e:	0000                	unimp
    36a0:	0dd8                	addi	a4,sp,724
    36a2:	0000                	unimp
    36a4:	0dd8                	addi	a4,sp,724
    36a6:	0000                	unimp
    36a8:	0dd8                	addi	a4,sp,724
    36aa:	0000                	unimp
    36ac:	0dd8                	addi	a4,sp,724
    36ae:	0000                	unimp
    36b0:	0dd8                	addi	a4,sp,724
    36b2:	0000                	unimp
    36b4:	0dd8                	addi	a4,sp,724
    36b6:	0000                	unimp
    36b8:	0dd8                	addi	a4,sp,724
    36ba:	0000                	unimp
    36bc:	0dd8                	addi	a4,sp,724
    36be:	0000                	unimp
    36c0:	0dd8                	addi	a4,sp,724
    36c2:	0000                	unimp
    36c4:	0dd8                	addi	a4,sp,724
    36c6:	0000                	unimp
    36c8:	0dd8                	addi	a4,sp,724
    36ca:	0000                	unimp
    36cc:	0dd8                	addi	a4,sp,724
    36ce:	0000                	unimp
    36d0:	0dd8                	addi	a4,sp,724
    36d2:	0000                	unimp
    36d4:	0dd8                	addi	a4,sp,724
    36d6:	0000                	unimp
    36d8:	0dd8                	addi	a4,sp,724
    36da:	0000                	unimp
    36dc:	0dd8                	addi	a4,sp,724
    36de:	0000                	unimp
    36e0:	0dd8                	addi	a4,sp,724
    36e2:	0000                	unimp
    36e4:	0dd8                	addi	a4,sp,724
    36e6:	0000                	unimp
    36e8:	0dd8                	addi	a4,sp,724
    36ea:	0000                	unimp
    36ec:	0dd8                	addi	a4,sp,724
    36ee:	0000                	unimp
    36f0:	0dd8                	addi	a4,sp,724
    36f2:	0000                	unimp
    36f4:	0a48                	addi	a0,sp,276
    36f6:	0000                	unimp
    36f8:	0dd8                	addi	a4,sp,724
    36fa:	0000                	unimp
    36fc:	0dd8                	addi	a4,sp,724
    36fe:	0000                	unimp
    3700:	0dd8                	addi	a4,sp,724
    3702:	0000                	unimp
    3704:	0dd8                	addi	a4,sp,724
    3706:	0000                	unimp
    3708:	0dd8                	addi	a4,sp,724
    370a:	0000                	unimp
    370c:	0dd8                	addi	a4,sp,724
    370e:	0000                	unimp
    3710:	0dd8                	addi	a4,sp,724
    3712:	0000                	unimp
    3714:	0dd8                	addi	a4,sp,724
    3716:	0000                	unimp
    3718:	0dd8                	addi	a4,sp,724
    371a:	0000                	unimp
    371c:	0dd8                	addi	a4,sp,724
    371e:	0000                	unimp
    3720:	0a6c                	addi	a1,sp,284
    3722:	0000                	unimp
    3724:	0aa4                	addi	s1,sp,344
    3726:	0000                	unimp
    3728:	0dd8                	addi	a4,sp,724
    372a:	0000                	unimp
    372c:	0494                	addi	a3,sp,576
    372e:	0000                	unimp
    3730:	0dd8                	addi	a4,sp,724
    3732:	0000                	unimp
    3734:	0dd8                	addi	a4,sp,724
    3736:	0000                	unimp
    3738:	0dd8                	addi	a4,sp,724
    373a:	0000                	unimp
    373c:	0dd8                	addi	a4,sp,724
    373e:	0000                	unimp
    3740:	0dd8                	addi	a4,sp,724
    3742:	0000                	unimp
    3744:	0b2c                	addi	a1,sp,408
    3746:	0000                	unimp
    3748:	0dd8                	addi	a4,sp,724
    374a:	0000                	unimp
    374c:	0dd8                	addi	a4,sp,724
    374e:	0000                	unimp
    3750:	0b3c                	addi	a5,sp,408
    3752:	0000                	unimp
    3754:	0b48                	addi	a0,sp,404
    3756:	0000                	unimp
    3758:	0dd8                	addi	a4,sp,724
    375a:	0000                	unimp
    375c:	0dd8                	addi	a4,sp,724
    375e:	0000                	unimp
    3760:	0c90                	addi	a2,sp,592
    3762:	0000                	unimp
    3764:	0dd8                	addi	a4,sp,724
    3766:	0000                	unimp
    3768:	0dcc                	addi	a1,sp,724
    376a:	0000                	unimp
    376c:	0dd8                	addi	a4,sp,724
    376e:	0000                	unimp
    3770:	0dd8                	addi	a4,sp,724
    3772:	0000                	unimp
    3774:	067c                	addi	a5,sp,780
	...

00003778 <__clz_tab>:
    3778:	0100                	addi	s0,sp,128
    377a:	0202                	slli	tp,tp,0x0
    377c:	03030303          	lb	t1,48(t1)
    3780:	0404                	addi	s1,sp,512
    3782:	0404                	addi	s1,sp,512
    3784:	0404                	addi	s1,sp,512
    3786:	0404                	addi	s1,sp,512
    3788:	0505                	addi	a0,a0,1
    378a:	0505                	addi	a0,a0,1
    378c:	0505                	addi	a0,a0,1
    378e:	0505                	addi	a0,a0,1
    3790:	0505                	addi	a0,a0,1
    3792:	0505                	addi	a0,a0,1
    3794:	0505                	addi	a0,a0,1
    3796:	0505                	addi	a0,a0,1
    3798:	0606                	slli	a2,a2,0x1
    379a:	0606                	slli	a2,a2,0x1
    379c:	0606                	slli	a2,a2,0x1
    379e:	0606                	slli	a2,a2,0x1
    37a0:	0606                	slli	a2,a2,0x1
    37a2:	0606                	slli	a2,a2,0x1
    37a4:	0606                	slli	a2,a2,0x1
    37a6:	0606                	slli	a2,a2,0x1
    37a8:	0606                	slli	a2,a2,0x1
    37aa:	0606                	slli	a2,a2,0x1
    37ac:	0606                	slli	a2,a2,0x1
    37ae:	0606                	slli	a2,a2,0x1
    37b0:	0606                	slli	a2,a2,0x1
    37b2:	0606                	slli	a2,a2,0x1
    37b4:	0606                	slli	a2,a2,0x1
    37b6:	0606                	slli	a2,a2,0x1
    37b8:	07070707          	0x7070707
    37bc:	07070707          	0x7070707
    37c0:	07070707          	0x7070707
    37c4:	07070707          	0x7070707
    37c8:	07070707          	0x7070707
    37cc:	07070707          	0x7070707
    37d0:	07070707          	0x7070707
    37d4:	07070707          	0x7070707
    37d8:	07070707          	0x7070707
    37dc:	07070707          	0x7070707
    37e0:	07070707          	0x7070707
    37e4:	07070707          	0x7070707
    37e8:	07070707          	0x7070707
    37ec:	07070707          	0x7070707
    37f0:	07070707          	0x7070707
    37f4:	07070707          	0x7070707
    37f8:	0808                	addi	a0,sp,16
    37fa:	0808                	addi	a0,sp,16
    37fc:	0808                	addi	a0,sp,16
    37fe:	0808                	addi	a0,sp,16
    3800:	0808                	addi	a0,sp,16
    3802:	0808                	addi	a0,sp,16
    3804:	0808                	addi	a0,sp,16
    3806:	0808                	addi	a0,sp,16
    3808:	0808                	addi	a0,sp,16
    380a:	0808                	addi	a0,sp,16
    380c:	0808                	addi	a0,sp,16
    380e:	0808                	addi	a0,sp,16
    3810:	0808                	addi	a0,sp,16
    3812:	0808                	addi	a0,sp,16
    3814:	0808                	addi	a0,sp,16
    3816:	0808                	addi	a0,sp,16
    3818:	0808                	addi	a0,sp,16
    381a:	0808                	addi	a0,sp,16
    381c:	0808                	addi	a0,sp,16
    381e:	0808                	addi	a0,sp,16
    3820:	0808                	addi	a0,sp,16
    3822:	0808                	addi	a0,sp,16
    3824:	0808                	addi	a0,sp,16
    3826:	0808                	addi	a0,sp,16
    3828:	0808                	addi	a0,sp,16
    382a:	0808                	addi	a0,sp,16
    382c:	0808                	addi	a0,sp,16
    382e:	0808                	addi	a0,sp,16
    3830:	0808                	addi	a0,sp,16
    3832:	0808                	addi	a0,sp,16
    3834:	0808                	addi	a0,sp,16
    3836:	0808                	addi	a0,sp,16
    3838:	0808                	addi	a0,sp,16
    383a:	0808                	addi	a0,sp,16
    383c:	0808                	addi	a0,sp,16
    383e:	0808                	addi	a0,sp,16
    3840:	0808                	addi	a0,sp,16
    3842:	0808                	addi	a0,sp,16
    3844:	0808                	addi	a0,sp,16
    3846:	0808                	addi	a0,sp,16
    3848:	0808                	addi	a0,sp,16
    384a:	0808                	addi	a0,sp,16
    384c:	0808                	addi	a0,sp,16
    384e:	0808                	addi	a0,sp,16
    3850:	0808                	addi	a0,sp,16
    3852:	0808                	addi	a0,sp,16
    3854:	0808                	addi	a0,sp,16
    3856:	0808                	addi	a0,sp,16
    3858:	0808                	addi	a0,sp,16
    385a:	0808                	addi	a0,sp,16
    385c:	0808                	addi	a0,sp,16
    385e:	0808                	addi	a0,sp,16
    3860:	0808                	addi	a0,sp,16
    3862:	0808                	addi	a0,sp,16
    3864:	0808                	addi	a0,sp,16
    3866:	0808                	addi	a0,sp,16
    3868:	0808                	addi	a0,sp,16
    386a:	0808                	addi	a0,sp,16
    386c:	0808                	addi	a0,sp,16
    386e:	0808                	addi	a0,sp,16
    3870:	0808                	addi	a0,sp,16
    3872:	0808                	addi	a0,sp,16
    3874:	0808                	addi	a0,sp,16
    3876:	0808                	addi	a0,sp,16

Disassembly of section .rodata.str1.4:

00003878 <.rodata.str1.4>:
    3878:	7270                	flw	fa2,100(a2)
    387a:	6172676f          	jal	a4,2a690 <__C_STACK_TOP__+0x1a690>
    387e:	206d                	jal	3928 <__BSS_START__+0x68>
    3880:	6e65                	lui	t3,0x19
    3882:	0a64                	addi	s1,sp,284
    3884:	0000                	unimp
    3886:	0000                	unimp
    3888:	6e28                	flw	fa0,88(a2)
    388a:	6c75                	lui	s8,0x1d
    388c:	296c                	fld	fa1,208(a0)
	...

Disassembly of section .data:

00003890 <.data>:
	...

Disassembly of section .tbss:

000038c0 <__BSS_START__>:
	...

Disassembly of section .stack:

0000fc00 <__C_STACK_TOP__-0x400>:
	...

Disassembly of section .comment:

00000000 <.comment>:
   0:	3a434347          	fmsub.d	ft6,ft6,ft4,ft7,rmm
   4:	2820                	fld	fs0,80(s0)
   6:	29554e47          	fmsub.s	ft8,fa0,fs5,ft5,rmm
   a:	3720                	fld	fs0,104(a4)
   c:	312e                	fld	ft2,232(sp)
   e:	312e                	fld	ft2,232(sp)
  10:	3220                	fld	fs0,96(a2)
  12:	3130                	fld	fa2,96(a0)
  14:	30353037          	lui	zero,0x30353
  18:	0039                	c.addi	zero,14

Disassembly of section .debug_frame:

00000000 <.debug_frame>:
   0:	000c                	addi	a1,sp,0
   2:	0000                	unimp
   4:	ffff                	0xffff
   6:	ffff                	0xffff
   8:	7c010003          	lb	zero,1984(sp)
   c:	0c01                	addi	s8,s8,0
   e:	0002                	0x2
  10:	000c                	addi	a1,sp,0
  12:	0000                	unimp
  14:	0000                	unimp
  16:	0000                	unimp
  18:	2980                	fld	fs0,16(a1)
  1a:	0000                	unimp
  1c:	0458                	addi	a4,sp,516
  1e:	0000                	unimp
  20:	000c                	addi	a1,sp,0
  22:	0000                	unimp
  24:	ffff                	0xffff
  26:	ffff                	0xffff
  28:	7c010003          	lb	zero,1984(sp)
  2c:	0c01                	addi	s8,s8,0
  2e:	0002                	0x2
  30:	000c                	addi	a1,sp,0
  32:	0000                	unimp
  34:	0020                	addi	s0,sp,8
  36:	0000                	unimp
  38:	2dd8                	fld	fa4,152(a1)
  3a:	0000                	unimp
  3c:	0434                	addi	a3,sp,520
  3e:	0000                	unimp
  40:	000c                	addi	a1,sp,0
  42:	0000                	unimp
  44:	ffff                	0xffff
  46:	ffff                	0xffff
  48:	7c010003          	lb	zero,1984(sp)
  4c:	0c01                	addi	s8,s8,0
  4e:	0002                	0x2
  50:	000c                	addi	a1,sp,0
  52:	0000                	unimp
  54:	0040                	addi	s0,sp,4
  56:	0000                	unimp
  58:	320c                	fld	fa1,32(a2)
  5a:	0000                	unimp
  5c:	0410                	addi	a2,sp,512
	...

Disassembly of section .debug_info:

00000000 <.debug_info>:
       0:	119e                	slli	gp,gp,0x27
       2:	0000                	unimp
       4:	0004                	addi	s1,sp,0
       6:	0000                	unimp
       8:	0000                	unimp
       a:	0104                	addi	s1,sp,128
       c:	0000064f          	fnmadd.s	fa2,ft0,ft0,ft0,rne
      10:	1c0c                	addi	a1,sp,560
      12:	0000                	unimp
      14:	0700                	addi	s0,sp,896
      16:	0005                	c.addi	zero,1
      18:	8000                	0x8000
      1a:	0029                	c.addi	zero,10
      1c:	5800                	lw	s0,48(s0)
      1e:	0004                	addi	s1,sp,0
      20:	0000                	unimp
      22:	0000                	unimp
      24:	0200                	addi	s0,sp,256
      26:	0704                	addi	s1,sp,896
      28:	0274                	addi	a3,sp,268
      2a:	0000                	unimp
      2c:	0802                	slli	a6,a6,0x0
      2e:	00026a07          	0x26a07
      32:	0300                	addi	s0,sp,384
      34:	0504                	addi	s1,sp,640
      36:	6e69                	lui	t3,0x1a
      38:	0074                	addi	a3,sp,12
      3a:	0802                	slli	a6,a6,0x0
      3c:	9d05                	0x9d05
      3e:	0001                	nop
      40:	0200                	addi	s0,sp,256
      42:	0410                	addi	a2,sp,512
      44:	00ec                	addi	a1,sp,76
      46:	0000                	unimp
      48:	0102                	slli	sp,sp,0x0
      4a:	a906                	fsd	ft1,144(sp)
      4c:	0005                	c.addi	zero,1
      4e:	0200                	addi	s0,sp,256
      50:	0801                	addi	a6,a6,0
      52:	000005a7          	0x5a7
      56:	0202                	slli	tp,tp,0x0
      58:	0005                	c.addi	zero,1
      5a:	0000                	unimp
      5c:	0200                	addi	s0,sp,256
      5e:	0702                	slli	a4,a4,0x0
      60:	028a                	slli	t0,t0,0x2
      62:	0000                	unimp
      64:	0402                	slli	s0,s0,0x0
      66:	a205                	j	186 <SIM_STOP+0x8e>
      68:	0001                	nop
      6a:	0200                	addi	s0,sp,256
      6c:	0704                	addi	s1,sp,896
      6e:	0000026f          	jal	tp,6e <buflen.1744+0x2e>
      72:	c504                	sw	s1,8(a0)
      74:	02000003          	lb	zero,32(zero) # 30353020 <__C_STACK_TOP__+0x30343020>
      78:	6410                	flw	fa2,8(s0)
      7a:	0000                	unimp
      7c:	0400                	addi	s0,sp,512
      7e:	000004e3          	beqz	zero,886 <vprintfmt.constprop.1+0x44a>
      82:	1302                	slli	t1,t1,0x20
      84:	002c                	addi	a1,sp,8
      86:	0000                	unimp
      88:	2304                	fld	fs1,0(a4)
      8a:	0006                	0x6
      8c:	0200                	addi	s0,sp,256
      8e:	641f 0000 0400      	0x4000000641f
      94:	03f5                	addi	t2,t2,29
      96:	0000                	unimp
      98:	00330703          	lb	a4,3(t1)
      9c:	0000                	unimp
      9e:	f605                	bnez	a2,ffffffc6 <__C_STACK_TOP__+0xfffeffc6>
      a0:	0002                	0x2
      a2:	0400                	addi	s0,sp,512
      a4:	0165                	addi	sp,sp,25
      a6:	0025                	c.addi	zero,9
      a8:	0000                	unimp
      aa:	0406                	slli	s0,s0,0x1
      ac:	4a05                	li	s4,1
      ae:	00c9                	addi	ra,ra,18
      b0:	0000                	unimp
      b2:	0002e107          	0x2e107
      b6:	0500                	addi	s0,sp,640
      b8:	9e4c                	0x9e4c
      ba:	0000                	unimp
      bc:	0700                	addi	s0,sp,896
      be:	023c                	addi	a5,sp,264
      c0:	0000                	unimp
      c2:	4d05                	li	s10,1
      c4:	00c9                	addi	ra,ra,18
      c6:	0000                	unimp
      c8:	0800                	addi	s0,sp,16
      ca:	0000004f          	fnmadd.s	ft0,ft0,ft0,ft0,rne
      ce:	00d9                	addi	ra,ra,22
      d0:	0000                	unimp
      d2:	2509                	jal	6d4 <vprintfmt.constprop.1+0x298>
      d4:	0000                	unimp
      d6:	0300                	addi	s0,sp,384
      d8:	0a00                	addi	s0,sp,272
      da:	0508                	addi	a0,sp,640
      dc:	0000fa47          	fmsub.s	fs4,ft1,ft0,ft0
      e0:	0b00                	addi	s0,sp,400
      e2:	033c                	addi	a5,sp,392
      e4:	0000                	unimp
      e6:	4905                	li	s2,1
      e8:	00000033          	add	zero,zero,zero
      ec:	0b00                	addi	s0,sp,400
      ee:	04d5                	addi	s1,s1,21
      f0:	0000                	unimp
      f2:	4e05                	li	t3,1
      f4:	00aa                	slli	ra,ra,0xa
      f6:	0000                	unimp
      f8:	0004                	addi	s1,sp,0
      fa:	ea04                	fsw	fs1,16(a2)
      fc:	05000003          	lb	zero,80(zero) # 50 <buflen.1744+0x10>
     100:	0000d94f          	fnmadd.s	fs2,ft1,ft0,ft0,unknown
     104:	0400                	addi	s0,sp,512
     106:	0444                	addi	s1,sp,516
     108:	0000                	unimp
     10a:	5305                	li	t1,-31
     10c:	00000093          	li	ra,0
     110:	040c                	addi	a1,sp,512
     112:	ba04                	fsd	fs1,48(a2)
     114:	0005                	c.addi	zero,1
     116:	0600                	addi	s0,sp,768
     118:	6b16                	flw	fs6,68(sp)
     11a:	0000                	unimp
     11c:	0d00                	addi	s0,sp,656
     11e:	0375                	addi	t1,t1,29
     120:	0000                	unimp
     122:	0618                	addi	a4,sp,768
     124:	702d                	0x702d
     126:	0001                	nop
     128:	0b00                	addi	s0,sp,400
     12a:	000007a3          	sb	zero,15(zero) # f <buf.1743+0xf>
     12e:	2f06                	fld	ft10,64(sp)
     130:	0170                	addi	a2,sp,140
     132:	0000                	unimp
     134:	0e00                	addi	s0,sp,784
     136:	6b5f 0600 3330      	0x333006006b5f
     13c:	0000                	unimp
     13e:	0400                	addi	s0,sp,512
     140:	0004b20b          	0x4b20b
     144:	0600                	addi	s0,sp,768
     146:	3330                	fld	fa2,96(a4)
     148:	0000                	unimp
     14a:	0800                	addi	s0,sp,16
     14c:	0001f90b          	0x1f90b
     150:	0600                	addi	s0,sp,768
     152:	3330                	fld	fa2,96(a4)
     154:	0000                	unimp
     156:	0c00                	addi	s0,sp,528
     158:	00017f0b          	0x17f0b
     15c:	0600                	addi	s0,sp,768
     15e:	3330                	fld	fa2,96(a4)
     160:	0000                	unimp
     162:	1000                	addi	s0,sp,32
     164:	5f0e                	lw	t5,224(sp)
     166:	0078                	addi	a4,sp,12
     168:	3106                	fld	ft2,96(sp)
     16a:	0176                	slli	sp,sp,0x1d
     16c:	0000                	unimp
     16e:	0014                	addi	a3,sp,0
     170:	011d040f          	0x11d040f
     174:	0000                	unimp
     176:	1208                	addi	a0,sp,288
     178:	0001                	nop
     17a:	8600                	0x8600
     17c:	0001                	nop
     17e:	0900                	addi	s0,sp,144
     180:	0025                	c.addi	zero,9
     182:	0000                	unimp
     184:	0000                	unimp
     186:	1f0d                	addi	t5,t5,-29
     188:	0002                	0x2
     18a:	2400                	fld	fs0,8(s0)
     18c:	3506                	fld	fa0,96(sp)
     18e:	01ff                	0x1ff
     190:	0000                	unimp
     192:	0001190b          	0x1190b
     196:	0600                	addi	s0,sp,768
     198:	00003337          	lui	t1,0x3
     19c:	0000                	unimp
     19e:	00073f0b          	0x73f0b
     1a2:	0600                	addi	s0,sp,768
     1a4:	3338                	fld	fa4,96(a4)
     1a6:	0000                	unimp
     1a8:	0400                	addi	s0,sp,512
     1aa:	0001350b          	0x1350b
     1ae:	0600                	addi	s0,sp,768
     1b0:	3339                	jal	fffffebe <__C_STACK_TOP__+0xfffefebe>
     1b2:	0000                	unimp
     1b4:	0800                	addi	s0,sp,16
     1b6:	0007940b          	0x7940b
     1ba:	0600                	addi	s0,sp,768
     1bc:	333a                	fld	ft6,424(sp)
     1be:	0000                	unimp
     1c0:	0c00                	addi	s0,sp,528
     1c2:	00039f0b          	0x39f0b
     1c6:	0600                	addi	s0,sp,768
     1c8:	0000333b          	0x333b
     1cc:	1000                	addi	s0,sp,32
     1ce:	0003320b          	0x3320b
     1d2:	0600                	addi	s0,sp,768
     1d4:	333c                	fld	fa5,96(a4)
     1d6:	0000                	unimp
     1d8:	1400                	addi	s0,sp,544
     1da:	0005fa0b          	0x5fa0b
     1de:	0600                	addi	s0,sp,768
     1e0:	333d                	jal	ffffff0e <__C_STACK_TOP__+0xfffeff0e>
     1e2:	0000                	unimp
     1e4:	1800                	addi	s0,sp,48
     1e6:	00077b0b          	0x77b0b
     1ea:	0600                	addi	s0,sp,768
     1ec:	333e                	fld	ft6,488(sp)
     1ee:	0000                	unimp
     1f0:	1c00                	addi	s0,sp,560
     1f2:	0007250b          	0x7250b
     1f6:	0600                	addi	s0,sp,768
     1f8:	0000333f 10002000 	0x100020000000333f
     200:	0152                	slli	sp,sp,0x14
     202:	0000                	unimp
     204:	0108                	addi	a0,sp,128
     206:	4806                	lw	a6,64(sp)
     208:	0000023f 0001ec0b 	0x1ec0b0000023f
     210:	0600                	addi	s0,sp,768
     212:	3f49                	jal	1a4 <SIM_STOP+0xac>
     214:	0002                	0x2
     216:	0000                	unimp
     218:	0004200b          	0x4200b
     21c:	0600                	addi	s0,sp,768
     21e:	3f4a                	fld	ft10,176(sp)
     220:	0002                	0x2
     222:	8000                	0x8000
     224:	9e11                	0x9e11
     226:	0005                	c.addi	zero,1
     228:	0600                	addi	s0,sp,768
     22a:	124c                	addi	a1,sp,292
     22c:	0001                	nop
     22e:	0000                	unimp
     230:	1101                	addi	sp,sp,-32
     232:	00000177          	0x177
     236:	4f06                	lw	t5,64(sp)
     238:	0112                	slli	sp,sp,0x4
     23a:	0000                	unimp
     23c:	0104                	addi	s1,sp,128
     23e:	0800                	addi	s0,sp,16
     240:	0110                	addi	a2,sp,128
     242:	0000                	unimp
     244:	0000024f          	fnmadd.s	ft4,ft0,ft0,ft0,rne
     248:	2509                	jal	84a <vprintfmt.constprop.1+0x40e>
     24a:	0000                	unimp
     24c:	1f00                	addi	s0,sp,944
     24e:	1000                	addi	s0,sp,32
     250:	03a8                	addi	a0,sp,456
     252:	0000                	unimp
     254:	0190                	addi	a2,sp,192
     256:	5b06                	lw	s6,96(sp)
     258:	028d                	addi	t0,t0,3
     25a:	0000                	unimp
     25c:	0007a30b          	0x7a30b
     260:	0600                	addi	s0,sp,768
     262:	8d5c                	0x8d5c
     264:	0002                	0x2
     266:	0000                	unimp
     268:	0004930b          	0x4930b
     26c:	0600                	addi	s0,sp,768
     26e:	335d                	jal	14 <buf.1743+0x14>
     270:	0000                	unimp
     272:	0400                	addi	s0,sp,512
     274:	0001f40b          	0x1f40b
     278:	0600                	addi	s0,sp,768
     27a:	935f 0002 0800      	0x8000002935f
     280:	0001520b          	0x1520b
     284:	0600                	addi	s0,sp,768
     286:	ff60                	fsw	fs0,124(a4)
     288:	0001                	nop
     28a:	8800                	0x8800
     28c:	0f00                	addi	s0,sp,912
     28e:	4f04                	lw	s1,24(a4)
     290:	0002                	0x2
     292:	0800                	addi	s0,sp,16
     294:	000002a3          	sb	zero,5(zero) # 5 <buf.1743+0x5>
     298:	000002a3          	sb	zero,5(zero) # 5 <buf.1743+0x5>
     29c:	2509                	jal	89e <vprintfmt.constprop.1+0x462>
     29e:	0000                	unimp
     2a0:	1f00                	addi	s0,sp,944
     2a2:	0f00                	addi	s0,sp,912
     2a4:	a904                	fsd	fs1,16(a0)
     2a6:	0002                	0x2
     2a8:	1200                	addi	s0,sp,288
     2aa:	8d0d                	sub	a0,a0,a1
     2ac:	08000007          	0x8000007
     2b0:	7306                	flw	ft6,96(sp)
     2b2:	000002cf          	fnmadd.s	ft5,ft0,ft0,ft0,rne
     2b6:	00012f0b          	0x12f0b
     2ba:	0600                	addi	s0,sp,768
     2bc:	cf74                	sw	a3,92(a4)
     2be:	0002                	0x2
     2c0:	0000                	unimp
     2c2:	0004f40b          	0x4f40b
     2c6:	0600                	addi	s0,sp,768
     2c8:	3375                	jal	74 <buflen.1744+0x34>
     2ca:	0000                	unimp
     2cc:	0400                	addi	s0,sp,512
     2ce:	0f00                	addi	s0,sp,912
     2d0:	4f04                	lw	s1,24(a4)
     2d2:	0000                	unimp
     2d4:	0d00                	addi	s0,sp,656
     2d6:	0000046f          	jal	s0,2d6 <handle_trap+0xe>
     2da:	0668                	addi	a0,sp,780
     2dc:	0003ffb3          	and	t6,t2,zero
     2e0:	0e00                	addi	s0,sp,784
     2e2:	705f 0600 cfb4      	0xcfb40600705f
     2e8:	0002                	0x2
     2ea:	0000                	unimp
     2ec:	5f0e                	lw	t5,224(sp)
     2ee:	0072                	0x72
     2f0:	b506                	fsd	ft1,168(sp)
     2f2:	00000033          	add	zero,zero,zero
     2f6:	0e04                	addi	s1,sp,784
     2f8:	775f 0600 33b6      	0x33b60600775f
     2fe:	0000                	unimp
     300:	0800                	addi	s0,sp,16
     302:	0001700b          	0x1700b
     306:	0600                	addi	s0,sp,768
     308:	000056b7          	lui	a3,0x5
     30c:	0c00                	addi	s0,sp,528
     30e:	00024b0b          	0x24b0b
     312:	0600                	addi	s0,sp,768
     314:	56b8                	lw	a4,104(a3)
     316:	0000                	unimp
     318:	0e00                	addi	s0,sp,784
     31a:	5f0e                	lw	t5,224(sp)
     31c:	6662                	flw	fa2,24(sp)
     31e:	0600                	addi	s0,sp,768
     320:	aab9                	j	47e <vprintfmt.constprop.1+0x42>
     322:	0002                	0x2
     324:	1000                	addi	s0,sp,32
     326:	0000d40b          	0xd40b
     32a:	0600                	addi	s0,sp,768
     32c:	33ba                	fld	ft7,424(sp)
     32e:	0000                	unimp
     330:	1800                	addi	s0,sp,48
     332:	0001600b          	0x1600b
     336:	0600                	addi	s0,sp,768
     338:	10c1                	addi	ra,ra,-16
     33a:	0001                	nop
     33c:	1c00                	addi	s0,sp,560
     33e:	0004070b          	0x4070b
     342:	0600                	addi	s0,sp,768
     344:	00056cc3          	fmadd.s	fs9,fa0,ft0,ft0,unknown
     348:	2000                	fld	fs0,0(s0)
     34a:	00032b0b          	0x32b0b
     34e:	0600                	addi	s0,sp,768
     350:	9bc5                	andi	a5,a5,-15
     352:	0005                	c.addi	zero,1
     354:	2400                	fld	fs0,8(s0)
     356:	0004dd0b          	0x4dd0b
     35a:	0600                	addi	s0,sp,768
     35c:	bfc8                	fsd	fa0,184(a5)
     35e:	0005                	c.addi	zero,1
     360:	2800                	fld	fs0,16(s0)
     362:	0001220b          	0x1220b
     366:	0600                	addi	s0,sp,768
     368:	d9c9                	beqz	a1,2fa <handle_trap+0x32>
     36a:	0005                	c.addi	zero,1
     36c:	2c00                	fld	fs0,24(s0)
     36e:	5f0e                	lw	t5,224(sp)
     370:	6275                	lui	tp,0x1d
     372:	0600                	addi	s0,sp,768
     374:	aacc                	fsd	fa1,144(a3)
     376:	0002                	0x2
     378:	3000                	fld	fs0,32(s0)
     37a:	5f0e                	lw	t5,224(sp)
     37c:	7075                	0x7075
     37e:	0600                	addi	s0,sp,768
     380:	cfcd                	beqz	a5,43a <STACK_SIZE+0x3a>
     382:	0002                	0x2
     384:	3800                	fld	fs0,48(s0)
     386:	5f0e                	lw	t5,224(sp)
     388:	7275                	lui	tp,0xffffd
     38a:	0600                	addi	s0,sp,768
     38c:	33ce                	fld	ft7,240(sp)
     38e:	0000                	unimp
     390:	3c00                	fld	fs0,56(s0)
     392:	0001290b          	0x1290b
     396:	0600                	addi	s0,sp,768
     398:	dfd1                	beqz	a5,334 <printf_putch+0x34>
     39a:	0005                	c.addi	zero,1
     39c:	4000                	lw	s0,0(s0)
     39e:	00070d0b          	0x70d0b
     3a2:	0600                	addi	s0,sp,768
     3a4:	efd2                	fsw	fs4,220(sp)
     3a6:	0005                	c.addi	zero,1
     3a8:	4300                	lw	s0,0(a4)
     3aa:	5f0e                	lw	t5,224(sp)
     3ac:	626c                	flw	fa1,68(a2)
     3ae:	0600                	addi	s0,sp,768
     3b0:	aad5                	j	5a4 <vprintfmt.constprop.1+0x168>
     3b2:	0002                	0x2
     3b4:	4400                	lw	s0,8(s0)
     3b6:	0004eb0b          	0x4eb0b
     3ba:	0600                	addi	s0,sp,768
     3bc:	33d8                	fld	fa4,160(a5)
     3be:	0000                	unimp
     3c0:	4c00                	lw	s0,24(s0)
     3c2:	00036d0b          	0x36d0b
     3c6:	0600                	addi	s0,sp,768
     3c8:	72d9                	lui	t0,0xffff6
     3ca:	0000                	unimp
     3cc:	5000                	lw	s0,32(s0)
     3ce:	0000a40b          	0xa40b
     3d2:	0600                	addi	s0,sp,768
     3d4:	1ddc                	addi	a5,sp,756
     3d6:	0004                	addi	s1,sp,0
     3d8:	5400                	lw	s0,40(s0)
     3da:	0002fd0b          	0x2fd0b
     3de:	0600                	addi	s0,sp,768
     3e0:	05e0                	addi	s0,sp,716
     3e2:	0001                	nop
     3e4:	5800                	lw	s0,48(s0)
     3e6:	0002330b          	0x2330b
     3ea:	0600                	addi	s0,sp,768
     3ec:	fae2                	fsw	fs8,116(sp)
     3ee:	0000                	unimp
     3f0:	5c00                	lw	s0,56(s0)
     3f2:	00044d0b          	0x44d0b
     3f6:	0600                	addi	s0,sp,768
     3f8:	000033e3          	0x33e3
     3fc:	6400                	flw	fs0,8(s0)
     3fe:	1300                	addi	s0,sp,416
     400:	0088                	addi	a0,sp,64
     402:	0000                	unimp
     404:	041d                	addi	s0,s0,7
     406:	0000                	unimp
     408:	1d14                	addi	a3,sp,688
     40a:	0004                	addi	s1,sp,0
     40c:	1400                	addi	s0,sp,544
     40e:	0110                	addi	a2,sp,128
     410:	0000                	unimp
     412:	5a14                	lw	a3,48(a2)
     414:	0005                	c.addi	zero,1
     416:	1400                	addi	s0,sp,544
     418:	00000033          	add	zero,zero,zero
     41c:	0f00                	addi	s0,sp,912
     41e:	2804                	fld	fs1,16(s0)
     420:	0004                	addi	s1,sp,0
     422:	1500                	addi	s0,sp,672
     424:	041d                	addi	s0,s0,7
     426:	0000                	unimp
     428:	ba16                	fsd	ft5,304(sp)
     42a:	0004                	addi	s1,sp,0
     42c:	2800                	fld	fs0,16(s0)
     42e:	0604                	addi	s1,sp,768
     430:	0238                	addi	a4,sp,264
     432:	055a                	slli	a0,a0,0x16
     434:	0000                	unimp
     436:	00043d17          	auipc	s10,0x43
     43a:	0600                	addi	s0,sp,768
     43c:	023a                	slli	tp,tp,0xe
     43e:	00000033          	add	zero,zero,zero
     442:	1700                	addi	s0,sp,928
     444:	060a                	slli	a2,a2,0x2
     446:	0000                	unimp
     448:	3f06                	fld	ft10,96(sp)
     44a:	4602                	lw	a2,0(sp)
     44c:	0006                	0x6
     44e:	0400                	addi	s0,sp,512
     450:	0005f217          	auipc	tp,0x5f
     454:	0600                	addi	s0,sp,768
     456:	0646023f 17080000 	0x170800000646023f
     45e:	01ff                	0x1ff
     460:	0000                	unimp
     462:	3f06                	fld	ft10,96(sp)
     464:	4602                	lw	a2,0(sp)
     466:	0006                	0x6
     468:	0c00                	addi	s0,sp,528
     46a:	00048e17          	auipc	t3,0x48
     46e:	0600                	addi	s0,sp,768
     470:	0241                	addi	tp,tp,16
     472:	00000033          	add	zero,zero,zero
     476:	1710                	addi	a2,sp,928
     478:	00000073          	ecall
     47c:	4206                	lw	tp,64(sp)
     47e:	2802                	fld	fa6,0(sp)
     480:	0008                	addi	a0,sp,0
     482:	1400                	addi	s0,sp,544
     484:	00061117          	auipc	sp,0x61
     488:	0600                	addi	s0,sp,768
     48a:	0244                	addi	s1,sp,260
     48c:	00000033          	add	zero,zero,zero
     490:	1730                	addi	a2,sp,936
     492:	0498                	addi	a4,sp,576
     494:	0000                	unimp
     496:	4506                	lw	a0,64(sp)
     498:	9002                	ebreak
     49a:	0005                	c.addi	zero,1
     49c:	3400                	fld	fs0,40(s0)
     49e:	0003ba17          	auipc	s4,0x3b
     4a2:	0600                	addi	s0,sp,768
     4a4:	00330247          	fmsub.s	ft4,ft6,ft3,ft0,rne
     4a8:	0000                	unimp
     4aa:	1738                	addi	a4,sp,936
     4ac:	04a8                	addi	a0,sp,584
     4ae:	0000                	unimp
     4b0:	4906                	lw	s2,64(sp)
     4b2:	4302                	lw	t1,0(sp)
     4b4:	0008                	addi	a0,sp,0
     4b6:	3c00                	fld	fs0,56(s0)
     4b8:	0002d917          	auipc	s2,0x2d
     4bc:	0600                	addi	s0,sp,768
     4be:	024c                	addi	a1,sp,260
     4c0:	0170                	addi	a2,sp,140
     4c2:	0000                	unimp
     4c4:	1740                	addi	s0,sp,932
     4c6:	0000018b          	0x18b
     4ca:	4d06                	lw	s10,64(sp)
     4cc:	3302                	fld	ft6,32(sp)
     4ce:	0000                	unimp
     4d0:	4400                	lw	s0,8(s0)
     4d2:	00077617          	auipc	a2,0x77
     4d6:	0600                	addi	s0,sp,768
     4d8:	024e                	slli	tp,tp,0x13
     4da:	0170                	addi	a2,sp,140
     4dc:	0000                	unimp
     4de:	1748                	addi	a0,sp,932
     4e0:	03d6                	slli	t2,t2,0x15
     4e2:	0000                	unimp
     4e4:	4f06                	lw	t5,64(sp)
     4e6:	4902                	lw	s2,0(sp)
     4e8:	0008                	addi	a0,sp,0
     4ea:	4c00                	lw	s0,24(s0)
     4ec:	00024317          	auipc	t1,0x24
     4f0:	0600                	addi	s0,sp,768
     4f2:	0252                	slli	tp,tp,0x14
     4f4:	00000033          	add	zero,zero,zero
     4f8:	1750                	addi	a2,sp,932
     4fa:	01b8                	addi	a4,sp,200
     4fc:	0000                	unimp
     4fe:	5306                	lw	t1,96(sp)
     500:	5a02                	lw	s4,32(sp)
     502:	0005                	c.addi	zero,1
     504:	5400                	lw	s0,40(s0)
     506:	00043617          	auipc	a2,0x43
     50a:	0600                	addi	s0,sp,768
     50c:	0276                	slli	tp,tp,0x1d
     50e:	0806                	slli	a6,a6,0x1
     510:	0000                	unimp
     512:	1858                	addi	a4,sp,52
     514:	03a8                	addi	a0,sp,456
     516:	0000                	unimp
     518:	7a06                	flw	fs4,96(sp)
     51a:	8d02                	jr	s10
     51c:	0002                	0x2
     51e:	4800                	lw	s0,16(s0)
     520:	1801                	addi	a6,a6,-32
     522:	000002b7          	lui	t0,0x0
     526:	7b06                	flw	fs6,96(sp)
     528:	4f02                	lw	t5,0(sp)
     52a:	0002                	0x2
     52c:	4c00                	lw	s0,24(s0)
     52e:	1801                	addi	a6,a6,-32
     530:	0636                	slli	a2,a2,0xd
     532:	0000                	unimp
     534:	7f06                	flw	ft10,96(sp)
     536:	5a02                	lw	s4,32(sp)
     538:	0008                	addi	a0,sp,0
     53a:	dc00                	sw	s0,56(s0)
     53c:	1802                	slli	a6,a6,0x20
     53e:	0168                	addi	a0,sp,140
     540:	0000                	unimp
     542:	8406                	mv	s0,ra
     544:	0b02                	slli	s6,s6,0x0
     546:	0006                	0x6
     548:	e000                	fsw	fs0,0(s0)
     54a:	1802                	slli	a6,a6,0x20
     54c:	014d                	addi	sp,sp,19
     54e:	0000                	unimp
     550:	8506                	mv	a0,ra
     552:	6602                	flw	fa2,0(sp)
     554:	0008                	addi	a0,sp,0
     556:	ec00                	fsw	fs0,24(s0)
     558:	0002                	0x2
     55a:	0560040f          	0x560040f
     55e:	0000                	unimp
     560:	0102                	slli	sp,sp,0x0
     562:	b008                	fsd	fa0,32(s0)
     564:	0005                	c.addi	zero,1
     566:	1500                	addi	s0,sp,672
     568:	0560                	addi	s0,sp,652
     56a:	0000                	unimp
     56c:	03ff040f          	0x3ff040f
     570:	0000                	unimp
     572:	00008813          	mv	a6,ra
     576:	9000                	0x9000
     578:	0005                	c.addi	zero,1
     57a:	1400                	addi	s0,sp,544
     57c:	041d                	addi	s0,s0,7
     57e:	0000                	unimp
     580:	1014                	addi	a3,sp,32
     582:	0001                	nop
     584:	1400                	addi	s0,sp,544
     586:	0590                	addi	a2,sp,704
     588:	0000                	unimp
     58a:	3314                	fld	fa3,32(a4)
     58c:	0000                	unimp
     58e:	0000                	unimp
     590:	0567040f          	0x567040f
     594:	0000                	unimp
     596:	9015                	srli	s0,s0,0x25
     598:	0005                	c.addi	zero,1
     59a:	0f00                	addi	s0,sp,912
     59c:	7204                	flw	fs1,32(a2)
     59e:	0005                	c.addi	zero,1
     5a0:	1300                	addi	s0,sp,416
     5a2:	007d                	c.addi	zero,31
     5a4:	0000                	unimp
     5a6:	000005bf 00041d14 	0x41d14000005bf
     5ae:	1400                	addi	s0,sp,544
     5b0:	0110                	addi	a2,sp,128
     5b2:	0000                	unimp
     5b4:	7d14                	flw	fa3,56(a0)
     5b6:	0000                	unimp
     5b8:	1400                	addi	s0,sp,544
     5ba:	00000033          	add	zero,zero,zero
     5be:	0f00                	addi	s0,sp,912
     5c0:	a104                	fsd	fs1,0(a0)
     5c2:	0005                	c.addi	zero,1
     5c4:	1300                	addi	s0,sp,416
     5c6:	00000033          	add	zero,zero,zero
     5ca:	05d9                	addi	a1,a1,22
     5cc:	0000                	unimp
     5ce:	1d14                	addi	a3,sp,688
     5d0:	0004                	addi	s1,sp,0
     5d2:	1400                	addi	s0,sp,544
     5d4:	0110                	addi	a2,sp,128
     5d6:	0000                	unimp
     5d8:	0f00                	addi	s0,sp,912
     5da:	c504                	sw	s1,8(a0)
     5dc:	0005                	c.addi	zero,1
     5de:	0800                	addi	s0,sp,16
     5e0:	0000004f          	fnmadd.s	ft0,ft0,ft0,ft0,rne
     5e4:	000005ef          	jal	a1,5e4 <vprintfmt.constprop.1+0x1a8>
     5e8:	2509                	jal	bea <vprintfmt.constprop.1+0x7ae>
     5ea:	0000                	unimp
     5ec:	0200                	addi	s0,sp,256
     5ee:	0800                	addi	s0,sp,16
     5f0:	0000004f          	fnmadd.s	ft0,ft0,ft0,ft0,rne
     5f4:	05ff                	0x5ff
     5f6:	0000                	unimp
     5f8:	2509                	jal	bfa <vprintfmt.constprop.1+0x7be>
     5fa:	0000                	unimp
     5fc:	0000                	unimp
     5fe:	0500                	addi	s0,sp,640
     600:	0184                	addi	s1,sp,192
     602:	0000                	unimp
     604:	1d06                	slli	s10,s10,0x21
     606:	d501                	beqz	a0,50e <vprintfmt.constprop.1+0xd2>
     608:	0002                	0x2
     60a:	1900                	addi	s0,sp,176
     60c:	0604                	addi	s1,sp,768
     60e:	0000                	unimp
     610:	060c                	addi	a1,sp,768
     612:	0121                	addi	sp,sp,8
     614:	0640                	addi	s0,sp,772
     616:	0000                	unimp
     618:	0007a317          	auipc	t1,0x7a
     61c:	0600                	addi	s0,sp,768
     61e:	06400123          	sb	tp,98(zero) # 62 <buflen.1744+0x22>
     622:	0000                	unimp
     624:	1700                	addi	s0,sp,928
     626:	00000263          	beqz	zero,62a <vprintfmt.constprop.1+0x1ee>
     62a:	2406                	fld	fs0,64(sp)
     62c:	3301                	jal	32c <printf_putch+0x2c>
     62e:	0000                	unimp
     630:	0400                	addi	s0,sp,512
     632:	00045517          	auipc	a0,0x45
     636:	0600                	addi	s0,sp,768
     638:	0125                	addi	sp,sp,9
     63a:	0646                	slli	a2,a2,0x11
     63c:	0000                	unimp
     63e:	0008                	addi	a0,sp,0
     640:	060b040f          	0x60b040f
     644:	0000                	unimp
     646:	05ff040f          	0x5ff040f
     64a:	0000                	unimp
     64c:	6b19                	lui	s6,0x6
     64e:	0000                	unimp
     650:	0e00                	addi	s0,sp,784
     652:	3d06                	fld	fs10,96(sp)
     654:	8101                	srli	a0,a0,0x0
     656:	0006                	0x6
     658:	1700                	addi	s0,sp,928
     65a:	056e                	slli	a0,a0,0x1b
     65c:	0000                	unimp
     65e:	3e06                	fld	ft8,96(sp)
     660:	8101                	srli	a0,a0,0x0
     662:	0006                	0x6
     664:	0000                	unimp
     666:	00030817          	auipc	a6,0x30
     66a:	0600                	addi	s0,sp,768
     66c:	0681013f 17060000 	0x170600000681013f
     674:	05b5                	addi	a1,a1,13
     676:	0000                	unimp
     678:	4006                	0x4006
     67a:	5d01                	li	s10,-32
     67c:	0000                	unimp
     67e:	0c00                	addi	s0,sp,528
     680:	0800                	addi	s0,sp,16
     682:	005d                	c.addi	zero,23
     684:	0000                	unimp
     686:	0691                	addi	a3,a3,4
     688:	0000                	unimp
     68a:	2509                	jal	c8c <vprintfmt.constprop.1+0x850>
     68c:	0000                	unimp
     68e:	0200                	addi	s0,sp,256
     690:	1a00                	addi	s0,sp,304
     692:	06d0                	addi	a2,sp,836
     694:	07920257          	0x7920257
     698:	0000                	unimp
     69a:	00034417          	auipc	s0,0x34
     69e:	0600                	addi	s0,sp,768
     6a0:	0259                	addi	tp,tp,22
     6a2:	0025                	c.addi	zero,9
     6a4:	0000                	unimp
     6a6:	1700                	addi	s0,sp,928
     6a8:	058a                	slli	a1,a1,0x2
     6aa:	0000                	unimp
     6ac:	5a06                	lw	s4,96(sp)
     6ae:	5a02                	lw	s4,32(sp)
     6b0:	0005                	c.addi	zero,1
     6b2:	0400                	addi	s0,sp,512
     6b4:	0002cc17          	auipc	s8,0x2c
     6b8:	0600                	addi	s0,sp,768
     6ba:	0792025b          	0x792025b
     6be:	0000                	unimp
     6c0:	1708                	addi	a0,sp,928
     6c2:	0730                	addi	a2,sp,904
     6c4:	0000                	unimp
     6c6:	5c06                	lw	s8,96(sp)
     6c8:	8602                	jr	a2
     6ca:	0001                	nop
     6cc:	2400                	fld	fs0,8(s0)
     6ce:	00020717          	auipc	a4,0x20
     6d2:	0600                	addi	s0,sp,768
     6d4:	025d                	addi	tp,tp,23
     6d6:	00000033          	add	zero,zero,zero
     6da:	1748                	addi	a0,sp,932
     6dc:	079e                	slli	a5,a5,0x7
     6de:	0000                	unimp
     6e0:	5e06                	lw	t3,96(sp)
     6e2:	2c02                	fld	fs8,0(sp)
     6e4:	0000                	unimp
     6e6:	5000                	lw	s0,32(s0)
     6e8:	00074817          	auipc	a6,0x74
     6ec:	0600                	addi	s0,sp,768
     6ee:	025f 064c 0000      	0x64c025f
     6f4:	1758                	addi	a4,sp,932
     6f6:	0481                	addi	s1,s1,0
     6f8:	0000                	unimp
     6fa:	6006                	flw	ft0,64(sp)
     6fc:	fa02                	fsw	ft0,52(sp)
     6fe:	0000                	unimp
     700:	6800                	flw	fs0,16(s0)
     702:	00076817          	auipc	a6,0x76
     706:	0600                	addi	s0,sp,768
     708:	0261                	addi	tp,tp,24
     70a:	00fa                	slli	ra,ra,0x1e
     70c:	0000                	unimp
     70e:	1770                	addi	a2,sp,940
     710:	0000013f fa026206 	0xfa0262060000013f
     718:	0000                	unimp
     71a:	7800                	flw	fs0,48(s0)
     71c:	00062c17          	auipc	s8,0x62
     720:	0600                	addi	s0,sp,768
     722:	07a20263          	beq	tp,s10,786 <vprintfmt.constprop.1+0x34a>
     726:	0000                	unimp
     728:	1780                	addi	s0,sp,992
     72a:	02c0                	addi	s0,sp,324
     72c:	0000                	unimp
     72e:	6406                	flw	fs0,64(sp)
     730:	b202                	fsd	ft0,288(sp)
     732:	88000007          	0x88000007
     736:	00009717          	auipc	a4,0x9
     73a:	0600                	addi	s0,sp,768
     73c:	0265                	addi	tp,tp,25
     73e:	00000033          	add	zero,zero,zero
     742:	17a0                	addi	s0,sp,1000
     744:	01d1                	addi	gp,gp,20
     746:	0000                	unimp
     748:	6606                	flw	fa2,64(sp)
     74a:	fa02                	fsw	ft0,52(sp)
     74c:	0000                	unimp
     74e:	a400                	fsd	fs0,8(s0)
     750:	00010217          	auipc	tp,0x10
     754:	0600                	addi	s0,sp,768
     756:	00fa0267          	jalr	tp,15(s4) # 3b4ad <__C_STACK_TOP__+0x2b4ad>
     75a:	0000                	unimp
     75c:	17ac                	addi	a1,sp,1000
     75e:	01c0                	addi	s0,sp,196
     760:	0000                	unimp
     762:	6806                	flw	fa6,64(sp)
     764:	fa02                	fsw	ft0,52(sp)
     766:	0000                	unimp
     768:	b400                	fsd	fs0,40(s0)
     76a:	0000aa17          	auipc	s4,0xa
     76e:	0600                	addi	s0,sp,768
     770:	0269                	addi	tp,tp,26
     772:	00fa                	slli	ra,ra,0x1e
     774:	0000                	unimp
     776:	17bc                	addi	a5,sp,1000
     778:	00b9                	addi	ra,ra,14
     77a:	0000                	unimp
     77c:	6a06                	flw	fs4,64(sp)
     77e:	fa02                	fsw	ft0,52(sp)
     780:	0000                	unimp
     782:	c400                	sw	s0,8(s0)
     784:	00043b17          	auipc	s6,0x43
     788:	0600                	addi	s0,sp,768
     78a:	0033026b          	0x33026b
     78e:	0000                	unimp
     790:	00cc                	addi	a1,sp,68
     792:	6008                	flw	fa0,0(s0)
     794:	0005                	c.addi	zero,1
     796:	a200                	fsd	fs0,0(a2)
     798:	09000007          	0x9000007
     79c:	0025                	c.addi	zero,9
     79e:	0000                	unimp
     7a0:	0019                	c.addi	zero,6
     7a2:	6008                	flw	fa0,0(s0)
     7a4:	0005                	c.addi	zero,1
     7a6:	b200                	fsd	fs0,32(a2)
     7a8:	09000007          	0x9000007
     7ac:	0025                	c.addi	zero,9
     7ae:	0000                	unimp
     7b0:	60080007          	0x60080007
     7b4:	0005                	c.addi	zero,1
     7b6:	c200                	sw	s0,0(a2)
     7b8:	09000007          	0x9000007
     7bc:	0025                	c.addi	zero,9
     7be:	0000                	unimp
     7c0:	f01a0017          	auipc	zero,0xf01a0
     7c4:	7006                	flw	ft0,96(sp)
     7c6:	e602                	fsw	ft0,12(sp)
     7c8:	17000007          	0x17000007
     7cc:	000002e7          	jalr	t0,zero
     7d0:	7306                	flw	ft6,96(sp)
     7d2:	e602                	fsw	ft0,12(sp)
     7d4:	00000007          	0x7
     7d8:	00021617          	auipc	a2,0x21
     7dc:	0600                	addi	s0,sp,768
     7de:	0274                	addi	a3,sp,268
     7e0:	07f6                	slli	a5,a5,0x1d
     7e2:	0000                	unimp
     7e4:	0078                	addi	a4,sp,12
     7e6:	cf08                	sw	a0,24(a4)
     7e8:	0002                	0x2
     7ea:	f600                	fsw	fs0,40(a2)
     7ec:	09000007          	0x9000007
     7f0:	0025                	c.addi	zero,9
     7f2:	0000                	unimp
     7f4:	001d                	c.addi	zero,7
     7f6:	2508                	fld	fa0,8(a0)
     7f8:	0000                	unimp
     7fa:	0600                	addi	s0,sp,768
     7fc:	0008                	addi	a0,sp,0
     7fe:	0900                	addi	s0,sp,144
     800:	0025                	c.addi	zero,9
     802:	0000                	unimp
     804:	001d                	c.addi	zero,7
     806:	5506f01b          	0x5506f01b
     80a:	2802                	fld	fa6,0(sp)
     80c:	0008                	addi	a0,sp,0
     80e:	1c00                	addi	s0,sp,560
     810:	04ba                	slli	s1,s1,0xe
     812:	0000                	unimp
     814:	6c06                	flw	fs8,64(sp)
     816:	9102                	jalr	sp
     818:	0006                	0x6
     81a:	1c00                	addi	s0,sp,560
     81c:	00000713          	li	a4,0
     820:	7506                	flw	fa0,96(sp)
     822:	c202                	sw	zero,4(sp)
     824:	00000007          	0x7
     828:	6008                	flw	fa0,0(s0)
     82a:	0005                	c.addi	zero,1
     82c:	3800                	fld	fs0,48(s0)
     82e:	0008                	addi	a0,sp,0
     830:	0900                	addi	s0,sp,144
     832:	0025                	c.addi	zero,9
     834:	0000                	unimp
     836:	0018                	addi	a4,sp,0
     838:	431d                	li	t1,7
     83a:	0008                	addi	a0,sp,0
     83c:	1400                	addi	s0,sp,544
     83e:	041d                	addi	s0,s0,7
     840:	0000                	unimp
     842:	0f00                	addi	s0,sp,912
     844:	3804                	fld	fs1,48(s0)
     846:	0008                	addi	a0,sp,0
     848:	0f00                	addi	s0,sp,912
     84a:	7004                	flw	fs1,32(s0)
     84c:	0001                	nop
     84e:	1d00                	addi	s0,sp,688
     850:	085a                	slli	a6,a6,0x16
     852:	0000                	unimp
     854:	3314                	fld	fa3,32(a4)
     856:	0000                	unimp
     858:	0000                	unimp
     85a:	0860040f          	0x860040f
     85e:	0000                	unimp
     860:	084f040f          	0x84f040f
     864:	0000                	unimp
     866:	ff08                	fsw	fa0,56(a4)
     868:	0005                	c.addi	zero,1
     86a:	7600                	flw	fs0,40(a2)
     86c:	0008                	addi	a0,sp,0
     86e:	0900                	addi	s0,sp,144
     870:	0025                	c.addi	zero,9
     872:	0000                	unimp
     874:	0002                	0x2
     876:	de1e                	sw	t2,60(sp)
     878:	0005                	c.addi	zero,1
     87a:	0600                	addi	s0,sp,768
     87c:	02fd                	addi	t0,t0,31
     87e:	041d                	addi	s0,s0,7
     880:	0000                	unimp
     882:	d71e                	sw	t2,172(sp)
     884:	0005                	c.addi	zero,1
     886:	0600                	addi	s0,sp,768
     888:	02fe                	slli	t0,t0,0x1f
     88a:	00000423          	sb	zero,8(zero) # f01a07c8 <__C_STACK_TOP__+0xf01907c8>
     88e:	9608                	0x9608
     890:	0005                	c.addi	zero,1
     892:	9900                	0x9900
     894:	0008                	addi	a0,sp,0
     896:	1f00                	addi	s0,sp,944
     898:	1500                	addi	s0,sp,672
     89a:	088e                	slli	a7,a7,0x3
     89c:	0000                	unimp
     89e:	ab20                	fsd	fs0,80(a4)
     8a0:	0001                	nop
     8a2:	0700                	addi	s0,sp,896
     8a4:	9914                	0x9914
     8a6:	0008                	addi	a0,sp,0
     8a8:	2000                	fld	fs0,0(s0)
     8aa:	00000477          	0x477
     8ae:	00331507          	0x331507
     8b2:	0000                	unimp
     8b4:	08ba040f          	0x8ba040f
     8b8:	0000                	unimp
     8ba:	00003313          	sltiu	t1,zero,0
     8be:	ce00                	sw	s0,24(a2)
     8c0:	0008                	addi	a0,sp,0
     8c2:	1400                	addi	s0,sp,544
     8c4:	08ce                	slli	a7,a7,0x13
     8c6:	0000                	unimp
     8c8:	ce14                	sw	a3,24(a2)
     8ca:	0008                	addi	a0,sp,0
     8cc:	0000                	unimp
     8ce:	08d4040f          	0x8d4040f
     8d2:	0000                	unimp
     8d4:	2021                	jal	8dc <vprintfmt.constprop.1+0x4a0>
     8d6:	03b0                	addi	a2,sp,456
     8d8:	0000                	unimp
     8da:	5f08                	lw	a0,56(a4)
     8dc:	055a                	slli	a0,a0,0x16
     8de:	0000                	unimp
     8e0:	ee20                	fsw	fs0,88(a2)
     8e2:	0002                	0x2
     8e4:	0900                	addi	s0,sp,144
     8e6:	eb10                	fsw	fa2,16(a4)
     8e8:	0008                	addi	a0,sp,0
     8ea:	0f00                	addi	s0,sp,912
     8ec:	5a04                	lw	s1,48(a2)
     8ee:	0005                	c.addi	zero,1
     8f0:	2000                	fld	fs0,0(s0)
     8f2:	000003b3          	add	t2,zero,zero
     8f6:	d809                	beqz	s0,808 <vprintfmt.constprop.1+0x3cc>
     8f8:	055a                	slli	a0,a0,0x16
     8fa:	0000                	unimp
     8fc:	dd20                	sw	s0,120(a0)
     8fe:	0000                	unimp
     900:	0900                	addi	s0,sp,144
     902:	33d9                	jal	6c8 <vprintfmt.constprop.1+0x28c>
     904:	0000                	unimp
     906:	2000                	fld	fs0,0(s0)
     908:	0574                	addi	a3,sp,652
     90a:	0000                	unimp
     90c:	d909                	beqz	a0,81e <vprintfmt.constprop.1+0x3e2>
     90e:	00000033          	add	zero,zero,zero
     912:	5720                	lw	s0,104(a4)
     914:	09000007          	0x9000007
     918:	33d9                	jal	6de <vprintfmt.constprop.1+0x2a2>
     91a:	0000                	unimp
     91c:	2000                	fld	fs0,0(s0)
     91e:	0322                	slli	t1,t1,0x8
     920:	0000                	unimp
     922:	db09                	beqz	a4,834 <vprintfmt.constprop.1+0x3f8>
     924:	00000033          	add	zero,zero,zero
     928:	e020                	fsw	fs0,64(s0)
     92a:	0a000003          	lb	zero,160(zero) # a0 <buflen.1744+0x60>
     92e:	0000648b          	0x648b
     932:	2000                	fld	fs0,0(s0)
     934:	007e                	0x7e
     936:	0000                	unimp
     938:	8c0a                	mv	s8,sp
     93a:	00000033          	add	zero,zero,zero
     93e:	5a08                	lw	a0,48(a2)
     940:	0005                	c.addi	zero,1
     942:	4e00                	lw	s0,24(a2)
     944:	0009                	c.addi	zero,2
     946:	0900                	addi	s0,sp,144
     948:	0025                	c.addi	zero,9
     94a:	0000                	unimp
     94c:	0001                	nop
     94e:	1120                	addi	s0,sp,168
     950:	0001                	nop
     952:	0a00                	addi	s0,sp,272
     954:	00093e8f          	0x93e8f
     958:	0400                	addi	s0,sp,512
     95a:	0251                	addi	tp,tp,20
     95c:	0000                	unimp
     95e:	00252a0b          	0x252a0b
     962:	0000                	unimp
     964:	6504                	flw	fs1,8(a0)
     966:	0004                	addi	s1,sp,0
     968:	0b00                	addi	s0,sp,400
     96a:	00096f2f          	0x96f2f
     96e:	0f00                	addi	s0,sp,912
     970:	7504                	flw	fs1,40(a0)
     972:	0009                	c.addi	zero,2
     974:	1300                	addi	s0,sp,416
     976:	0959                	addi	s2,s2,22
     978:	0000                	unimp
     97a:	0984                	addi	s1,sp,208
     97c:	0000                	unimp
     97e:	ce14                	sw	a3,24(a2)
     980:	0008                	addi	a0,sp,0
     982:	0000                	unimp
     984:	a904                	fsd	fs1,16(a0)
     986:	0b000007          	0xb000007
     98a:	b436                	fsd	fa3,40(sp)
     98c:	0008                	addi	a0,sp,0
     98e:	2000                	fld	fs0,0(s0)
     990:	000a                	0xa
     992:	0000                	unimp
     994:	0964bb0b          	0x964bb0b
     998:	0000                	unimp
     99a:	c220                	sw	s0,64(a2)
     99c:	0005                	c.addi	zero,1
     99e:	0b00                	addi	s0,sp,400
     9a0:	84be                	mv	s1,a5
     9a2:	0009                	c.addi	zero,2
     9a4:	2200                	fld	fs0,0(a2)
     9a6:	0224                	addi	s1,sp,264
     9a8:	0000                	unimp
     9aa:	00250407          	0x250407
     9ae:	0000                	unimp
     9b0:	180c                	addi	a1,sp,48
     9b2:	000009db          	0x9db
     9b6:	00041623          	sh	zero,12(s0) # 346a6 <__C_STACK_TOP__+0x246a6>
     9ba:	0000                	unimp
     9bc:	00038623          	sb	zero,12(t2)
     9c0:	0100                	addi	s0,sp,128
     9c2:	00035123          	0x35123
     9c6:	0200                	addi	s0,sp,256
     9c8:	00040d23          	sb	zero,26(s0)
     9cc:	0300                	addi	s0,sp,384
     9ce:	00075e23          	0x75e23
     9d2:	0400                	addi	s0,sp,512
     9d4:	00074d23          	0x74d23
     9d8:	0500                	addi	s0,sp,640
     9da:	2000                	fld	fs0,0(s0)
     9dc:	00f8                	addi	a4,sp,76
     9de:	0000                	unimp
     9e0:	200c                	fld	fa1,0(s0)
     9e2:	09a5                	addi	s3,s3,9
     9e4:	0000                	unimp
     9e6:	5c22                	lw	s8,40(sp)
     9e8:	07000003          	lb	zero,112(zero) # 70 <buflen.1744+0x30>
     9ec:	2504                	fld	fs1,8(a0)
     9ee:	0000                	unimp
     9f0:	0c00                	addi	s0,sp,528
     9f2:	0a22                	slli	s4,s4,0x8
     9f4:	000a                	0xa
     9f6:	2300                	fld	fs0,0(a4)
     9f8:	0000045b          	0x45b
     9fc:	2300                	fld	fs0,0(a4)
     9fe:	042c                	addi	a1,sp,520
     a00:	0000                	unimp
     a02:	2301                	jal	f02 <vprintfmt.constprop.1+0xac6>
     a04:	00000597          	auipc	a1,0x0
     a08:	0002                	0x2
     a0a:	df20                	sw	s0,120(a4)
     a0c:	0001                	nop
     a0e:	0c00                	addi	s0,sp,528
     a10:	0009e627          	0x9e627
     a14:	2000                	fld	fs0,0(s0)
     a16:	00000313          	li	t1,0
     a1a:	250d                	jal	103c <vprintfmt.constprop.1+0xc00>
     a1c:	0899                	addi	a7,a7,6
     a1e:	0000                	unimp
     a20:	a720                	fsd	fs0,72(a4)
     a22:	0002                	0x2
     a24:	0d00                	addi	s0,sp,656
     a26:	9931                	andi	a0,a0,-20
     a28:	0008                	addi	a0,sp,0
     a2a:	0400                	addi	s0,sp,512
     a2c:	0785                	addi	a5,a5,1
     a2e:	0000                	unimp
     a30:	7b0e                	flw	fs6,224(sp)
     a32:	0000004f          	fnmadd.s	ft0,ft0,ft0,ft0,rne
     a36:	2b15                	jal	f6a <vprintfmt.constprop.1+0xb2e>
     a38:	000a                	0xa
     a3a:	0400                	addi	s0,sp,512
     a3c:	0196                	slli	gp,gp,0x5
     a3e:	0000                	unimp
     a40:	800e                	0x800e
     a42:	00000033          	add	zero,zero,zero
     a46:	9504                	0x9504
     a48:	0001                	nop
     a4a:	0e00                	addi	s0,sp,784
     a4c:	2581                	jal	108c <vprintfmt.constprop.1+0xc50>
     a4e:	0000                	unimp
     a50:	0400                	addi	s0,sp,512
     a52:	000005eb          	0x5eb
     a56:	840e                	mv	s0,gp
     a58:	003a                	0x3a
     a5a:	0000                	unimp
     a5c:	ea04                	fsw	fs1,16(a2)
     a5e:	0005                	c.addi	zero,1
     a60:	0e00                	addi	s0,sp,784
     a62:	2c85                	jal	cd2 <vprintfmt.constprop.1+0x896>
     a64:	0000                	unimp
     a66:	0200                	addi	s0,sp,256
     a68:	0404                	addi	s1,sp,512
     a6a:	0399                	addi	t2,t2,6
     a6c:	0000                	unimp
     a6e:	0802                	slli	a6,a6,0x0
     a70:	00039103          	lh	sp,0(t2)
     a74:	0200                	addi	s0,sp,256
     a76:	0408                	addi	a0,sp,512
     a78:	00f1                	addi	ra,ra,28
     a7a:	0000                	unimp
     a7c:	1002                	0x1002
     a7e:	00008803          	lb	a6,0(ra)
     a82:	0200                	addi	s0,sp,256
     a84:	0320                	addi	s0,sp,392
     a86:	00e4                	addi	s1,sp,76
     a88:	0000                	unimp
     a8a:	8119                	srli	a0,a0,0x6
     a8c:	0002                	0x2
     a8e:	0800                	addi	s0,sp,16
     a90:	ed0e                	fsw	ft3,152(sp)
     a92:	b201                	j	392 <printf_putch+0x92>
     a94:	000a                	0xa
     a96:	2400                	fld	fs0,8(s0)
     a98:	6f6c                	flw	fa1,92(a4)
     a9a:	ed0e0077          	0xed0e0077
     a9e:	3b01                	jal	7ae <vprintfmt.constprop.1+0x372>
     aa0:	000a                	0xa
     aa2:	0000                	unimp
     aa4:	00057b17          	auipc	s6,0x57
     aa8:	0e00                	addi	s0,sp,784
     aaa:	01ed                	addi	gp,gp,27
     aac:	00000a3b          	0xa3b
     ab0:	0004                	addi	s1,sp,0
     ab2:	f40e081b          	0xf40e081b
     ab6:	d101                	beqz	a0,9b6 <vprintfmt.constprop.1+0x57a>
     ab8:	000a                	0xa
     aba:	2500                	fld	fs0,8(a0)
     abc:	f60e0073          	0xf60e0073
     ac0:	8a01                	andi	a2,a2,0
     ac2:	000a                	0xa
     ac4:	2500                	fld	fs0,8(a0)
     ac6:	6c6c                	flw	fa1,92(s0)
     ac8:	0e00                	addi	s0,sp,784
     aca:	0a5101f7          	0xa5101f7
     ace:	0000                	unimp
     ad0:	0500                	addi	s0,sp,640
     ad2:	0000025b          	0x25b
     ad6:	f80e                	fsw	ft3,48(sp)
     ad8:	b201                	j	3d8 <printf_putch+0xd8>
     ada:	000a                	0xa
     adc:	1500                	addi	s0,sp,672
     ade:	0ad1                	addi	s5,s5,20
     ae0:	0000                	unimp
     ae2:	3608                	fld	fa0,40(a2)
     ae4:	000a                	0xa
     ae6:	f200                	fsw	fs0,32(a2)
     ae8:	000a                	0xa
     aea:	0900                	addi	s0,sp,144
     aec:	0025                	c.addi	zero,9
     aee:	0000                	unimp
     af0:	00ff                	0xff
     af2:	e215                	bnez	a2,b16 <vprintfmt.constprop.1+0x6da>
     af4:	000a                	0xa
     af6:	1e00                	addi	s0,sp,816
     af8:	0640                	addi	s0,sp,772
     afa:	0000                	unimp
     afc:	fc0e                	fsw	ft3,56(sp)
     afe:	f201                	bnez	a2,9fe <vprintfmt.constprop.1+0x5c2>
     b00:	000a                	0xa
     b02:	1e00                	addi	s0,sp,816
     b04:	029d                	addi	t0,t0,7
     b06:	0000                	unimp
     b08:	020e                	slli	tp,tp,0x3
     b0a:	f202                	fsw	ft0,36(sp)
     b0c:	000a                	0xa
     b0e:	2600                	fld	fs0,8(a2)
     b10:	037d                	addi	t1,t1,31
     b12:	0000                	unimp
     b14:	e601                	bnez	a2,b1c <vprintfmt.constprop.1+0x6e0>
     b16:	5104                	lw	s1,32(a0)
     b18:	000a                	0xa
     b1a:	8000                	0x8000
     b1c:	0029                	c.addi	zero,10
     b1e:	5800                	lw	s0,48(s0)
     b20:	0004                	addi	s1,sp,0
     b22:	0100                	addi	s0,sp,128
     b24:	6a9c                	flw	fa5,16(a3)
     b26:	000e                	0xe
     b28:	2700                	fld	fs0,8(a4)
     b2a:	0075                	c.addi	zero,29
     b2c:	e601                	bnez	a2,b34 <vprintfmt.constprop.1+0x6f8>
     b2e:	5104                	lw	s1,32(a0)
     b30:	000a                	0xa
     b32:	0000                	unimp
     b34:	0000                	unimp
     b36:	2700                	fld	fs0,8(a4)
     b38:	0076                	0x76
     b3a:	e601                	bnez	a2,b42 <vprintfmt.constprop.1+0x706>
     b3c:	5104                	lw	s1,32(a0)
     b3e:	000a                	0xa
     b40:	2800                	fld	fs0,16(s0)
     b42:	0000                	unimp
     b44:	2800                	fld	fs0,16(s0)
     b46:	e8010063          	beqz	sp,1c6 <machine_trap_entry+0x6>
     b4a:	3b04                	fld	fs1,48(a4)
     b4c:	000a                	0xa
     b4e:	5000                	lw	s0,32(s0)
     b50:	0000                	unimp
     b52:	2800                	fld	fs0,16(s0)
     b54:	7575                	lui	a0,0xffffd
     b56:	0100                	addi	s0,sp,128
     b58:	04e9                	addi	s1,s1,26
     b5a:	0ad1                	addi	s5,s5,20
     b5c:	0000                	unimp
     b5e:	007c                	addi	a5,sp,12
     b60:	0000                	unimp
     b62:	7628                	flw	fa0,104(a2)
     b64:	0076                	0x76
     b66:	ea01                	bnez	a2,b76 <vprintfmt.constprop.1+0x73a>
     b68:	d104                	sw	s1,32(a0)
     b6a:	000a                	0xa
     b6c:	a400                	fsd	fs0,8(s0)
     b6e:	0000                	unimp
     b70:	2800                	fld	fs0,16(s0)
     b72:	eb010077          	0xeb010077
     b76:	5104                	lw	s1,32(a0)
     b78:	000a                	0xa
     b7a:	4c00                	lw	s0,24(s0)
     b7c:	0001                	nop
     b7e:	2900                	fld	fs0,16(a0)
     b80:	0e6a                	slli	t3,t3,0x1a
     b82:	0000                	unimp
     b84:	29b0                	fld	fa2,80(a1)
     b86:	0000                	unimp
     b88:	0000                	unimp
     b8a:	0000                	unimp
     b8c:	f301                	bnez	a4,a8c <vprintfmt.constprop.1+0x650>
     b8e:	2a04                	fld	fs1,16(a2)
     b90:	00000e8f          	0xe8f
     b94:	0184                	addi	s1,sp,192
     b96:	0000                	unimp
     b98:	852a                	mv	a0,a0
     b9a:	000e                	0xe
     b9c:	ac00                	fsd	fs0,24(s0)
     b9e:	0001                	nop
     ba0:	2b00                	fld	fs0,16(a4)
     ba2:	00000e7b          	0xe7b
     ba6:	002c                	addi	a1,sp,8
     ba8:	0000                	unimp
     baa:	2d00                	fld	fs0,24(a0)
     bac:	0e9a                	slli	t4,t4,0x6
     bae:	0000                	unimp
     bb0:	a52d                	j	11da <vprintfmt.constprop.1+0xd9e>
     bb2:	000e                	0xe
     bb4:	2d00                	fld	fs0,24(a0)
     bb6:	0eb0                	addi	a2,sp,856
     bb8:	0000                	unimp
     bba:	bb2e                	fsd	fa1,432(sp)
     bbc:	000e                	0xe
     bbe:	4400                	lw	s0,8(s0)
     bc0:	0002                	0x2
     bc2:	2e00                	fld	fs0,24(a2)
     bc4:	0ec6                	slli	t4,t4,0x11
     bc6:	0000                	unimp
     bc8:	00000283          	lb	t0,0(zero) # 0 <buf.1743>
     bcc:	d12e                	sw	a1,160(sp)
     bce:	000e                	0xe
     bd0:	f900                	fsw	fs0,48(a0)
     bd2:	0002                	0x2
     bd4:	2e00                	fld	fs0,24(a2)
     bd6:	0edc                	addi	a5,sp,852
     bd8:	0000                	unimp
     bda:	0000036f          	jal	t1,bda <vprintfmt.constprop.1+0x79e>
     bde:	e72e                	fsw	fa1,140(sp)
     be0:	000e                	0xe
     be2:	cf00                	sw	s0,24(a4)
     be4:	2e000003          	lb	zero,736(zero) # 2e0 <handle_trap+0x18>
     be8:	0ef2                	slli	t4,t4,0x1c
     bea:	0000                	unimp
     bec:	03ed                	addi	t2,t2,27
     bee:	0000                	unimp
     bf0:	fd2e                	fsw	fa1,184(sp)
     bf2:	000e                	0xe
     bf4:	0100                	addi	s0,sp,128
     bf6:	0004                	addi	s1,sp,0
     bf8:	2e00                	fld	fs0,24(a2)
     bfa:	0f08                	addi	a0,sp,912
     bfc:	0000                	unimp
     bfe:	0421                	addi	s0,s0,8
     c00:	0000                	unimp
     c02:	122e                	slli	tp,tp,0x2b
     c04:	3f00000f          	0x3f00000f
     c08:	0004                	addi	s1,sp,0
     c0a:	2d00                	fld	fs0,24(a0)
     c0c:	0f1d                	addi	t5,t5,7
     c0e:	0000                	unimp
     c10:	000f282f          	amoadd.w	a6,zero,(t5)
     c14:	1800                	addi	s0,sp,48
     c16:	0000                	unimp
     c18:	3000                	fld	fs0,32(s0)
     c1a:	000c                	addi	a1,sp,0
     c1c:	2e00                	fld	fs0,24(a2)
     c1e:	0f2d                	addi	t5,t5,11
     c20:	0000                	unimp
     c22:	047e                	slli	s0,s0,0x1f
     c24:	0000                	unimp
     c26:	392e                	fld	fs2,232(sp)
     c28:	9c00000f          	0x9c00000f
     c2c:	0004                	addi	s1,sp,0
     c2e:	0000                	unimp
     c30:	4630                	lw	a2,72(a2)
     c32:	1400000f          	0x1400000f
     c36:	002a                	0x2a
     c38:	7000                	flw	fs0,32(s0)
     c3a:	0000                	unimp
     c3c:	7d00                	flw	fs0,56(a0)
     c3e:	000c                	addi	a1,sp,0
     c40:	2e00                	fld	fs0,24(a2)
     c42:	00000f4b          	fnmsub.s	ft10,ft0,ft0,ft0,rne
     c46:	000004af          	0x4af
     c4a:	572e                	lw	a4,232(sp)
     c4c:	c200000f          	0xc200000f
     c50:	0004                	addi	s1,sp,0
     c52:	2d00                	fld	fs0,24(a0)
     c54:	00000f63          	beqz	zero,c72 <vprintfmt.constprop.1+0x836>
     c58:	6f2e                	flw	ft10,200(sp)
     c5a:	e600000f          	0xe600000f
     c5e:	0004                	addi	s1,sp,0
     c60:	2e00                	fld	fs0,24(a2)
     c62:	00000f7b          	0xf7b
     c66:	04f9                	addi	s1,s1,30
     c68:	0000                	unimp
     c6a:	872e                	mv	a4,a1
     c6c:	1700000f          	0x1700000f
     c70:	0005                	c.addi	zero,1
     c72:	2e00                	fld	fs0,24(a2)
     c74:	00000f93          	li	t6,0
     c78:	0535                	addi	a0,a0,13
     c7a:	0000                	unimp
     c7c:	2f00                	fld	fs0,24(a4)
     c7e:	0fa0                	addi	s0,sp,984
     c80:	0000                	unimp
     c82:	0030                	addi	a2,sp,8
     c84:	0000                	unimp
     c86:	0c9d                	addi	s9,s9,7
     c88:	0000                	unimp
     c8a:	a52e                	fsd	fa1,136(sp)
     c8c:	5300000f          	0x5300000f
     c90:	0005                	c.addi	zero,1
     c92:	2e00                	fld	fs0,24(a2)
     c94:	0fb1                	addi	t6,t6,12
     c96:	0000                	unimp
     c98:	0571                	addi	a0,a0,28
     c9a:	0000                	unimp
     c9c:	3000                	fld	fs0,32(s0)
     c9e:	1018                	addi	a4,sp,32
     ca0:	0000                	unimp
     ca2:	2afc                	fld	fa5,208(a3)
     ca4:	0000                	unimp
     ca6:	0074                	addi	a3,sp,12
     ca8:	0000                	unimp
     caa:	0cee                	slli	s9,s9,0x1b
     cac:	0000                	unimp
     cae:	1d2e                	slli	s10,s10,0x2b
     cb0:	0010                	addi	a2,sp,0
     cb2:	8400                	0x8400
     cb4:	0005                	c.addi	zero,1
     cb6:	2e00                	fld	fs0,24(a2)
     cb8:	1029                	c.addi	zero,-22
     cba:	0000                	unimp
     cbc:	00000597          	auipc	a1,0x0
     cc0:	352e                	fld	fa0,232(sp)
     cc2:	0010                	addi	a2,sp,0
     cc4:	bb00                	fsd	fs0,48(a4)
     cc6:	0005                	c.addi	zero,1
     cc8:	2e00                	fld	fs0,24(a2)
     cca:	1041                	c.addi	zero,-16
     ccc:	0000                	unimp
     cce:	05ce                	slli	a1,a1,0x13
     cd0:	0000                	unimp
     cd2:	4d2e                	lw	s10,200(sp)
     cd4:	0010                	addi	a2,sp,0
     cd6:	e100                	fsw	fs0,0(a0)
     cd8:	0005                	c.addi	zero,1
     cda:	2e00                	fld	fs0,24(a2)
     cdc:	1059                	c.addi	zero,-10
     cde:	0000                	unimp
     ce0:	060a                	slli	a2,a2,0x2
     ce2:	0000                	unimp
     ce4:	652e                	flw	fa0,200(sp)
     ce6:	0010                	addi	a2,sp,0
     ce8:	2800                	fld	fs0,16(s0)
     cea:	0006                	0x6
     cec:	0000                	unimp
     cee:	000fbe2f          	0xfbe2f
     cf2:	4800                	lw	s0,16(s0)
     cf4:	0000                	unimp
     cf6:	3b00                	fld	fs0,48(a4)
     cf8:	000d                	c.addi	zero,3
     cfa:	2e00                	fld	fs0,24(a2)
     cfc:	00000fc3          	fmadd.s	ft11,ft0,ft0,ft0,rne
     d00:	0646                	slli	a2,a2,0x11
     d02:	0000                	unimp
     d04:	cf2e                	sw	a1,156(sp)
     d06:	5900000f          	0x5900000f
     d0a:	0006                	0x6
     d0c:	2e00                	fld	fs0,24(a2)
     d0e:	00000fdb          	0xfdb
     d12:	067d                	addi	a2,a2,31
     d14:	0000                	unimp
     d16:	e72e                	fsw	fa1,140(sp)
     d18:	d600000f          	0xd600000f
     d1c:	0006                	0x6
     d1e:	2e00                	fld	fs0,24(a2)
     d20:	00000ff3          	0xff3
     d24:	06e9                	addi	a3,a3,26
     d26:	0000                	unimp
     d28:	ff2e                	fsw	fa1,188(sp)
     d2a:	2200000f          	0x2200000f
     d2e:	2e000007          	0x2e000007
     d32:	0000100b          	0x100b
     d36:	0740                	addi	s0,sp,900
     d38:	0000                	unimp
     d3a:	2f00                	fld	fs0,24(a4)
     d3c:	1072                	0x1072
     d3e:	0000                	unimp
     d40:	0060                	addi	s0,sp,12
     d42:	0000                	unimp
     d44:	00000d5b          	0xd5b
     d48:	772e                	flw	fa4,232(sp)
     d4a:	0010                	addi	a2,sp,0
     d4c:	5e00                	lw	s0,56(a2)
     d4e:	2e000007          	0x2e000007
     d52:	00001083          	lh	ra,0(zero) # 0 <buf.1743>
     d56:	0792                	slli	a5,a5,0x4
     d58:	0000                	unimp
     d5a:	3000                	fld	fs0,32(s0)
     d5c:	1090                	addi	a2,sp,96
     d5e:	0000                	unimp
     d60:	2c54                	fld	fa3,152(s0)
     d62:	0000                	unimp
     d64:	0010                	addi	a2,sp,0
     d66:	0000                	unimp
     d68:	0d76                	slli	s10,s10,0x1d
     d6a:	0000                	unimp
     d6c:	952e                	add	a0,a0,a1
     d6e:	0010                	addi	a2,sp,0
     d70:	b000                	fsd	fs0,32(s0)
     d72:	00000007          	0x7
     d76:	a231                	j	e82 <vprintfmt.constprop.1+0xa46>
     d78:	0010                	addi	a2,sp,0
     d7a:	8400                	0x8400
     d7c:	002c                	addi	a1,sp,8
     d7e:	5400                	lw	s0,40(s0)
     d80:	0001                	nop
     d82:	2e00                	fld	fs0,24(a2)
     d84:	000010a3          	sh	zero,1(zero) # 1 <buf.1743+0x1>
     d88:	000007c3          	fmadd.s	fa5,ft0,ft0,ft0,rne
     d8c:	ae2e                	fsd	fa1,280(sp)
     d8e:	0010                	addi	a2,sp,0
     d90:	e100                	fsw	fs0,0(a0)
     d92:	2f000007          	0x2f000007
     d96:	10b9                	addi	ra,ra,-18
     d98:	0000                	unimp
     d9a:	0078                	addi	a4,sp,12
     d9c:	0000                	unimp
     d9e:	0de2                	slli	s11,s11,0x18
     da0:	0000                	unimp
     da2:	be2e                	fsd	fa1,312(sp)
     da4:	0010                	addi	a2,sp,0
     da6:	0a00                	addi	s0,sp,272
     da8:	0008                	addi	a0,sp,0
     daa:	2e00                	fld	fs0,24(a2)
     dac:	10ca                	slli	ra,ra,0x32
     dae:	0000                	unimp
     db0:	082c                	addi	a1,sp,24
     db2:	0000                	unimp
     db4:	d62e                	sw	a1,44(sp)
     db6:	0010                	addi	a2,sp,0
     db8:	5000                	lw	s0,32(s0)
     dba:	0008                	addi	a0,sp,0
     dbc:	2e00                	fld	fs0,24(a2)
     dbe:	10e2                	slli	ra,ra,0x38
     dc0:	0000                	unimp
     dc2:	086e                	slli	a6,a6,0x1b
     dc4:	0000                	unimp
     dc6:	ee2e                	fsw	fa1,28(sp)
     dc8:	0010                	addi	a2,sp,0
     dca:	8c00                	0x8c00
     dcc:	0008                	addi	a0,sp,0
     dce:	2e00                	fld	fs0,24(a2)
     dd0:	10fa                	slli	ra,ra,0x3e
     dd2:	0000                	unimp
     dd4:	08b5                	addi	a7,a7,13
     dd6:	0000                	unimp
     dd8:	062e                	slli	a2,a2,0xb
     dda:	0011                	c.addi	zero,4
     ddc:	de00                	sw	s0,56(a2)
     dde:	0008                	addi	a0,sp,0
     de0:	0000                	unimp
     de2:	0011132f          	0x11132f
     de6:	a000                	fsd	fs0,0(s0)
     de8:	0000                	unimp
     dea:	3400                	fld	fs0,40(s0)
     dec:	000e                	0xe
     dee:	2e00                	fld	fs0,24(a2)
     df0:	1118                	addi	a4,sp,160
     df2:	0000                	unimp
     df4:	090c                	addi	a1,sp,144
     df6:	0000                	unimp
     df8:	242e                	fld	fs0,200(sp)
     dfa:	0011                	c.addi	zero,4
     dfc:	1f00                	addi	s0,sp,944
     dfe:	0009                	c.addi	zero,2
     e00:	2e00                	fld	fs0,24(a2)
     e02:	1130                	addi	a2,sp,168
     e04:	0000                	unimp
     e06:	0932                	slli	s2,s2,0xc
     e08:	0000                	unimp
     e0a:	3c32                	fld	fs8,296(sp)
     e0c:	0011                	c.addi	zero,4
     e0e:	0100                	addi	s0,sp,128
     e10:	2e56                	fld	ft8,336(sp)
     e12:	1148                	addi	a0,sp,164
     e14:	0000                	unimp
     e16:	0945                	addi	s2,s2,17
     e18:	0000                	unimp
     e1a:	542e                	lw	s0,232(sp)
     e1c:	0011                	c.addi	zero,4
     e1e:	5800                	lw	s0,48(s0)
     e20:	0009                	c.addi	zero,2
     e22:	2e00                	fld	fs0,24(a2)
     e24:	1160                	addi	s0,sp,172
     e26:	0000                	unimp
     e28:	0000098b          	0x98b
     e2c:	6c32                	flw	fs8,12(sp)
     e2e:	0011                	c.addi	zero,4
     e30:	0100                	addi	s0,sp,128
     e32:	0060                	addi	s0,sp,12
     e34:	7930                	flw	fa2,112(a0)
     e36:	0011                	c.addi	zero,4
     e38:	a000                	fsd	fs0,0(s0)
     e3a:	002d                	c.addi	zero,11
     e3c:	1400                	addi	s0,sp,544
     e3e:	0000                	unimp
     e40:	4f00                	lw	s0,24(a4)
     e42:	000e                	0xe
     e44:	2e00                	fld	fs0,24(a2)
     e46:	117e                	slli	sp,sp,0x3f
     e48:	0000                	unimp
     e4a:	099e                	slli	s3,s3,0x7
     e4c:	0000                	unimp
     e4e:	3100                	fld	fs0,32(a0)
     e50:	0000118b          	0x118b
     e54:	2db4                	fld	fa3,88(a1)
     e56:	0000                	unimp
     e58:	0010                	addi	a2,sp,0
     e5a:	0000                	unimp
     e5c:	8c2e                	mv	s8,a1
     e5e:	0011                	c.addi	zero,4
     e60:	b100                	fsd	fs0,32(a0)
     e62:	0009                	c.addi	zero,2
     e64:	0000                	unimp
     e66:	0000                	unimp
     e68:	0000                	unimp
     e6a:	0004fa33          	and	s4,s1,zero
     e6e:	0100                	addi	s0,sp,128
     e70:	03f6                	slli	t2,t2,0x1d
     e72:	0a5c                	addi	a5,sp,276
     e74:	0000                	unimp
     e76:	00119b03          	lh	s6,1(gp)
     e7a:	3400                	fld	fs0,40(s0)
     e7c:	006e                	0x6e
     e7e:	f601                	bnez	a2,d86 <vprintfmt.constprop.1+0x94a>
     e80:	000a5c03          	lhu	s8,0(s4) # a76a <_gp+0x66ca>
     e84:	3400                	fld	fs0,40(s0)
     e86:	0064                	addi	s1,sp,12
     e88:	f601                	bnez	a2,d90 <vprintfmt.constprop.1+0x954>
     e8a:	000a5c03          	lhu	s8,0(s4)
     e8e:	3400                	fld	fs0,40(s0)
     e90:	7072                	flw	ft0,60(sp)
     e92:	0100                	addi	s0,sp,128
     e94:	03f6                	slli	t2,t2,0x1d
     e96:	0000119b          	0x119b
     e9a:	6e35                	lui	t3,0xd
     e9c:	006e                	0x6e
     e9e:	f801                	bnez	s0,dae <vprintfmt.constprop.1+0x972>
     ea0:	000add03          	lhu	s10,0(s5)
     ea4:	3500                	fld	fs0,40(a0)
     ea6:	6464                	flw	fs1,76(s0)
     ea8:	0100                	addi	s0,sp,128
     eaa:	03f9                	addi	t2,t2,30
     eac:	0add                	addi	s5,s5,23
     eae:	0000                	unimp
     eb0:	7235                	lui	tp,0xfffed
     eb2:	0072                	0x72
     eb4:	fa01                	bnez	a2,dc4 <vprintfmt.constprop.1+0x988>
     eb6:	000ad103          	lhu	sp,0(s5)
     eba:	3500                	fld	fs0,40(a0)
     ebc:	3064                	fld	fs1,224(s0)
     ebe:	0100                	addi	s0,sp,128
     ec0:	0a4603fb          	0xa4603fb
     ec4:	0000                	unimp
     ec6:	6435                	lui	s0,0xd
     ec8:	0031                	c.addi	zero,12
     eca:	fb01                	bnez	a4,dda <vprintfmt.constprop.1+0x99e>
     ecc:	000a4603          	lbu	a2,0(s4)
     ed0:	3500                	fld	fs0,40(a0)
     ed2:	306e                	fld	ft0,248(sp)
     ed4:	0100                	addi	s0,sp,128
     ed6:	0a4603fb          	0xa4603fb
     eda:	0000                	unimp
     edc:	6e35                	lui	t3,0xd
     ede:	0031                	c.addi	zero,12
     ee0:	fb01                	bnez	a4,df0 <vprintfmt.constprop.1+0x9b4>
     ee2:	000a4603          	lbu	a2,0(s4)
     ee6:	3500                	fld	fs0,40(a0)
     ee8:	326e                	fld	ft4,248(sp)
     eea:	0100                	addi	s0,sp,128
     eec:	0a4603fb          	0xa4603fb
     ef0:	0000                	unimp
     ef2:	7135                	addi	sp,sp,-160
     ef4:	0030                	addi	a2,sp,8
     ef6:	fc01                	bnez	s0,e0e <vprintfmt.constprop.1+0x9d2>
     ef8:	000a4603          	lbu	a2,0(s4)
     efc:	3500                	fld	fs0,40(a0)
     efe:	3171                	jal	b8a <vprintfmt.constprop.1+0x74e>
     f00:	0100                	addi	s0,sp,128
     f02:	03fc                	addi	a5,sp,460
     f04:	0a46                	slli	s4,s4,0x11
     f06:	0000                	unimp
     f08:	6235                	lui	tp,0xd
     f0a:	0100                	addi	s0,sp,128
     f0c:	03fd                	addi	t2,t2,31
     f0e:	0a46                	slli	s4,s4,0x11
     f10:	0000                	unimp
     f12:	6235                	lui	tp,0xd
     f14:	006d                	c.addi	zero,27
     f16:	fd01                	bnez	a0,e2e <vprintfmt.constprop.1+0x9f2>
     f18:	000a4603          	lbu	a2,0(s4)
     f1c:	3500                	fld	fs0,40(a0)
     f1e:	01007777          	0x1007777
     f22:	04c6                	slli	s1,s1,0x11
     f24:	0add                	addi	s5,s5,23
     f26:	0000                	unimp
     f28:	4636                	lw	a2,76(sp)
     f2a:	3700000f          	0x3700000f
     f2e:	05d2                	slli	a1,a1,0x14
     f30:	0000                	unimp
     f32:	2d01                	jal	1542 <vprintfmt.constprop.1+0x1106>
     f34:	4604                	lw	s1,8(a2)
     f36:	000a                	0xa
     f38:	3500                	fld	fs0,40(a0)
     f3a:	5f5f 0061 2d01      	0x2d0100615f5f
     f40:	4604                	lw	s1,8(a2)
     f42:	000a                	0xa
     f44:	0000                	unimp
     f46:	a036                	fsd	fa3,0(sp)
     f48:	3700000f          	0x3700000f
     f4c:	000000cf          	fnmadd.s	ft1,ft0,ft0,ft0,rne
     f50:	3901                	jal	b60 <vprintfmt.constprop.1+0x724>
     f52:	4604                	lw	s1,8(a2)
     f54:	000a                	0xa
     f56:	3700                	fld	fs0,40(a4)
     f58:	00ca                	slli	ra,ra,0x12
     f5a:	0000                	unimp
     f5c:	3901                	jal	b6c <vprintfmt.constprop.1+0x730>
     f5e:	4604                	lw	s1,8(a2)
     f60:	000a                	0xa
     f62:	3700                	fld	fs0,40(a4)
     f64:	0585                	addi	a1,a1,1
     f66:	0000                	unimp
     f68:	3901                	jal	b78 <vprintfmt.constprop.1+0x73c>
     f6a:	4604                	lw	s1,8(a2)
     f6c:	000a                	0xa
     f6e:	3700                	fld	fs0,40(a4)
     f70:	0580                	addi	s0,sp,704
     f72:	0000                	unimp
     f74:	3901                	jal	b84 <vprintfmt.constprop.1+0x748>
     f76:	4604                	lw	s1,8(a2)
     f78:	000a                	0xa
     f7a:	3700                	fld	fs0,40(a4)
     f7c:	0720                	addi	s0,sp,904
     f7e:	0000                	unimp
     f80:	3901                	jal	b90 <vprintfmt.constprop.1+0x754>
     f82:	4604                	lw	s1,8(a2)
     f84:	000a                	0xa
     f86:	3700                	fld	fs0,40(a4)
     f88:	0000071b          	0x71b
     f8c:	3901                	jal	b9c <vprintfmt.constprop.1+0x760>
     f8e:	4604                	lw	s1,8(a2)
     f90:	000a                	0xa
     f92:	3500                	fld	fs0,40(a0)
     f94:	5f5f 006d 3901      	0x3901006d5f5f
     f9a:	4604                	lw	s1,8(a2)
     f9c:	000a                	0xa
     f9e:	0000                	unimp
     fa0:	be36                	fsd	fa3,312(sp)
     fa2:	3700000f          	0x3700000f
     fa6:	05d2                	slli	a1,a1,0x14
     fa8:	0000                	unimp
     faa:	4501                	li	a0,0
     fac:	4604                	lw	s1,8(a2)
     fae:	000a                	0xa
     fb0:	3500                	fld	fs0,40(a0)
     fb2:	5f5f 0061 4501      	0x450100615f5f
     fb8:	4604                	lw	s1,8(a2)
     fba:	000a                	0xa
     fbc:	0000                	unimp
     fbe:	1836                	slli	a6,a6,0x2d
     fc0:	0010                	addi	a2,sp,0
     fc2:	3700                	fld	fs0,40(a4)
     fc4:	000000cf          	fnmadd.s	ft1,ft0,ft0,ft0,rne
     fc8:	5e01                	li	t3,-32
     fca:	4604                	lw	s1,8(a2)
     fcc:	000a                	0xa
     fce:	3700                	fld	fs0,40(a4)
     fd0:	00ca                	slli	ra,ra,0x12
     fd2:	0000                	unimp
     fd4:	5e01                	li	t3,-32
     fd6:	4604                	lw	s1,8(a2)
     fd8:	000a                	0xa
     fda:	3700                	fld	fs0,40(a4)
     fdc:	0585                	addi	a1,a1,1
     fde:	0000                	unimp
     fe0:	5e01                	li	t3,-32
     fe2:	4604                	lw	s1,8(a2)
     fe4:	000a                	0xa
     fe6:	3700                	fld	fs0,40(a4)
     fe8:	0580                	addi	s0,sp,704
     fea:	0000                	unimp
     fec:	5e01                	li	t3,-32
     fee:	4604                	lw	s1,8(a2)
     ff0:	000a                	0xa
     ff2:	3700                	fld	fs0,40(a4)
     ff4:	0720                	addi	s0,sp,904
     ff6:	0000                	unimp
     ff8:	5e01                	li	t3,-32
     ffa:	4604                	lw	s1,8(a2)
     ffc:	000a                	0xa
     ffe:	3700                	fld	fs0,40(a4)
    1000:	0000071b          	0x71b
    1004:	5e01                	li	t3,-32
    1006:	4604                	lw	s1,8(a2)
    1008:	000a                	0xa
    100a:	3500                	fld	fs0,40(a0)
    100c:	5f5f 006d 5e01      	0x5e01006d5f5f
    1012:	4604                	lw	s1,8(a2)
    1014:	000a                	0xa
    1016:	0000                	unimp
    1018:	7236                	flw	ft4,108(sp)
    101a:	0010                	addi	a2,sp,0
    101c:	3700                	fld	fs0,40(a4)
    101e:	000000cf          	fnmadd.s	ft1,ft0,ft0,ft0,rne
    1022:	6301                	lui	t1,0x0
    1024:	4604                	lw	s1,8(a2)
    1026:	000a                	0xa
    1028:	3700                	fld	fs0,40(a4)
    102a:	00ca                	slli	ra,ra,0x12
    102c:	0000                	unimp
    102e:	6301                	lui	t1,0x0
    1030:	4604                	lw	s1,8(a2)
    1032:	000a                	0xa
    1034:	3700                	fld	fs0,40(a4)
    1036:	0585                	addi	a1,a1,1
    1038:	0000                	unimp
    103a:	6301                	lui	t1,0x0
    103c:	4604                	lw	s1,8(a2)
    103e:	000a                	0xa
    1040:	3700                	fld	fs0,40(a4)
    1042:	0580                	addi	s0,sp,704
    1044:	0000                	unimp
    1046:	6301                	lui	t1,0x0
    1048:	4604                	lw	s1,8(a2)
    104a:	000a                	0xa
    104c:	3700                	fld	fs0,40(a4)
    104e:	0720                	addi	s0,sp,904
    1050:	0000                	unimp
    1052:	6301                	lui	t1,0x0
    1054:	4604                	lw	s1,8(a2)
    1056:	000a                	0xa
    1058:	3700                	fld	fs0,40(a4)
    105a:	0000071b          	0x71b
    105e:	6301                	lui	t1,0x0
    1060:	4604                	lw	s1,8(a2)
    1062:	000a                	0xa
    1064:	3500                	fld	fs0,40(a0)
    1066:	5f5f 006d 6301      	0x6301006d5f5f
    106c:	4604                	lw	s1,8(a2)
    106e:	000a                	0xa
    1070:	0000                	unimp
    1072:	9036                	0x9036
    1074:	0010                	addi	a2,sp,0
    1076:	3700                	fld	fs0,40(a4)
    1078:	05d2                	slli	a1,a1,0x14
    107a:	0000                	unimp
    107c:	8601                	srai	a2,a2,0x0
    107e:	4604                	lw	s1,8(a2)
    1080:	000a                	0xa
    1082:	3500                	fld	fs0,40(a0)
    1084:	5f5f 0061 8601      	0x860100615f5f
    108a:	4604                	lw	s1,8(a2)
    108c:	000a                	0xa
    108e:	0000                	unimp
    1090:	a236                	fsd	fa3,256(sp)
    1092:	0010                	addi	a2,sp,0
    1094:	3500                	fld	fs0,40(a0)
    1096:	5f5f 0078 9401      	0x940100785f5f
    109c:	4604                	lw	s1,8(a2)
    109e:	000a                	0xa
    10a0:	0000                	unimp
    10a2:	3538                	fld	fa4,104(a0)
    10a4:	316d                	jal	d4e <vprintfmt.constprop.1+0x912>
    10a6:	0100                	addi	s0,sp,128
    10a8:	04a4                	addi	s1,sp,584
    10aa:	0a46                	slli	s4,s4,0x11
    10ac:	0000                	unimp
    10ae:	6d35                	lui	s10,0xd
    10b0:	0030                	addi	a2,sp,8
    10b2:	a401                	j	12b2 <vprintfmt.constprop.1+0xe76>
    10b4:	4604                	lw	s1,8(a2)
    10b6:	000a                	0xa
    10b8:	3600                	fld	fs0,40(a2)
    10ba:	00001113          	slli	sp,zero,0x0
    10be:	0000cf37          	lui	t5,0xc
    10c2:	0100                	addi	s0,sp,128
    10c4:	0a4604af          	0xa4604af
    10c8:	0000                	unimp
    10ca:	0000ca37          	lui	s4,0xc
    10ce:	0100                	addi	s0,sp,128
    10d0:	0a4604af          	0xa4604af
    10d4:	0000                	unimp
    10d6:	00058537          	lui	a0,0x58
    10da:	0100                	addi	s0,sp,128
    10dc:	0a4604af          	0xa4604af
    10e0:	0000                	unimp
    10e2:	00058037          	lui	zero,0x58
    10e6:	0100                	addi	s0,sp,128
    10e8:	0a4604af          	0xa4604af
    10ec:	0000                	unimp
    10ee:	00072037          	lui	zero,0x72
    10f2:	0100                	addi	s0,sp,128
    10f4:	0a4604af          	0xa4604af
    10f8:	0000                	unimp
    10fa:	00071b37          	lui	s6,0x71
    10fe:	0100                	addi	s0,sp,128
    1100:	0a4604af          	0xa4604af
    1104:	0000                	unimp
    1106:	5f35                	li	t5,-19
    1108:	6d5f 0100 04af      	0x4af01006d5f
    110e:	0a46                	slli	s4,s4,0x11
    1110:	0000                	unimp
    1112:	3600                	fld	fs0,40(a2)
    1114:	1179                	addi	sp,sp,-2
    1116:	0000                	unimp
    1118:	0004c137          	lui	sp,0x4c
    111c:	0100                	addi	s0,sp,128
    111e:	04b0                	addi	a2,sp,584
    1120:	0a46                	slli	s4,s4,0x11
    1122:	0000                	unimp
    1124:	0004c637          	lui	a2,0x4c
    1128:	0100                	addi	s0,sp,128
    112a:	04b0                	addi	a2,sp,584
    112c:	0a46                	slli	s4,s4,0x11
    112e:	0000                	unimp
    1130:	0004cb37          	lui	s6,0x4c
    1134:	0100                	addi	s0,sp,128
    1136:	04b0                	addi	a2,sp,584
    1138:	0a46                	slli	s4,s4,0x11
    113a:	0000                	unimp
    113c:	0004d037          	lui	zero,0x4d
    1140:	0100                	addi	s0,sp,128
    1142:	04b0                	addi	a2,sp,584
    1144:	0a46                	slli	s4,s4,0x11
    1146:	0000                	unimp
    1148:	00030e37          	lui	t3,0x30
    114c:	0100                	addi	s0,sp,128
    114e:	04b0                	addi	a2,sp,584
    1150:	0a46                	slli	s4,s4,0x11
    1152:	0000                	unimp
    1154:	0003d137          	lui	sp,0x3d
    1158:	0100                	addi	s0,sp,128
    115a:	04b0                	addi	a2,sp,584
    115c:	0a46                	slli	s4,s4,0x11
    115e:	0000                	unimp
    1160:	00030337          	lui	t1,0x30
    1164:	0100                	addi	s0,sp,128
    1166:	04b0                	addi	a2,sp,584
    1168:	0a46                	slli	s4,s4,0x11
    116a:	0000                	unimp
    116c:	0003cc37          	lui	s8,0x3c
    1170:	0100                	addi	s0,sp,128
    1172:	04b0                	addi	a2,sp,584
    1174:	0a46                	slli	s4,s4,0x11
    1176:	0000                	unimp
    1178:	3600                	fld	fs0,40(a2)
    117a:	0000118b          	0x118b
    117e:	5f35                	li	t5,-19
    1180:	785f 0100 04b5      	0x4b50100785f
    1186:	0a46                	slli	s4,s4,0x11
    1188:	0000                	unimp
    118a:	3800                	fld	fs0,48(s0)
    118c:	5f35                	li	t5,-19
    118e:	785f 0100 04bd      	0x4bd0100785f
    1194:	0a46                	slli	s4,s4,0x11
    1196:	0000                	unimp
    1198:	0000                	unimp
    119a:	0f00                	addi	s0,sp,912
    119c:	5c04                	lw	s1,56(s0)
    119e:	000a                	0xa
    11a0:	0000                	unimp
    11a2:	0000111b          	0x111b
    11a6:	0004                	addi	s1,sp,0
    11a8:	02aa                	slli	t0,t0,0xa
    11aa:	0000                	unimp
    11ac:	0104                	addi	s1,sp,128
    11ae:	0000064f          	fnmadd.s	fa2,ft0,ft0,ft0,rne
    11b2:	1c0c                	addi	a1,sp,560
    11b4:	0000                	unimp
    11b6:	0700                	addi	s0,sp,896
    11b8:	0005                	c.addi	zero,1
    11ba:	d800                	sw	s0,48(s0)
    11bc:	002d                	c.addi	zero,11
    11be:	3400                	fld	fs0,40(s0)
    11c0:	0004                	addi	s1,sp,0
    11c2:	a700                	fsd	fs0,8(a4)
    11c4:	0004                	addi	s1,sp,0
    11c6:	0200                	addi	s0,sp,256
    11c8:	0708                	addi	a0,sp,896
    11ca:	026a                	slli	tp,tp,0x1a
    11cc:	0000                	unimp
    11ce:	0402                	slli	s0,s0,0x0
    11d0:	00027407          	0x27407
    11d4:	0300                	addi	s0,sp,384
    11d6:	0504                	addi	s1,sp,640
    11d8:	6e69                	lui	t3,0x1a
    11da:	0074                	addi	a3,sp,12
    11dc:	0802                	slli	a6,a6,0x0
    11de:	9d05                	0x9d05
    11e0:	0001                	nop
    11e2:	0200                	addi	s0,sp,256
    11e4:	0410                	addi	a2,sp,512
    11e6:	00ec                	addi	a1,sp,76
    11e8:	0000                	unimp
    11ea:	0102                	slli	sp,sp,0x0
    11ec:	a906                	fsd	ft1,144(sp)
    11ee:	0005                	c.addi	zero,1
    11f0:	0200                	addi	s0,sp,256
    11f2:	0801                	addi	a6,a6,0
    11f4:	000005a7          	0x5a7
    11f8:	0202                	slli	tp,tp,0x0
    11fa:	0005                	c.addi	zero,1
    11fc:	0000                	unimp
    11fe:	0200                	addi	s0,sp,256
    1200:	0702                	slli	a4,a4,0x0
    1202:	028a                	slli	t0,t0,0x2
    1204:	0000                	unimp
    1206:	0402                	slli	s0,s0,0x0
    1208:	a205                	j	1328 <vprintfmt.constprop.1+0xeec>
    120a:	0001                	nop
    120c:	0200                	addi	s0,sp,256
    120e:	0704                	addi	s1,sp,896
    1210:	0000026f          	jal	tp,1210 <vprintfmt.constprop.1+0xdd4>
    1214:	c504                	sw	s1,8(a0)
    1216:	02000003          	lb	zero,32(zero) # 4d020 <__C_STACK_TOP__+0x3d020>
    121a:	6410                	flw	fa2,8(s0)
    121c:	0000                	unimp
    121e:	0400                	addi	s0,sp,512
    1220:	000004e3          	beqz	zero,1a28 <main+0x294>
    1224:	1302                	slli	t1,t1,0x20
    1226:	0025                	c.addi	zero,9
    1228:	0000                	unimp
    122a:	2304                	fld	fs1,0(a4)
    122c:	0006                	0x6
    122e:	0200                	addi	s0,sp,256
    1230:	641f 0000 0400      	0x4000000641f
    1236:	03f5                	addi	t2,t2,29
    1238:	0000                	unimp
    123a:	00330703          	lb	a4,3(t1) # 30003 <__C_STACK_TOP__+0x20003>
    123e:	0000                	unimp
    1240:	f605                	bnez	a2,1168 <vprintfmt.constprop.1+0xd2c>
    1242:	0002                	0x2
    1244:	0400                	addi	s0,sp,512
    1246:	0165                	addi	sp,sp,25
    1248:	002c                	addi	a1,sp,8
    124a:	0000                	unimp
    124c:	0406                	slli	s0,s0,0x1
    124e:	4a05                	li	s4,1
    1250:	00c9                	addi	ra,ra,18
    1252:	0000                	unimp
    1254:	0002e107          	0x2e107
    1258:	0500                	addi	s0,sp,640
    125a:	9e4c                	0x9e4c
    125c:	0000                	unimp
    125e:	0700                	addi	s0,sp,896
    1260:	023c                	addi	a5,sp,264
    1262:	0000                	unimp
    1264:	4d05                	li	s10,1
    1266:	00c9                	addi	ra,ra,18
    1268:	0000                	unimp
    126a:	0800                	addi	s0,sp,16
    126c:	0000004f          	fnmadd.s	ft0,ft0,ft0,ft0,rne
    1270:	00d9                	addi	ra,ra,22
    1272:	0000                	unimp
    1274:	2c09                	jal	1486 <vprintfmt.constprop.1+0x104a>
    1276:	0000                	unimp
    1278:	0300                	addi	s0,sp,384
    127a:	0a00                	addi	s0,sp,272
    127c:	0508                	addi	a0,sp,640
    127e:	0000fa47          	fmsub.s	fs4,ft1,ft0,ft0
    1282:	0b00                	addi	s0,sp,400
    1284:	033c                	addi	a5,sp,392
    1286:	0000                	unimp
    1288:	4905                	li	s2,1
    128a:	00000033          	add	zero,zero,zero
    128e:	0b00                	addi	s0,sp,400
    1290:	04d5                	addi	s1,s1,21
    1292:	0000                	unimp
    1294:	4e05                	li	t3,1
    1296:	00aa                	slli	ra,ra,0xa
    1298:	0000                	unimp
    129a:	0004                	addi	s1,sp,0
    129c:	ea04                	fsw	fs1,16(a2)
    129e:	05000003          	lb	zero,80(zero) # 50 <buflen.1744+0x10>
    12a2:	0000d94f          	fnmadd.s	fs2,ft1,ft0,ft0,unknown
    12a6:	0400                	addi	s0,sp,512
    12a8:	0444                	addi	s1,sp,516
    12aa:	0000                	unimp
    12ac:	5305                	li	t1,-31
    12ae:	00000093          	li	ra,0
    12b2:	040c                	addi	a1,sp,512
    12b4:	ba04                	fsd	fs1,48(a2)
    12b6:	0005                	c.addi	zero,1
    12b8:	0600                	addi	s0,sp,768
    12ba:	6b16                	flw	fs6,68(sp)
    12bc:	0000                	unimp
    12be:	0d00                	addi	s0,sp,656
    12c0:	0375                	addi	t1,t1,29
    12c2:	0000                	unimp
    12c4:	0618                	addi	a4,sp,768
    12c6:	702d                	0x702d
    12c8:	0001                	nop
    12ca:	0b00                	addi	s0,sp,400
    12cc:	000007a3          	sb	zero,15(zero) # f <buf.1743+0xf>
    12d0:	2f06                	fld	ft10,64(sp)
    12d2:	0170                	addi	a2,sp,140
    12d4:	0000                	unimp
    12d6:	0e00                	addi	s0,sp,784
    12d8:	6b5f 0600 3330      	0x333006006b5f
    12de:	0000                	unimp
    12e0:	0400                	addi	s0,sp,512
    12e2:	0004b20b          	0x4b20b
    12e6:	0600                	addi	s0,sp,768
    12e8:	3330                	fld	fa2,96(a4)
    12ea:	0000                	unimp
    12ec:	0800                	addi	s0,sp,16
    12ee:	0001f90b          	0x1f90b
    12f2:	0600                	addi	s0,sp,768
    12f4:	3330                	fld	fa2,96(a4)
    12f6:	0000                	unimp
    12f8:	0c00                	addi	s0,sp,528
    12fa:	00017f0b          	0x17f0b
    12fe:	0600                	addi	s0,sp,768
    1300:	3330                	fld	fa2,96(a4)
    1302:	0000                	unimp
    1304:	1000                	addi	s0,sp,32
    1306:	5f0e                	lw	t5,224(sp)
    1308:	0078                	addi	a4,sp,12
    130a:	3106                	fld	ft2,96(sp)
    130c:	0176                	slli	sp,sp,0x1d
    130e:	0000                	unimp
    1310:	0014                	addi	a3,sp,0
    1312:	011d040f          	0x11d040f
    1316:	0000                	unimp
    1318:	1208                	addi	a0,sp,288
    131a:	0001                	nop
    131c:	8600                	0x8600
    131e:	0001                	nop
    1320:	0900                	addi	s0,sp,144
    1322:	002c                	addi	a1,sp,8
    1324:	0000                	unimp
    1326:	0000                	unimp
    1328:	1f0d                	addi	t5,t5,-29
    132a:	0002                	0x2
    132c:	2400                	fld	fs0,8(s0)
    132e:	3506                	fld	fa0,96(sp)
    1330:	01ff                	0x1ff
    1332:	0000                	unimp
    1334:	0001190b          	0x1190b
    1338:	0600                	addi	s0,sp,768
    133a:	00003337          	lui	t1,0x3
    133e:	0000                	unimp
    1340:	00073f0b          	0x73f0b
    1344:	0600                	addi	s0,sp,768
    1346:	3338                	fld	fa4,96(a4)
    1348:	0000                	unimp
    134a:	0400                	addi	s0,sp,512
    134c:	0001350b          	0x1350b
    1350:	0600                	addi	s0,sp,768
    1352:	3339                	jal	1060 <vprintfmt.constprop.1+0xc24>
    1354:	0000                	unimp
    1356:	0800                	addi	s0,sp,16
    1358:	0007940b          	0x7940b
    135c:	0600                	addi	s0,sp,768
    135e:	333a                	fld	ft6,424(sp)
    1360:	0000                	unimp
    1362:	0c00                	addi	s0,sp,528
    1364:	00039f0b          	0x39f0b
    1368:	0600                	addi	s0,sp,768
    136a:	0000333b          	0x333b
    136e:	1000                	addi	s0,sp,32
    1370:	0003320b          	0x3320b
    1374:	0600                	addi	s0,sp,768
    1376:	333c                	fld	fa5,96(a4)
    1378:	0000                	unimp
    137a:	1400                	addi	s0,sp,544
    137c:	0005fa0b          	0x5fa0b
    1380:	0600                	addi	s0,sp,768
    1382:	333d                	jal	10b0 <vprintfmt.constprop.1+0xc74>
    1384:	0000                	unimp
    1386:	1800                	addi	s0,sp,48
    1388:	00077b0b          	0x77b0b
    138c:	0600                	addi	s0,sp,768
    138e:	333e                	fld	ft6,488(sp)
    1390:	0000                	unimp
    1392:	1c00                	addi	s0,sp,560
    1394:	0007250b          	0x7250b
    1398:	0600                	addi	s0,sp,768
    139a:	0000333f 10002000 	0x100020000000333f
    13a2:	0152                	slli	sp,sp,0x14
    13a4:	0000                	unimp
    13a6:	0108                	addi	a0,sp,128
    13a8:	4806                	lw	a6,64(sp)
    13aa:	0000023f 0001ec0b 	0x1ec0b0000023f
    13b2:	0600                	addi	s0,sp,768
    13b4:	3f49                	jal	1346 <vprintfmt.constprop.1+0xf0a>
    13b6:	0002                	0x2
    13b8:	0000                	unimp
    13ba:	0004200b          	0x4200b
    13be:	0600                	addi	s0,sp,768
    13c0:	3f4a                	fld	ft10,176(sp)
    13c2:	0002                	0x2
    13c4:	8000                	0x8000
    13c6:	9e11                	0x9e11
    13c8:	0005                	c.addi	zero,1
    13ca:	0600                	addi	s0,sp,768
    13cc:	124c                	addi	a1,sp,292
    13ce:	0001                	nop
    13d0:	0000                	unimp
    13d2:	1101                	addi	sp,sp,-32
    13d4:	00000177          	0x177
    13d8:	4f06                	lw	t5,64(sp)
    13da:	0112                	slli	sp,sp,0x4
    13dc:	0000                	unimp
    13de:	0104                	addi	s1,sp,128
    13e0:	0800                	addi	s0,sp,16
    13e2:	0110                	addi	a2,sp,128
    13e4:	0000                	unimp
    13e6:	0000024f          	fnmadd.s	ft4,ft0,ft0,ft0,rne
    13ea:	2c09                	jal	15fc <vprintfmt.constprop.1+0x11c0>
    13ec:	0000                	unimp
    13ee:	1f00                	addi	s0,sp,944
    13f0:	1000                	addi	s0,sp,32
    13f2:	03a8                	addi	a0,sp,456
    13f4:	0000                	unimp
    13f6:	0190                	addi	a2,sp,192
    13f8:	5b06                	lw	s6,96(sp)
    13fa:	028d                	addi	t0,t0,3
    13fc:	0000                	unimp
    13fe:	0007a30b          	0x7a30b
    1402:	0600                	addi	s0,sp,768
    1404:	8d5c                	0x8d5c
    1406:	0002                	0x2
    1408:	0000                	unimp
    140a:	0004930b          	0x4930b
    140e:	0600                	addi	s0,sp,768
    1410:	335d                	jal	11b6 <vprintfmt.constprop.1+0xd7a>
    1412:	0000                	unimp
    1414:	0400                	addi	s0,sp,512
    1416:	0001f40b          	0x1f40b
    141a:	0600                	addi	s0,sp,768
    141c:	935f 0002 0800      	0x8000002935f
    1422:	0001520b          	0x1520b
    1426:	0600                	addi	s0,sp,768
    1428:	ff60                	fsw	fs0,124(a4)
    142a:	0001                	nop
    142c:	8800                	0x8800
    142e:	0f00                	addi	s0,sp,912
    1430:	4f04                	lw	s1,24(a4)
    1432:	0002                	0x2
    1434:	0800                	addi	s0,sp,16
    1436:	000002a3          	sb	zero,5(zero) # 5 <buf.1743+0x5>
    143a:	000002a3          	sb	zero,5(zero) # 5 <buf.1743+0x5>
    143e:	2c09                	jal	1650 <putchar>
    1440:	0000                	unimp
    1442:	1f00                	addi	s0,sp,944
    1444:	0f00                	addi	s0,sp,912
    1446:	a904                	fsd	fs1,16(a0)
    1448:	0002                	0x2
    144a:	1200                	addi	s0,sp,288
    144c:	8d0d                	sub	a0,a0,a1
    144e:	08000007          	0x8000007
    1452:	7306                	flw	ft6,96(sp)
    1454:	000002cf          	fnmadd.s	ft5,ft0,ft0,ft0,rne
    1458:	00012f0b          	0x12f0b
    145c:	0600                	addi	s0,sp,768
    145e:	cf74                	sw	a3,92(a4)
    1460:	0002                	0x2
    1462:	0000                	unimp
    1464:	0004f40b          	0x4f40b
    1468:	0600                	addi	s0,sp,768
    146a:	3375                	jal	1216 <vprintfmt.constprop.1+0xdda>
    146c:	0000                	unimp
    146e:	0400                	addi	s0,sp,512
    1470:	0f00                	addi	s0,sp,912
    1472:	4f04                	lw	s1,24(a4)
    1474:	0000                	unimp
    1476:	0d00                	addi	s0,sp,656
    1478:	0000046f          	jal	s0,1478 <vprintfmt.constprop.1+0x103c>
    147c:	0668                	addi	a0,sp,780
    147e:	0003ffb3          	and	t6,t2,zero
    1482:	0e00                	addi	s0,sp,784
    1484:	705f 0600 cfb4      	0xcfb40600705f
    148a:	0002                	0x2
    148c:	0000                	unimp
    148e:	5f0e                	lw	t5,224(sp)
    1490:	0072                	0x72
    1492:	b506                	fsd	ft1,168(sp)
    1494:	00000033          	add	zero,zero,zero
    1498:	0e04                	addi	s1,sp,784
    149a:	775f 0600 33b6      	0x33b60600775f
    14a0:	0000                	unimp
    14a2:	0800                	addi	s0,sp,16
    14a4:	0001700b          	0x1700b
    14a8:	0600                	addi	s0,sp,768
    14aa:	000056b7          	lui	a3,0x5
    14ae:	0c00                	addi	s0,sp,528
    14b0:	00024b0b          	0x24b0b
    14b4:	0600                	addi	s0,sp,768
    14b6:	56b8                	lw	a4,104(a3)
    14b8:	0000                	unimp
    14ba:	0e00                	addi	s0,sp,784
    14bc:	5f0e                	lw	t5,224(sp)
    14be:	6662                	flw	fa2,24(sp)
    14c0:	0600                	addi	s0,sp,768
    14c2:	aab9                	j	1620 <sc_printf.constprop.0+0x14>
    14c4:	0002                	0x2
    14c6:	1000                	addi	s0,sp,32
    14c8:	0000d40b          	0xd40b
    14cc:	0600                	addi	s0,sp,768
    14ce:	33ba                	fld	ft7,424(sp)
    14d0:	0000                	unimp
    14d2:	1800                	addi	s0,sp,48
    14d4:	0001600b          	0x1600b
    14d8:	0600                	addi	s0,sp,768
    14da:	10c1                	addi	ra,ra,-16
    14dc:	0001                	nop
    14de:	1c00                	addi	s0,sp,560
    14e0:	0004070b          	0x4070b
    14e4:	0600                	addi	s0,sp,768
    14e6:	00056cc3          	fmadd.s	fs9,fa0,ft0,ft0,unknown
    14ea:	2000                	fld	fs0,0(s0)
    14ec:	00032b0b          	0x32b0b
    14f0:	0600                	addi	s0,sp,768
    14f2:	9bc5                	andi	a5,a5,-15
    14f4:	0005                	c.addi	zero,1
    14f6:	2400                	fld	fs0,8(s0)
    14f8:	0004dd0b          	0x4dd0b
    14fc:	0600                	addi	s0,sp,768
    14fe:	bfc8                	fsd	fa0,184(a5)
    1500:	0005                	c.addi	zero,1
    1502:	2800                	fld	fs0,16(s0)
    1504:	0001220b          	0x1220b
    1508:	0600                	addi	s0,sp,768
    150a:	d9c9                	beqz	a1,149c <vprintfmt.constprop.1+0x1060>
    150c:	0005                	c.addi	zero,1
    150e:	2c00                	fld	fs0,24(s0)
    1510:	5f0e                	lw	t5,224(sp)
    1512:	6275                	lui	tp,0x1d
    1514:	0600                	addi	s0,sp,768
    1516:	aacc                	fsd	fa1,144(a3)
    1518:	0002                	0x2
    151a:	3000                	fld	fs0,32(s0)
    151c:	5f0e                	lw	t5,224(sp)
    151e:	7075                	0x7075
    1520:	0600                	addi	s0,sp,768
    1522:	cfcd                	beqz	a5,15dc <vprintfmt.constprop.1+0x11a0>
    1524:	0002                	0x2
    1526:	3800                	fld	fs0,48(s0)
    1528:	5f0e                	lw	t5,224(sp)
    152a:	7275                	lui	tp,0xffffd
    152c:	0600                	addi	s0,sp,768
    152e:	33ce                	fld	ft7,240(sp)
    1530:	0000                	unimp
    1532:	3c00                	fld	fs0,56(s0)
    1534:	0001290b          	0x1290b
    1538:	0600                	addi	s0,sp,768
    153a:	dfd1                	beqz	a5,14d6 <vprintfmt.constprop.1+0x109a>
    153c:	0005                	c.addi	zero,1
    153e:	4000                	lw	s0,0(s0)
    1540:	00070d0b          	0x70d0b
    1544:	0600                	addi	s0,sp,768
    1546:	efd2                	fsw	fs4,220(sp)
    1548:	0005                	c.addi	zero,1
    154a:	4300                	lw	s0,0(a4)
    154c:	5f0e                	lw	t5,224(sp)
    154e:	626c                	flw	fa1,68(a2)
    1550:	0600                	addi	s0,sp,768
    1552:	aad5                	j	1746 <putchar+0xf6>
    1554:	0002                	0x2
    1556:	4400                	lw	s0,8(s0)
    1558:	0004eb0b          	0x4eb0b
    155c:	0600                	addi	s0,sp,768
    155e:	33d8                	fld	fa4,160(a5)
    1560:	0000                	unimp
    1562:	4c00                	lw	s0,24(s0)
    1564:	00036d0b          	0x36d0b
    1568:	0600                	addi	s0,sp,768
    156a:	72d9                	lui	t0,0xffff6
    156c:	0000                	unimp
    156e:	5000                	lw	s0,32(s0)
    1570:	0000a40b          	0xa40b
    1574:	0600                	addi	s0,sp,768
    1576:	1ddc                	addi	a5,sp,756
    1578:	0004                	addi	s1,sp,0
    157a:	5400                	lw	s0,40(s0)
    157c:	0002fd0b          	0x2fd0b
    1580:	0600                	addi	s0,sp,768
    1582:	05e0                	addi	s0,sp,716
    1584:	0001                	nop
    1586:	5800                	lw	s0,48(s0)
    1588:	0002330b          	0x2330b
    158c:	0600                	addi	s0,sp,768
    158e:	fae2                	fsw	fs8,116(sp)
    1590:	0000                	unimp
    1592:	5c00                	lw	s0,56(s0)
    1594:	00044d0b          	0x44d0b
    1598:	0600                	addi	s0,sp,768
    159a:	000033e3          	0x33e3
    159e:	6400                	flw	fs0,8(s0)
    15a0:	1300                	addi	s0,sp,416
    15a2:	0088                	addi	a0,sp,64
    15a4:	0000                	unimp
    15a6:	041d                	addi	s0,s0,7
    15a8:	0000                	unimp
    15aa:	1d14                	addi	a3,sp,688
    15ac:	0004                	addi	s1,sp,0
    15ae:	1400                	addi	s0,sp,544
    15b0:	0110                	addi	a2,sp,128
    15b2:	0000                	unimp
    15b4:	5a14                	lw	a3,48(a2)
    15b6:	0005                	c.addi	zero,1
    15b8:	1400                	addi	s0,sp,544
    15ba:	00000033          	add	zero,zero,zero
    15be:	0f00                	addi	s0,sp,912
    15c0:	2804                	fld	fs1,16(s0)
    15c2:	0004                	addi	s1,sp,0
    15c4:	1500                	addi	s0,sp,672
    15c6:	041d                	addi	s0,s0,7
    15c8:	0000                	unimp
    15ca:	ba16                	fsd	ft5,304(sp)
    15cc:	0004                	addi	s1,sp,0
    15ce:	2800                	fld	fs0,16(s0)
    15d0:	0604                	addi	s1,sp,768
    15d2:	0238                	addi	a4,sp,264
    15d4:	055a                	slli	a0,a0,0x16
    15d6:	0000                	unimp
    15d8:	00043d17          	auipc	s10,0x43
    15dc:	0600                	addi	s0,sp,768
    15de:	023a                	slli	tp,tp,0xe
    15e0:	00000033          	add	zero,zero,zero
    15e4:	1700                	addi	s0,sp,928
    15e6:	060a                	slli	a2,a2,0x2
    15e8:	0000                	unimp
    15ea:	3f06                	fld	ft10,96(sp)
    15ec:	4602                	lw	a2,0(sp)
    15ee:	0006                	0x6
    15f0:	0400                	addi	s0,sp,512
    15f2:	0005f217          	auipc	tp,0x5f
    15f6:	0600                	addi	s0,sp,768
    15f8:	0646023f 17080000 	0x170800000646023f
    1600:	01ff                	0x1ff
    1602:	0000                	unimp
    1604:	3f06                	fld	ft10,96(sp)
    1606:	4602                	lw	a2,0(sp)
    1608:	0006                	0x6
    160a:	0c00                	addi	s0,sp,528
    160c:	00048e17          	auipc	t3,0x48
    1610:	0600                	addi	s0,sp,768
    1612:	0241                	addi	tp,tp,16
    1614:	00000033          	add	zero,zero,zero
    1618:	1710                	addi	a2,sp,928
    161a:	00000073          	ecall
    161e:	4206                	lw	tp,64(sp)
    1620:	2802                	fld	fa6,0(sp)
    1622:	0008                	addi	a0,sp,0
    1624:	1400                	addi	s0,sp,544
    1626:	00061117          	auipc	sp,0x61
    162a:	0600                	addi	s0,sp,768
    162c:	0244                	addi	s1,sp,260
    162e:	00000033          	add	zero,zero,zero
    1632:	1730                	addi	a2,sp,936
    1634:	0498                	addi	a4,sp,576
    1636:	0000                	unimp
    1638:	4506                	lw	a0,64(sp)
    163a:	9002                	ebreak
    163c:	0005                	c.addi	zero,1
    163e:	3400                	fld	fs0,40(s0)
    1640:	0003ba17          	auipc	s4,0x3b
    1644:	0600                	addi	s0,sp,768
    1646:	00330247          	fmsub.s	ft4,ft6,ft3,ft0,rne
    164a:	0000                	unimp
    164c:	1738                	addi	a4,sp,936
    164e:	04a8                	addi	a0,sp,584
    1650:	0000                	unimp
    1652:	4906                	lw	s2,64(sp)
    1654:	4302                	lw	t1,0(sp)
    1656:	0008                	addi	a0,sp,0
    1658:	3c00                	fld	fs0,56(s0)
    165a:	0002d917          	auipc	s2,0x2d
    165e:	0600                	addi	s0,sp,768
    1660:	024c                	addi	a1,sp,260
    1662:	0170                	addi	a2,sp,140
    1664:	0000                	unimp
    1666:	1740                	addi	s0,sp,932
    1668:	0000018b          	0x18b
    166c:	4d06                	lw	s10,64(sp)
    166e:	3302                	fld	ft6,32(sp)
    1670:	0000                	unimp
    1672:	4400                	lw	s0,8(s0)
    1674:	00077617          	auipc	a2,0x77
    1678:	0600                	addi	s0,sp,768
    167a:	024e                	slli	tp,tp,0x13
    167c:	0170                	addi	a2,sp,140
    167e:	0000                	unimp
    1680:	1748                	addi	a0,sp,932
    1682:	03d6                	slli	t2,t2,0x15
    1684:	0000                	unimp
    1686:	4f06                	lw	t5,64(sp)
    1688:	4902                	lw	s2,0(sp)
    168a:	0008                	addi	a0,sp,0
    168c:	4c00                	lw	s0,24(s0)
    168e:	00024317          	auipc	t1,0x24
    1692:	0600                	addi	s0,sp,768
    1694:	0252                	slli	tp,tp,0x14
    1696:	00000033          	add	zero,zero,zero
    169a:	1750                	addi	a2,sp,932
    169c:	01b8                	addi	a4,sp,200
    169e:	0000                	unimp
    16a0:	5306                	lw	t1,96(sp)
    16a2:	5a02                	lw	s4,32(sp)
    16a4:	0005                	c.addi	zero,1
    16a6:	5400                	lw	s0,40(s0)
    16a8:	00043617          	auipc	a2,0x43
    16ac:	0600                	addi	s0,sp,768
    16ae:	0276                	slli	tp,tp,0x1d
    16b0:	0806                	slli	a6,a6,0x1
    16b2:	0000                	unimp
    16b4:	1858                	addi	a4,sp,52
    16b6:	03a8                	addi	a0,sp,456
    16b8:	0000                	unimp
    16ba:	7a06                	flw	fs4,96(sp)
    16bc:	8d02                	jr	s10
    16be:	0002                	0x2
    16c0:	4800                	lw	s0,16(s0)
    16c2:	1801                	addi	a6,a6,-32
    16c4:	000002b7          	lui	t0,0x0
    16c8:	7b06                	flw	fs6,96(sp)
    16ca:	4f02                	lw	t5,0(sp)
    16cc:	0002                	0x2
    16ce:	4c00                	lw	s0,24(s0)
    16d0:	1801                	addi	a6,a6,-32
    16d2:	0636                	slli	a2,a2,0xd
    16d4:	0000                	unimp
    16d6:	7f06                	flw	ft10,96(sp)
    16d8:	5a02                	lw	s4,32(sp)
    16da:	0008                	addi	a0,sp,0
    16dc:	dc00                	sw	s0,56(s0)
    16de:	1802                	slli	a6,a6,0x20
    16e0:	0168                	addi	a0,sp,140
    16e2:	0000                	unimp
    16e4:	8406                	mv	s0,ra
    16e6:	0b02                	slli	s6,s6,0x0
    16e8:	0006                	0x6
    16ea:	e000                	fsw	fs0,0(s0)
    16ec:	1802                	slli	a6,a6,0x20
    16ee:	014d                	addi	sp,sp,19
    16f0:	0000                	unimp
    16f2:	8506                	mv	a0,ra
    16f4:	6602                	flw	fa2,0(sp)
    16f6:	0008                	addi	a0,sp,0
    16f8:	ec00                	fsw	fs0,24(s0)
    16fa:	0002                	0x2
    16fc:	0560040f          	0x560040f
    1700:	0000                	unimp
    1702:	0102                	slli	sp,sp,0x0
    1704:	b008                	fsd	fa0,32(s0)
    1706:	0005                	c.addi	zero,1
    1708:	1500                	addi	s0,sp,672
    170a:	0560                	addi	s0,sp,652
    170c:	0000                	unimp
    170e:	03ff040f          	0x3ff040f
    1712:	0000                	unimp
    1714:	00008813          	mv	a6,ra
    1718:	9000                	0x9000
    171a:	0005                	c.addi	zero,1
    171c:	1400                	addi	s0,sp,544
    171e:	041d                	addi	s0,s0,7
    1720:	0000                	unimp
    1722:	1014                	addi	a3,sp,32
    1724:	0001                	nop
    1726:	1400                	addi	s0,sp,544
    1728:	0590                	addi	a2,sp,704
    172a:	0000                	unimp
    172c:	3314                	fld	fa3,32(a4)
    172e:	0000                	unimp
    1730:	0000                	unimp
    1732:	0567040f          	0x567040f
    1736:	0000                	unimp
    1738:	9015                	srli	s0,s0,0x25
    173a:	0005                	c.addi	zero,1
    173c:	0f00                	addi	s0,sp,912
    173e:	7204                	flw	fs1,32(a2)
    1740:	0005                	c.addi	zero,1
    1742:	1300                	addi	s0,sp,416
    1744:	007d                	c.addi	zero,31
    1746:	0000                	unimp
    1748:	000005bf 00041d14 	0x41d14000005bf
    1750:	1400                	addi	s0,sp,544
    1752:	0110                	addi	a2,sp,128
    1754:	0000                	unimp
    1756:	7d14                	flw	fa3,56(a0)
    1758:	0000                	unimp
    175a:	1400                	addi	s0,sp,544
    175c:	00000033          	add	zero,zero,zero
    1760:	0f00                	addi	s0,sp,912
    1762:	a104                	fsd	fs1,0(a0)
    1764:	0005                	c.addi	zero,1
    1766:	1300                	addi	s0,sp,416
    1768:	00000033          	add	zero,zero,zero
    176c:	05d9                	addi	a1,a1,22
    176e:	0000                	unimp
    1770:	1d14                	addi	a3,sp,688
    1772:	0004                	addi	s1,sp,0
    1774:	1400                	addi	s0,sp,544
    1776:	0110                	addi	a2,sp,128
    1778:	0000                	unimp
    177a:	0f00                	addi	s0,sp,912
    177c:	c504                	sw	s1,8(a0)
    177e:	0005                	c.addi	zero,1
    1780:	0800                	addi	s0,sp,16
    1782:	0000004f          	fnmadd.s	ft0,ft0,ft0,ft0,rne
    1786:	000005ef          	jal	a1,1786 <putchar+0x136>
    178a:	2c09                	jal	199c <main+0x208>
    178c:	0000                	unimp
    178e:	0200                	addi	s0,sp,256
    1790:	0800                	addi	s0,sp,16
    1792:	0000004f          	fnmadd.s	ft0,ft0,ft0,ft0,rne
    1796:	05ff                	0x5ff
    1798:	0000                	unimp
    179a:	2c09                	jal	19ac <main+0x218>
    179c:	0000                	unimp
    179e:	0000                	unimp
    17a0:	0500                	addi	s0,sp,640
    17a2:	0184                	addi	s1,sp,192
    17a4:	0000                	unimp
    17a6:	1d06                	slli	s10,s10,0x21
    17a8:	d501                	beqz	a0,16b0 <putchar+0x60>
    17aa:	0002                	0x2
    17ac:	1900                	addi	s0,sp,176
    17ae:	0604                	addi	s1,sp,768
    17b0:	0000                	unimp
    17b2:	060c                	addi	a1,sp,768
    17b4:	0121                	addi	sp,sp,8
    17b6:	0640                	addi	s0,sp,772
    17b8:	0000                	unimp
    17ba:	0007a317          	auipc	t1,0x7a
    17be:	0600                	addi	s0,sp,768
    17c0:	06400123          	sb	tp,98(zero) # 62 <buflen.1744+0x22>
    17c4:	0000                	unimp
    17c6:	1700                	addi	s0,sp,928
    17c8:	00000263          	beqz	zero,17cc <main+0x38>
    17cc:	2406                	fld	fs0,64(sp)
    17ce:	3301                	jal	14ce <vprintfmt.constprop.1+0x1092>
    17d0:	0000                	unimp
    17d2:	0400                	addi	s0,sp,512
    17d4:	00045517          	auipc	a0,0x45
    17d8:	0600                	addi	s0,sp,768
    17da:	0125                	addi	sp,sp,9
    17dc:	0646                	slli	a2,a2,0x11
    17de:	0000                	unimp
    17e0:	0008                	addi	a0,sp,0
    17e2:	060b040f          	0x60b040f
    17e6:	0000                	unimp
    17e8:	05ff040f          	0x5ff040f
    17ec:	0000                	unimp
    17ee:	6b19                	lui	s6,0x6
    17f0:	0000                	unimp
    17f2:	0e00                	addi	s0,sp,784
    17f4:	3d06                	fld	fs10,96(sp)
    17f6:	8101                	srli	a0,a0,0x0
    17f8:	0006                	0x6
    17fa:	1700                	addi	s0,sp,928
    17fc:	056e                	slli	a0,a0,0x1b
    17fe:	0000                	unimp
    1800:	3e06                	fld	ft8,96(sp)
    1802:	8101                	srli	a0,a0,0x0
    1804:	0006                	0x6
    1806:	0000                	unimp
    1808:	00030817          	auipc	a6,0x30
    180c:	0600                	addi	s0,sp,768
    180e:	0681013f 17060000 	0x170600000681013f
    1816:	05b5                	addi	a1,a1,13
    1818:	0000                	unimp
    181a:	4006                	0x4006
    181c:	5d01                	li	s10,-32
    181e:	0000                	unimp
    1820:	0c00                	addi	s0,sp,528
    1822:	0800                	addi	s0,sp,16
    1824:	005d                	c.addi	zero,23
    1826:	0000                	unimp
    1828:	0691                	addi	a3,a3,4
    182a:	0000                	unimp
    182c:	2c09                	jal	1a3e <main+0x2aa>
    182e:	0000                	unimp
    1830:	0200                	addi	s0,sp,256
    1832:	1a00                	addi	s0,sp,304
    1834:	06d0                	addi	a2,sp,836
    1836:	07920257          	0x7920257
    183a:	0000                	unimp
    183c:	00034417          	auipc	s0,0x34
    1840:	0600                	addi	s0,sp,768
    1842:	0259                	addi	tp,tp,22
    1844:	002c                	addi	a1,sp,8
    1846:	0000                	unimp
    1848:	1700                	addi	s0,sp,928
    184a:	058a                	slli	a1,a1,0x2
    184c:	0000                	unimp
    184e:	5a06                	lw	s4,96(sp)
    1850:	5a02                	lw	s4,32(sp)
    1852:	0005                	c.addi	zero,1
    1854:	0400                	addi	s0,sp,512
    1856:	0002cc17          	auipc	s8,0x2c
    185a:	0600                	addi	s0,sp,768
    185c:	0792025b          	0x792025b
    1860:	0000                	unimp
    1862:	1708                	addi	a0,sp,928
    1864:	0730                	addi	a2,sp,904
    1866:	0000                	unimp
    1868:	5c06                	lw	s8,96(sp)
    186a:	8602                	jr	a2
    186c:	0001                	nop
    186e:	2400                	fld	fs0,8(s0)
    1870:	00020717          	auipc	a4,0x20
    1874:	0600                	addi	s0,sp,768
    1876:	025d                	addi	tp,tp,23
    1878:	00000033          	add	zero,zero,zero
    187c:	1748                	addi	a0,sp,932
    187e:	079e                	slli	a5,a5,0x7
    1880:	0000                	unimp
    1882:	5e06                	lw	t3,96(sp)
    1884:	2502                	fld	fa0,0(sp)
    1886:	0000                	unimp
    1888:	5000                	lw	s0,32(s0)
    188a:	00074817          	auipc	a6,0x74
    188e:	0600                	addi	s0,sp,768
    1890:	025f 064c 0000      	0x64c025f
    1896:	1758                	addi	a4,sp,932
    1898:	0481                	addi	s1,s1,0
    189a:	0000                	unimp
    189c:	6006                	flw	ft0,64(sp)
    189e:	fa02                	fsw	ft0,52(sp)
    18a0:	0000                	unimp
    18a2:	6800                	flw	fs0,16(s0)
    18a4:	00076817          	auipc	a6,0x76
    18a8:	0600                	addi	s0,sp,768
    18aa:	0261                	addi	tp,tp,24
    18ac:	00fa                	slli	ra,ra,0x1e
    18ae:	0000                	unimp
    18b0:	1770                	addi	a2,sp,940
    18b2:	0000013f fa026206 	0xfa0262060000013f
    18ba:	0000                	unimp
    18bc:	7800                	flw	fs0,48(s0)
    18be:	00062c17          	auipc	s8,0x62
    18c2:	0600                	addi	s0,sp,768
    18c4:	07a20263          	beq	tp,s10,1928 <main+0x194>
    18c8:	0000                	unimp
    18ca:	1780                	addi	s0,sp,992
    18cc:	02c0                	addi	s0,sp,324
    18ce:	0000                	unimp
    18d0:	6406                	flw	fs0,64(sp)
    18d2:	b202                	fsd	ft0,288(sp)
    18d4:	88000007          	0x88000007
    18d8:	00009717          	auipc	a4,0x9
    18dc:	0600                	addi	s0,sp,768
    18de:	0265                	addi	tp,tp,25
    18e0:	00000033          	add	zero,zero,zero
    18e4:	17a0                	addi	s0,sp,1000
    18e6:	01d1                	addi	gp,gp,20
    18e8:	0000                	unimp
    18ea:	6606                	flw	fa2,64(sp)
    18ec:	fa02                	fsw	ft0,52(sp)
    18ee:	0000                	unimp
    18f0:	a400                	fsd	fs0,8(s0)
    18f2:	00010217          	auipc	tp,0x10
    18f6:	0600                	addi	s0,sp,768
    18f8:	00fa0267          	jalr	tp,15(s4) # 3c64f <__C_STACK_TOP__+0x2c64f>
    18fc:	0000                	unimp
    18fe:	17ac                	addi	a1,sp,1000
    1900:	01c0                	addi	s0,sp,196
    1902:	0000                	unimp
    1904:	6806                	flw	fa6,64(sp)
    1906:	fa02                	fsw	ft0,52(sp)
    1908:	0000                	unimp
    190a:	b400                	fsd	fs0,40(s0)
    190c:	0000aa17          	auipc	s4,0xa
    1910:	0600                	addi	s0,sp,768
    1912:	0269                	addi	tp,tp,26
    1914:	00fa                	slli	ra,ra,0x1e
    1916:	0000                	unimp
    1918:	17bc                	addi	a5,sp,1000
    191a:	00b9                	addi	ra,ra,14
    191c:	0000                	unimp
    191e:	6a06                	flw	fs4,64(sp)
    1920:	fa02                	fsw	ft0,52(sp)
    1922:	0000                	unimp
    1924:	c400                	sw	s0,8(s0)
    1926:	00043b17          	auipc	s6,0x43
    192a:	0600                	addi	s0,sp,768
    192c:	0033026b          	0x33026b
    1930:	0000                	unimp
    1932:	00cc                	addi	a1,sp,68
    1934:	6008                	flw	fa0,0(s0)
    1936:	0005                	c.addi	zero,1
    1938:	a200                	fsd	fs0,0(a2)
    193a:	09000007          	0x9000007
    193e:	002c                	addi	a1,sp,8
    1940:	0000                	unimp
    1942:	0019                	c.addi	zero,6
    1944:	6008                	flw	fa0,0(s0)
    1946:	0005                	c.addi	zero,1
    1948:	b200                	fsd	fs0,32(a2)
    194a:	09000007          	0x9000007
    194e:	002c                	addi	a1,sp,8
    1950:	0000                	unimp
    1952:	60080007          	0x60080007
    1956:	0005                	c.addi	zero,1
    1958:	c200                	sw	s0,0(a2)
    195a:	09000007          	0x9000007
    195e:	002c                	addi	a1,sp,8
    1960:	0000                	unimp
    1962:	f01a0017          	auipc	zero,0xf01a0
    1966:	7006                	flw	ft0,96(sp)
    1968:	e602                	fsw	ft0,12(sp)
    196a:	17000007          	0x17000007
    196e:	000002e7          	jalr	t0,zero
    1972:	7306                	flw	ft6,96(sp)
    1974:	e602                	fsw	ft0,12(sp)
    1976:	00000007          	0x7
    197a:	00021617          	auipc	a2,0x21
    197e:	0600                	addi	s0,sp,768
    1980:	0274                	addi	a3,sp,268
    1982:	07f6                	slli	a5,a5,0x1d
    1984:	0000                	unimp
    1986:	0078                	addi	a4,sp,12
    1988:	cf08                	sw	a0,24(a4)
    198a:	0002                	0x2
    198c:	f600                	fsw	fs0,40(a2)
    198e:	09000007          	0x9000007
    1992:	002c                	addi	a1,sp,8
    1994:	0000                	unimp
    1996:	001d                	c.addi	zero,7
    1998:	2c08                	fld	fa0,24(s0)
    199a:	0000                	unimp
    199c:	0600                	addi	s0,sp,768
    199e:	0008                	addi	a0,sp,0
    19a0:	0900                	addi	s0,sp,144
    19a2:	002c                	addi	a1,sp,8
    19a4:	0000                	unimp
    19a6:	001d                	c.addi	zero,7
    19a8:	5506f01b          	0x5506f01b
    19ac:	2802                	fld	fa6,0(sp)
    19ae:	0008                	addi	a0,sp,0
    19b0:	1c00                	addi	s0,sp,560
    19b2:	04ba                	slli	s1,s1,0xe
    19b4:	0000                	unimp
    19b6:	6c06                	flw	fs8,64(sp)
    19b8:	9102                	jalr	sp
    19ba:	0006                	0x6
    19bc:	1c00                	addi	s0,sp,560
    19be:	00000713          	li	a4,0
    19c2:	7506                	flw	fa0,96(sp)
    19c4:	c202                	sw	zero,4(sp)
    19c6:	00000007          	0x7
    19ca:	6008                	flw	fa0,0(s0)
    19cc:	0005                	c.addi	zero,1
    19ce:	3800                	fld	fs0,48(s0)
    19d0:	0008                	addi	a0,sp,0
    19d2:	0900                	addi	s0,sp,144
    19d4:	002c                	addi	a1,sp,8
    19d6:	0000                	unimp
    19d8:	0018                	addi	a4,sp,0
    19da:	431d                	li	t1,7
    19dc:	0008                	addi	a0,sp,0
    19de:	1400                	addi	s0,sp,544
    19e0:	041d                	addi	s0,s0,7
    19e2:	0000                	unimp
    19e4:	0f00                	addi	s0,sp,912
    19e6:	3804                	fld	fs1,48(s0)
    19e8:	0008                	addi	a0,sp,0
    19ea:	0f00                	addi	s0,sp,912
    19ec:	7004                	flw	fs1,32(s0)
    19ee:	0001                	nop
    19f0:	1d00                	addi	s0,sp,688
    19f2:	085a                	slli	a6,a6,0x16
    19f4:	0000                	unimp
    19f6:	3314                	fld	fa3,32(a4)
    19f8:	0000                	unimp
    19fa:	0000                	unimp
    19fc:	0860040f          	0x860040f
    1a00:	0000                	unimp
    1a02:	084f040f          	0x84f040f
    1a06:	0000                	unimp
    1a08:	ff08                	fsw	fa0,56(a4)
    1a0a:	0005                	c.addi	zero,1
    1a0c:	7600                	flw	fs0,40(a2)
    1a0e:	0008                	addi	a0,sp,0
    1a10:	0900                	addi	s0,sp,144
    1a12:	002c                	addi	a1,sp,8
    1a14:	0000                	unimp
    1a16:	0002                	0x2
    1a18:	de1e                	sw	t2,60(sp)
    1a1a:	0005                	c.addi	zero,1
    1a1c:	0600                	addi	s0,sp,768
    1a1e:	02fd                	addi	t0,t0,31
    1a20:	041d                	addi	s0,s0,7
    1a22:	0000                	unimp
    1a24:	d71e                	sw	t2,172(sp)
    1a26:	0005                	c.addi	zero,1
    1a28:	0600                	addi	s0,sp,768
    1a2a:	02fe                	slli	t0,t0,0x1f
    1a2c:	00000423          	sb	zero,8(zero) # f01a196a <__C_STACK_TOP__+0xf019196a>
    1a30:	9608                	0x9608
    1a32:	0005                	c.addi	zero,1
    1a34:	9900                	0x9900
    1a36:	0008                	addi	a0,sp,0
    1a38:	1f00                	addi	s0,sp,944
    1a3a:	1500                	addi	s0,sp,672
    1a3c:	088e                	slli	a7,a7,0x3
    1a3e:	0000                	unimp
    1a40:	ab20                	fsd	fs0,80(a4)
    1a42:	0001                	nop
    1a44:	0700                	addi	s0,sp,896
    1a46:	9914                	0x9914
    1a48:	0008                	addi	a0,sp,0
    1a4a:	2000                	fld	fs0,0(s0)
    1a4c:	00000477          	0x477
    1a50:	00331507          	0x331507
    1a54:	0000                	unimp
    1a56:	08ba040f          	0x8ba040f
    1a5a:	0000                	unimp
    1a5c:	00003313          	sltiu	t1,zero,0
    1a60:	ce00                	sw	s0,24(a2)
    1a62:	0008                	addi	a0,sp,0
    1a64:	1400                	addi	s0,sp,544
    1a66:	08ce                	slli	a7,a7,0x13
    1a68:	0000                	unimp
    1a6a:	ce14                	sw	a3,24(a2)
    1a6c:	0008                	addi	a0,sp,0
    1a6e:	0000                	unimp
    1a70:	08d4040f          	0x8d4040f
    1a74:	0000                	unimp
    1a76:	2021                	jal	1a7e <main+0x2ea>
    1a78:	03b0                	addi	a2,sp,456
    1a7a:	0000                	unimp
    1a7c:	5f08                	lw	a0,56(a4)
    1a7e:	055a                	slli	a0,a0,0x16
    1a80:	0000                	unimp
    1a82:	ee20                	fsw	fs0,88(a2)
    1a84:	0002                	0x2
    1a86:	0900                	addi	s0,sp,144
    1a88:	eb10                	fsw	fa2,16(a4)
    1a8a:	0008                	addi	a0,sp,0
    1a8c:	0f00                	addi	s0,sp,912
    1a8e:	5a04                	lw	s1,48(a2)
    1a90:	0005                	c.addi	zero,1
    1a92:	2000                	fld	fs0,0(s0)
    1a94:	000003b3          	add	t2,zero,zero
    1a98:	d809                	beqz	s0,19aa <main+0x216>
    1a9a:	055a                	slli	a0,a0,0x16
    1a9c:	0000                	unimp
    1a9e:	dd20                	sw	s0,120(a0)
    1aa0:	0000                	unimp
    1aa2:	0900                	addi	s0,sp,144
    1aa4:	33d9                	jal	186a <main+0xd6>
    1aa6:	0000                	unimp
    1aa8:	2000                	fld	fs0,0(s0)
    1aaa:	0574                	addi	a3,sp,652
    1aac:	0000                	unimp
    1aae:	d909                	beqz	a0,19c0 <main+0x22c>
    1ab0:	00000033          	add	zero,zero,zero
    1ab4:	5720                	lw	s0,104(a4)
    1ab6:	09000007          	0x9000007
    1aba:	33d9                	jal	1880 <main+0xec>
    1abc:	0000                	unimp
    1abe:	2000                	fld	fs0,0(s0)
    1ac0:	0322                	slli	t1,t1,0x8
    1ac2:	0000                	unimp
    1ac4:	db09                	beqz	a4,19d6 <main+0x242>
    1ac6:	00000033          	add	zero,zero,zero
    1aca:	e020                	fsw	fs0,64(s0)
    1acc:	0a000003          	lb	zero,160(zero) # a0 <buflen.1744+0x60>
    1ad0:	0000648b          	0x648b
    1ad4:	2000                	fld	fs0,0(s0)
    1ad6:	007e                	0x7e
    1ad8:	0000                	unimp
    1ada:	8c0a                	mv	s8,sp
    1adc:	00000033          	add	zero,zero,zero
    1ae0:	5a08                	lw	a0,48(a2)
    1ae2:	0005                	c.addi	zero,1
    1ae4:	4e00                	lw	s0,24(a2)
    1ae6:	0009                	c.addi	zero,2
    1ae8:	0900                	addi	s0,sp,144
    1aea:	002c                	addi	a1,sp,8
    1aec:	0000                	unimp
    1aee:	0001                	nop
    1af0:	1120                	addi	s0,sp,168
    1af2:	0001                	nop
    1af4:	0a00                	addi	s0,sp,272
    1af6:	00093e8f          	0x93e8f
    1afa:	0400                	addi	s0,sp,512
    1afc:	0251                	addi	tp,tp,20
    1afe:	0000                	unimp
    1b00:	002c2a0b          	0x2c2a0b
    1b04:	0000                	unimp
    1b06:	6504                	flw	fs1,8(a0)
    1b08:	0004                	addi	s1,sp,0
    1b0a:	0b00                	addi	s0,sp,400
    1b0c:	00096f2f          	0x96f2f
    1b10:	0f00                	addi	s0,sp,912
    1b12:	7504                	flw	fs1,40(a0)
    1b14:	0009                	c.addi	zero,2
    1b16:	1300                	addi	s0,sp,416
    1b18:	0959                	addi	s2,s2,22
    1b1a:	0000                	unimp
    1b1c:	0984                	addi	s1,sp,208
    1b1e:	0000                	unimp
    1b20:	ce14                	sw	a3,24(a2)
    1b22:	0008                	addi	a0,sp,0
    1b24:	0000                	unimp
    1b26:	a904                	fsd	fs1,16(a0)
    1b28:	0b000007          	0xb000007
    1b2c:	b436                	fsd	fa3,40(sp)
    1b2e:	0008                	addi	a0,sp,0
    1b30:	2000                	fld	fs0,0(s0)
    1b32:	000a                	0xa
    1b34:	0000                	unimp
    1b36:	0964bb0b          	0x964bb0b
    1b3a:	0000                	unimp
    1b3c:	c220                	sw	s0,64(a2)
    1b3e:	0005                	c.addi	zero,1
    1b40:	0b00                	addi	s0,sp,400
    1b42:	84be                	mv	s1,a5
    1b44:	0009                	c.addi	zero,2
    1b46:	2200                	fld	fs0,0(a2)
    1b48:	0224                	addi	s1,sp,264
    1b4a:	0000                	unimp
    1b4c:	002c0407          	0x2c0407
    1b50:	0000                	unimp
    1b52:	180c                	addi	a1,sp,48
    1b54:	000009db          	0x9db
    1b58:	00041623          	sh	zero,12(s0) # 35848 <__C_STACK_TOP__+0x25848>
    1b5c:	0000                	unimp
    1b5e:	00038623          	sb	zero,12(t2)
    1b62:	0100                	addi	s0,sp,128
    1b64:	00035123          	0x35123
    1b68:	0200                	addi	s0,sp,256
    1b6a:	00040d23          	sb	zero,26(s0)
    1b6e:	0300                	addi	s0,sp,384
    1b70:	00075e23          	0x75e23
    1b74:	0400                	addi	s0,sp,512
    1b76:	00074d23          	0x74d23
    1b7a:	0500                	addi	s0,sp,640
    1b7c:	2000                	fld	fs0,0(s0)
    1b7e:	00f8                	addi	a4,sp,76
    1b80:	0000                	unimp
    1b82:	200c                	fld	fa1,0(s0)
    1b84:	09a5                	addi	s3,s3,9
    1b86:	0000                	unimp
    1b88:	5c22                	lw	s8,40(sp)
    1b8a:	07000003          	lb	zero,112(zero) # 70 <buflen.1744+0x30>
    1b8e:	2c04                	fld	fs1,24(s0)
    1b90:	0000                	unimp
    1b92:	0c00                	addi	s0,sp,528
    1b94:	0a22                	slli	s4,s4,0x8
    1b96:	000a                	0xa
    1b98:	2300                	fld	fs0,0(a4)
    1b9a:	0000045b          	0x45b
    1b9e:	2300                	fld	fs0,0(a4)
    1ba0:	042c                	addi	a1,sp,520
    1ba2:	0000                	unimp
    1ba4:	2301                	jal	20a4 <main+0x910>
    1ba6:	00000597          	auipc	a1,0x0
    1baa:	0002                	0x2
    1bac:	df20                	sw	s0,120(a4)
    1bae:	0001                	nop
    1bb0:	0c00                	addi	s0,sp,528
    1bb2:	0009e627          	0x9e627
    1bb6:	2000                	fld	fs0,0(s0)
    1bb8:	00000313          	li	t1,0
    1bbc:	250d                	jal	21de <main+0xa4a>
    1bbe:	0899                	addi	a7,a7,6
    1bc0:	0000                	unimp
    1bc2:	a720                	fsd	fs0,72(a4)
    1bc4:	0002                	0x2
    1bc6:	0d00                	addi	s0,sp,656
    1bc8:	9931                	andi	a0,a0,-20
    1bca:	0008                	addi	a0,sp,0
    1bcc:	0400                	addi	s0,sp,512
    1bce:	0785                	addi	a5,a5,1
    1bd0:	0000                	unimp
    1bd2:	7b0e                	flw	fs6,224(sp)
    1bd4:	0000004f          	fnmadd.s	ft0,ft0,ft0,ft0,rne
    1bd8:	2b15                	jal	210c <main+0x978>
    1bda:	000a                	0xa
    1bdc:	0400                	addi	s0,sp,512
    1bde:	0196                	slli	gp,gp,0x5
    1be0:	0000                	unimp
    1be2:	800e                	0x800e
    1be4:	00000033          	add	zero,zero,zero
    1be8:	9504                	0x9504
    1bea:	0001                	nop
    1bec:	0e00                	addi	s0,sp,784
    1bee:	2c81                	jal	1e3e <main+0x6aa>
    1bf0:	0000                	unimp
    1bf2:	0400                	addi	s0,sp,512
    1bf4:	000005eb          	0x5eb
    1bf8:	840e                	mv	s0,gp
    1bfa:	003a                	0x3a
    1bfc:	0000                	unimp
    1bfe:	ea04                	fsw	fs1,16(a2)
    1c00:	0005                	c.addi	zero,1
    1c02:	0e00                	addi	s0,sp,784
    1c04:	2585                	jal	2264 <main+0xad0>
    1c06:	0000                	unimp
    1c08:	0200                	addi	s0,sp,256
    1c0a:	0404                	addi	s1,sp,512
    1c0c:	0399                	addi	t2,t2,6
    1c0e:	0000                	unimp
    1c10:	0802                	slli	a6,a6,0x0
    1c12:	00039103          	lh	sp,0(t2)
    1c16:	0200                	addi	s0,sp,256
    1c18:	0408                	addi	a0,sp,512
    1c1a:	00f1                	addi	ra,ra,28
    1c1c:	0000                	unimp
    1c1e:	1002                	0x1002
    1c20:	00008803          	lb	a6,0(ra)
    1c24:	0200                	addi	s0,sp,256
    1c26:	0320                	addi	s0,sp,392
    1c28:	00e4                	addi	s1,sp,76
    1c2a:	0000                	unimp
    1c2c:	8119                	srli	a0,a0,0x6
    1c2e:	0002                	0x2
    1c30:	0800                	addi	s0,sp,16
    1c32:	ed0e                	fsw	ft3,152(sp)
    1c34:	b201                	j	1534 <vprintfmt.constprop.1+0x10f8>
    1c36:	000a                	0xa
    1c38:	2400                	fld	fs0,8(s0)
    1c3a:	6f6c                	flw	fa1,92(a4)
    1c3c:	ed0e0077          	0xed0e0077
    1c40:	3b01                	jal	1950 <main+0x1bc>
    1c42:	000a                	0xa
    1c44:	0000                	unimp
    1c46:	00057b17          	auipc	s6,0x57
    1c4a:	0e00                	addi	s0,sp,784
    1c4c:	01ed                	addi	gp,gp,27
    1c4e:	00000a3b          	0xa3b
    1c52:	0004                	addi	s1,sp,0
    1c54:	f40e081b          	0xf40e081b
    1c58:	d101                	beqz	a0,1b58 <main+0x3c4>
    1c5a:	000a                	0xa
    1c5c:	2500                	fld	fs0,8(a0)
    1c5e:	f60e0073          	0xf60e0073
    1c62:	8a01                	andi	a2,a2,0
    1c64:	000a                	0xa
    1c66:	2500                	fld	fs0,8(a0)
    1c68:	6c6c                	flw	fa1,92(s0)
    1c6a:	0e00                	addi	s0,sp,784
    1c6c:	0a5101f7          	0xa5101f7
    1c70:	0000                	unimp
    1c72:	0500                	addi	s0,sp,640
    1c74:	0000025b          	0x25b
    1c78:	f80e                	fsw	ft3,48(sp)
    1c7a:	b201                	j	157a <vprintfmt.constprop.1+0x113e>
    1c7c:	000a                	0xa
    1c7e:	1500                	addi	s0,sp,672
    1c80:	0ad1                	addi	s5,s5,20
    1c82:	0000                	unimp
    1c84:	3608                	fld	fa0,40(a2)
    1c86:	000a                	0xa
    1c88:	f200                	fsw	fs0,32(a2)
    1c8a:	000a                	0xa
    1c8c:	0900                	addi	s0,sp,144
    1c8e:	002c                	addi	a1,sp,8
    1c90:	0000                	unimp
    1c92:	00ff                	0xff
    1c94:	e215                	bnez	a2,1cb8 <main+0x524>
    1c96:	000a                	0xa
    1c98:	1e00                	addi	s0,sp,816
    1c9a:	0640                	addi	s0,sp,772
    1c9c:	0000                	unimp
    1c9e:	fc0e                	fsw	ft3,56(sp)
    1ca0:	f201                	bnez	a2,1ba0 <main+0x40c>
    1ca2:	000a                	0xa
    1ca4:	1e00                	addi	s0,sp,816
    1ca6:	029d                	addi	t0,t0,7
    1ca8:	0000                	unimp
    1caa:	020e                	slli	tp,tp,0x3
    1cac:	f202                	fsw	ft0,36(sp)
    1cae:	000a                	0xa
    1cb0:	2600                	fld	fs0,8(a2)
    1cb2:	07b1                	addi	a5,a5,12
    1cb4:	0000                	unimp
    1cb6:	2501                	jal	22b6 <main+0xb22>
    1cb8:	5c05                	li	s8,-31
    1cba:	000a                	0xa
    1cbc:	d800                	sw	s0,48(s0)
    1cbe:	002d                	c.addi	zero,11
    1cc0:	3400                	fld	fs0,40(s0)
    1cc2:	0004                	addi	s1,sp,0
    1cc4:	0100                	addi	s0,sp,128
    1cc6:	e79c                	fsw	fa5,8(a5)
    1cc8:	000d                	c.addi	zero,3
    1cca:	2700                	fld	fs0,8(a4)
    1ccc:	006e                	0x6e
    1cce:	2501                	jal	22ce <main+0xb3a>
    1cd0:	5c05                	li	s8,-31
    1cd2:	000a                	0xa
    1cd4:	c400                	sw	s0,8(s0)
    1cd6:	0009                	c.addi	zero,2
    1cd8:	2700                	fld	fs0,8(a4)
    1cda:	0064                	addi	s1,sp,12
    1cdc:	2501                	jal	22dc <main+0xb48>
    1cde:	5c05                	li	s8,-31
    1ce0:	000a                	0xa
    1ce2:	7c00                	flw	fs0,56(s0)
    1ce4:	000a                	0xa
    1ce6:	2800                	fld	fs0,16(s0)
    1ce8:	00000de7          	jalr	s11,zero
    1cec:	2ddc                	fld	fa5,152(a1)
    1cee:	0000                	unimp
    1cf0:	00c0                	addi	s0,sp,68
    1cf2:	0000                	unimp
    1cf4:	2701                	jal	23f4 <main+0xc60>
    1cf6:	2905                	jal	2126 <main+0x992>
    1cf8:	0e0c                	addi	a1,sp,784
    1cfa:	0000                	unimp
    1cfc:	0b14                	addi	a3,sp,400
    1cfe:	0000                	unimp
    1d00:	0229                	addi	tp,tp,10
    1d02:	000e                	0xe
    1d04:	3400                	fld	fs0,40(s0)
    1d06:	2900000b          	0x2900000b
    1d0a:	0df8                	addi	a4,sp,732
    1d0c:	0000                	unimp
    1d0e:	0bcc                	addi	a1,sp,468
    1d10:	0000                	unimp
    1d12:	c02a                	sw	a0,0(sp)
    1d14:	0000                	unimp
    1d16:	2b00                	fld	fs0,16(a4)
    1d18:	00000e17          	auipc	t3,0x0
    1d1c:	000e222b          	0xe222b
    1d20:	2b00                	fld	fs0,16(a4)
    1d22:	0e2d                	addi	t3,t3,11
    1d24:	0000                	unimp
    1d26:	382c                	fld	fa1,112(s0)
    1d28:	000e                	0xe
    1d2a:	8400                	0x8400
    1d2c:	000c                	addi	a1,sp,0
    1d2e:	2c00                	fld	fs0,24(s0)
    1d30:	00000e43          	fmadd.s	ft8,ft0,ft0,ft0,rne
    1d34:	0d19                	addi	s10,s10,6
    1d36:	0000                	unimp
    1d38:	4e2c                	lw	a1,88(a2)
    1d3a:	000e                	0xe
    1d3c:	8f00                	0x8f00
    1d3e:	000d                	c.addi	zero,3
    1d40:	2c00                	fld	fs0,24(s0)
    1d42:	0e59                	addi	t3,t3,22
    1d44:	0000                	unimp
    1d46:	0dff                	0xdff
    1d48:	0000                	unimp
    1d4a:	642c                	flw	fa1,72(s0)
    1d4c:	000e                	0xe
    1d4e:	ac00                	fsd	fs0,24(s0)
    1d50:	000e                	0xe
    1d52:	2c00                	fld	fs0,24(s0)
    1d54:	00000e6f          	jal	t3,1d54 <main+0x5c0>
    1d58:	0eca                	slli	t4,t4,0x12
    1d5a:	0000                	unimp
    1d5c:	7a2c                	flw	fa1,112(a2)
    1d5e:	000e                	0xe
    1d60:	e800                	fsw	fs0,16(s0)
    1d62:	000e                	0xe
    1d64:	2c00                	fld	fs0,24(s0)
    1d66:	0e85                	addi	t4,t4,1
    1d68:	0000                	unimp
    1d6a:	0f12                	slli	t5,t5,0x4
    1d6c:	0000                	unimp
    1d6e:	8f2c                	0x8f2c
    1d70:	000e                	0xe
    1d72:	3000                	fld	fs0,32(s0)
    1d74:	2b00000f          	0x2b00000f
    1d78:	0e9a                	slli	t4,t4,0x6
    1d7a:	0000                	unimp
    1d7c:	a52d                	j	23a6 <main+0xc12>
    1d7e:	000e                	0xe
    1d80:	d800                	sw	s0,48(s0)
    1d82:	0000                	unimp
    1d84:	fa00                	fsw	fs0,48(a2)
    1d86:	2c00000b          	0x2c00000b
    1d8a:	0eaa                	slli	t4,t4,0xa
    1d8c:	0000                	unimp
    1d8e:	00000f6f          	jal	t5,1d8e <main+0x5fa>
    1d92:	b62c                	fsd	fa1,104(a2)
    1d94:	000e                	0xe
    1d96:	a800                	fsd	fs0,16(s0)
    1d98:	0000000f          	fence	unknown,unknown
    1d9c:	c32e                	sw	a1,132(sp)
    1d9e:	000e                	0xe
    1da0:	3c00                	fld	fs0,56(s0)
    1da2:	002e                	0x2e
    1da4:	8800                	0x8800
    1da6:	0000                	unimp
    1da8:	4b00                	lw	s0,16(a4)
    1daa:	000c                	addi	a1,sp,0
    1dac:	2c00                	fld	fs0,24(s0)
    1dae:	0ec8                	addi	a0,sp,852
    1db0:	0000                	unimp
    1db2:	00000fbb          	0xfbb
    1db6:	d42c                	sw	a1,104(s0)
    1db8:	000e                	0xe
    1dba:	dd00                	sw	s0,56(a0)
    1dbc:	2c00000f          	0x2c00000f
    1dc0:	0ee0                	addi	s0,sp,860
    1dc2:	0000                	unimp
    1dc4:	0ff0                	addi	a2,sp,988
    1dc6:	0000                	unimp
    1dc8:	ec2c                	fsw	fa1,88(s0)
    1dca:	000e                	0xe
    1dcc:	0e00                	addi	s0,sp,784
    1dce:	0010                	addi	a2,sp,0
    1dd0:	2c00                	fld	fs0,24(s0)
    1dd2:	0ef8                	addi	a4,sp,860
    1dd4:	0000                	unimp
    1dd6:	102c                	addi	a1,sp,40
    1dd8:	0000                	unimp
    1dda:	042c                	addi	a1,sp,520
    1ddc:	5500000f          	0x5500000f
    1de0:	0010                	addi	a2,sp,0
    1de2:	2c00                	fld	fs0,24(s0)
    1de4:	0f10                	addi	a2,sp,912
    1de6:	0000                	unimp
    1de8:	00001073          	csrw	0x0,zero
    1dec:	2d00                	fld	fs0,24(a0)
    1dee:	101f 0000 00f0      	0xf00000101f
    1df4:	0000                	unimp
    1df6:	0d0a                	slli	s10,s10,0x2
    1df8:	0000                	unimp
    1dfa:	202c                	fld	fa1,64(s0)
    1dfc:	0010                	addi	a2,sp,0
    1dfe:	8600                	0x8600
    1e00:	0010                	addi	a2,sp,0
    1e02:	2c00                	fld	fs0,24(s0)
    1e04:	0000102b          	0x102b
    1e08:	1099                	addi	ra,ra,-26
    1e0a:	0000                	unimp
    1e0c:	362d                	jal	1936 <main+0x1a2>
    1e0e:	0010                	addi	a2,sp,0
    1e10:	0800                	addi	s0,sp,16
    1e12:	0001                	nop
    1e14:	b700                	fsd	fs0,40(a4)
    1e16:	000c                	addi	a1,sp,0
    1e18:	2c00                	fld	fs0,24(s0)
    1e1a:	0000103b          	0x103b
    1e1e:	10da                	slli	ra,ra,0x36
    1e20:	0000                	unimp
    1e22:	472c                	lw	a1,72(a4)
    1e24:	0010                	addi	a2,sp,0
    1e26:	fc00                	fsw	fs0,56(s0)
    1e28:	0010                	addi	a2,sp,0
    1e2a:	2c00                	fld	fs0,24(s0)
    1e2c:	00001053          	fadd.s	ft0,ft0,ft0,rtz
    1e30:	1120                	addi	s0,sp,168
    1e32:	0000                	unimp
    1e34:	5f2c                	lw	a1,120(a4)
    1e36:	0010                	addi	a2,sp,0
    1e38:	3e00                	fld	fs0,56(a2)
    1e3a:	0011                	c.addi	zero,4
    1e3c:	2c00                	fld	fs0,24(s0)
    1e3e:	0000106b          	0x106b
    1e42:	115c                	addi	a5,sp,164
    1e44:	0000                	unimp
    1e46:	772c                	flw	fa1,104(a4)
    1e48:	0010                	addi	a2,sp,0
    1e4a:	9700                	0x9700
    1e4c:	0011                	c.addi	zero,4
    1e4e:	2c00                	fld	fs0,24(s0)
    1e50:	00001083          	lh	ra,0(zero) # 0 <buf.1743>
    1e54:	11d4                	addi	a3,sp,228
    1e56:	0000                	unimp
    1e58:	2f00                	fld	fs0,24(a4)
    1e5a:	1090                	addi	a2,sp,96
    1e5c:	0000                	unimp
    1e5e:	0138                	addi	a4,sp,136
    1e60:	0000                	unimp
    1e62:	952c                	0x952c
    1e64:	0010                	addi	a2,sp,0
    1e66:	0600                	addi	s0,sp,768
    1e68:	0012                	0x12
    1e6a:	2c00                	fld	fs0,24(s0)
    1e6c:	10a1                	addi	ra,ra,-24
    1e6e:	0000                	unimp
    1e70:	1219                	addi	tp,tp,-26
    1e72:	0000                	unimp
    1e74:	ad2c                	fsd	fa1,88(a0)
    1e76:	0010                	addi	a2,sp,0
    1e78:	6c00                	flw	fs0,24(s0)
    1e7a:	0012                	0x12
    1e7c:	2c00                	fld	fs0,24(s0)
    1e7e:	10b9                	addi	ra,ra,-18
    1e80:	0000                	unimp
    1e82:	127f                	0x127f
    1e84:	0000                	unimp
    1e86:	c52c                	sw	a1,72(a0)
    1e88:	0010                	addi	a2,sp,0
    1e8a:	9200                	0x9200
    1e8c:	0012                	0x12
    1e8e:	2c00                	fld	fs0,24(s0)
    1e90:	10d1                	addi	ra,ra,-12
    1e92:	0000                	unimp
    1e94:	12e5                	addi	t0,t0,-7
    1e96:	0000                	unimp
    1e98:	dd2c                	sw	a1,120(a0)
    1e9a:	0010                	addi	a2,sp,0
    1e9c:	f800                	fsw	fs0,48(s0)
    1e9e:	0012                	0x12
    1ea0:	2c00                	fld	fs0,24(s0)
    1ea2:	10e9                	addi	ra,ra,-6
    1ea4:	0000                	unimp
    1ea6:	1329                	addi	t1,t1,-22
    1ea8:	0000                	unimp
    1eaa:	0000                	unimp
    1eac:	1d2d                	addi	s10,s10,-21
    1eae:	6000000f          	0x6000000f
    1eb2:	0001                	nop
    1eb4:	2a00                	fld	fs0,16(a2)
    1eb6:	000d                	c.addi	zero,3
    1eb8:	2c00                	fld	fs0,24(s0)
    1eba:	0f22                	slli	t5,t5,0x8
    1ebc:	0000                	unimp
    1ebe:	133c                	addi	a5,sp,424
    1ec0:	0000                	unimp
    1ec2:	2e2c                	fld	fa1,88(a2)
    1ec4:	7500000f          	0x7500000f
    1ec8:	00000013          	nop
    1ecc:	952e                	add	a0,a0,a1
    1ece:	2400000f          	0x2400000f
    1ed2:	8800002f          	0x8800002f
    1ed6:	0000                	unimp
    1ed8:	7b00                	flw	fs0,48(a4)
    1eda:	000d                	c.addi	zero,3
    1edc:	2c00                	fld	fs0,24(s0)
    1ede:	0f9a                	slli	t6,t6,0x6
    1ee0:	0000                	unimp
    1ee2:	00001393          	slli	t2,zero,0x0
    1ee6:	a62c                	fsd	fa1,72(a2)
    1ee8:	a600000f          	0xa600000f
    1eec:	2c000013          	li	zero,704
    1ef0:	0fb2                	slli	t6,t6,0xc
    1ef2:	0000                	unimp
    1ef4:	13ca                	slli	t2,t2,0x32
    1ef6:	0000                	unimp
    1ef8:	be2c                	fsd	fa1,120(a2)
    1efa:	e800000f          	0xe800000f
    1efe:	2c000013          	li	zero,704
    1f02:	0fca                	slli	t6,t6,0x12
    1f04:	0000                	unimp
    1f06:	1406                	slli	s0,s0,0x21
    1f08:	0000                	unimp
    1f0a:	d62c                	sw	a1,104(a2)
    1f0c:	2f00000f          	0x2f00000f
    1f10:	0014                	addi	a3,sp,0
    1f12:	2c00                	fld	fs0,24(s0)
    1f14:	0fe2                	slli	t6,t6,0x18
    1f16:	0000                	unimp
    1f18:	144d                	addi	s0,s0,-13
    1f1a:	0000                	unimp
    1f1c:	2d00                	fld	fs0,24(a0)
    1f1e:	00000f3b          	0xf3b
    1f22:	0178                	addi	a4,sp,140
    1f24:	0000                	unimp
    1f26:	0dc8                	addi	a0,sp,724
    1f28:	0000                	unimp
    1f2a:	402c                	lw	a1,64(s0)
    1f2c:	6b00000f          	0x6b00000f
    1f30:	0014                	addi	a3,sp,0
    1f32:	2c00                	fld	fs0,24(s0)
    1f34:	0f4c                	addi	a1,sp,916
    1f36:	0000                	unimp
    1f38:	147e                	slli	s0,s0,0x3f
    1f3a:	0000                	unimp
    1f3c:	582c                	lw	a1,112(s0)
    1f3e:	a200000f          	0xa200000f
    1f42:	0014                	addi	a3,sp,0
    1f44:	2c00                	fld	fs0,24(s0)
    1f46:	0f64                	addi	s1,sp,924
    1f48:	0000                	unimp
    1f4a:	14c0                	addi	s0,sp,612
    1f4c:	0000                	unimp
    1f4e:	702c                	flw	fa1,96(s0)
    1f50:	de00000f          	0xde00000f
    1f54:	0014                	addi	a3,sp,0
    1f56:	2c00                	fld	fs0,24(s0)
    1f58:	0f7c                	addi	a5,sp,924
    1f5a:	0000                	unimp
    1f5c:	1512                	slli	a0,a0,0x24
    1f5e:	0000                	unimp
    1f60:	882c                	0x882c
    1f62:	3b00000f          	0x3b00000f
    1f66:	0015                	c.addi	zero,5
    1f68:	0000                	unimp
    1f6a:	000fef2f          	0xfef2f
    1f6e:	9800                	0x9800
    1f70:	0001                	nop
    1f72:	2c00                	fld	fs0,24(s0)
    1f74:	0ff4                	addi	a3,sp,988
    1f76:	0000                	unimp
    1f78:	157d                	addi	a0,a0,-1
    1f7a:	0000                	unimp
    1f7c:	002c                	addi	a1,sp,8
    1f7e:	0010                	addi	a2,sp,0
    1f80:	9b00                	0x9b00
    1f82:	0015                	c.addi	zero,5
    1f84:	0000                	unimp
    1f86:	0000                	unimp
    1f88:	3000                	fld	fs0,32(s0)
    1f8a:	04fa                	slli	s1,s1,0x1e
    1f8c:	0000                	unimp
    1f8e:	f601                	bnez	a2,1e96 <main+0x702>
    1f90:	000a5c03          	lhu	s8,0(s4) # b90c <_gp+0x786c>
    1f94:	0300                	addi	s0,sp,384
    1f96:	1118                	addi	a4,sp,160
    1f98:	0000                	unimp
    1f9a:	6e31                	lui	t3,0xc
    1f9c:	0100                	addi	s0,sp,128
    1f9e:	03f6                	slli	t2,t2,0x1d
    1fa0:	0a5c                	addi	a5,sp,276
    1fa2:	0000                	unimp
    1fa4:	6431                	lui	s0,0xc
    1fa6:	0100                	addi	s0,sp,128
    1fa8:	03f6                	slli	t2,t2,0x1d
    1faa:	0a5c                	addi	a5,sp,276
    1fac:	0000                	unimp
    1fae:	7231                	lui	tp,0xfffec
    1fb0:	0070                	addi	a2,sp,12
    1fb2:	f601                	bnez	a2,1eba <main+0x726>
    1fb4:	00111803          	lh	a6,1(sp) # 62627 <__C_STACK_TOP__+0x52627>
    1fb8:	3200                	fld	fs0,32(a2)
    1fba:	6e6e                	flw	ft8,216(sp)
    1fbc:	0100                	addi	s0,sp,128
    1fbe:	03f8                	addi	a4,sp,460
    1fc0:	0add                	addi	s5,s5,23
    1fc2:	0000                	unimp
    1fc4:	6432                	flw	fs0,12(sp)
    1fc6:	0064                	addi	s1,sp,12
    1fc8:	f901                	bnez	a0,1ed8 <main+0x744>
    1fca:	000add03          	lhu	s10,0(s5)
    1fce:	3200                	fld	fs0,32(a2)
    1fd0:	7272                	flw	ft4,60(sp)
    1fd2:	0100                	addi	s0,sp,128
    1fd4:	03fa                	slli	t2,t2,0x1e
    1fd6:	0ad1                	addi	s5,s5,20
    1fd8:	0000                	unimp
    1fda:	6432                	flw	fs0,12(sp)
    1fdc:	0030                	addi	a2,sp,8
    1fde:	fb01                	bnez	a4,1eee <main+0x75a>
    1fe0:	000a4603          	lbu	a2,0(s4)
    1fe4:	3200                	fld	fs0,32(a2)
    1fe6:	3164                	fld	fs1,224(a0)
    1fe8:	0100                	addi	s0,sp,128
    1fea:	0a4603fb          	0xa4603fb
    1fee:	0000                	unimp
    1ff0:	6e32                	flw	ft8,12(sp)
    1ff2:	0030                	addi	a2,sp,8
    1ff4:	fb01                	bnez	a4,1f04 <main+0x770>
    1ff6:	000a4603          	lbu	a2,0(s4)
    1ffa:	3200                	fld	fs0,32(a2)
    1ffc:	316e                	fld	ft2,248(sp)
    1ffe:	0100                	addi	s0,sp,128
    2000:	0a4603fb          	0xa4603fb
    2004:	0000                	unimp
    2006:	6e32                	flw	ft8,12(sp)
    2008:	0032                	0x32
    200a:	fb01                	bnez	a4,1f1a <main+0x786>
    200c:	000a4603          	lbu	a2,0(s4)
    2010:	3200                	fld	fs0,32(a2)
    2012:	3071                	jal	189e <main+0x10a>
    2014:	0100                	addi	s0,sp,128
    2016:	03fc                	addi	a5,sp,460
    2018:	0a46                	slli	s4,s4,0x11
    201a:	0000                	unimp
    201c:	7132                	flw	ft2,44(sp)
    201e:	0031                	c.addi	zero,12
    2020:	fc01                	bnez	s0,1f38 <main+0x7a4>
    2022:	000a4603          	lbu	a2,0(s4)
    2026:	3200                	fld	fs0,32(a2)
    2028:	0062                	0x62
    202a:	fd01                	bnez	a0,1f42 <main+0x7ae>
    202c:	000a4603          	lbu	a2,0(s4)
    2030:	3200                	fld	fs0,32(a2)
    2032:	6d62                	flw	fs10,24(sp)
    2034:	0100                	addi	s0,sp,128
    2036:	03fd                	addi	t2,t2,31
    2038:	0a46                	slli	s4,s4,0x11
    203a:	0000                	unimp
    203c:	7732                	flw	fa4,44(sp)
    203e:	c6010077          	0xc6010077
    2042:	dd04                	sw	s1,56(a0)
    2044:	000a                	0xa
    2046:	3300                	fld	fs0,32(a4)
    2048:	00000ec3          	fmadd.s	ft9,ft0,ft0,ft0,rne
    204c:	d234                	sw	a3,96(a2)
    204e:	0005                	c.addi	zero,1
    2050:	0100                	addi	s0,sp,128
    2052:	042d                	addi	s0,s0,11
    2054:	0a46                	slli	s4,s4,0x11
    2056:	0000                	unimp
    2058:	5f32                	lw	t5,44(sp)
    205a:	615f 0100 042d      	0x42d0100615f
    2060:	0a46                	slli	s4,s4,0x11
    2062:	0000                	unimp
    2064:	3300                	fld	fs0,32(a4)
    2066:	0f1d                	addi	t5,t5,7
    2068:	0000                	unimp
    206a:	cf34                	sw	a3,88(a4)
    206c:	0000                	unimp
    206e:	0100                	addi	s0,sp,128
    2070:	0439                	addi	s0,s0,14
    2072:	0a46                	slli	s4,s4,0x11
    2074:	0000                	unimp
    2076:	ca34                	sw	a3,80(a2)
    2078:	0000                	unimp
    207a:	0100                	addi	s0,sp,128
    207c:	0439                	addi	s0,s0,14
    207e:	0a46                	slli	s4,s4,0x11
    2080:	0000                	unimp
    2082:	8534                	0x8534
    2084:	0005                	c.addi	zero,1
    2086:	0100                	addi	s0,sp,128
    2088:	0439                	addi	s0,s0,14
    208a:	0a46                	slli	s4,s4,0x11
    208c:	0000                	unimp
    208e:	8034                	0x8034
    2090:	0005                	c.addi	zero,1
    2092:	0100                	addi	s0,sp,128
    2094:	0439                	addi	s0,s0,14
    2096:	0a46                	slli	s4,s4,0x11
    2098:	0000                	unimp
    209a:	2034                	fld	fa3,64(s0)
    209c:	01000007          	0x1000007
    20a0:	0439                	addi	s0,s0,14
    20a2:	0a46                	slli	s4,s4,0x11
    20a4:	0000                	unimp
    20a6:	1b34                	addi	a3,sp,440
    20a8:	01000007          	0x1000007
    20ac:	0439                	addi	s0,s0,14
    20ae:	0a46                	slli	s4,s4,0x11
    20b0:	0000                	unimp
    20b2:	5f32                	lw	t5,44(sp)
    20b4:	6d5f 0100 0439      	0x43901006d5f
    20ba:	0a46                	slli	s4,s4,0x11
    20bc:	0000                	unimp
    20be:	3300                	fld	fs0,32(a4)
    20c0:	00000f3b          	0xf3b
    20c4:	d234                	sw	a3,96(a2)
    20c6:	0005                	c.addi	zero,1
    20c8:	0100                	addi	s0,sp,128
    20ca:	0445                	addi	s0,s0,17
    20cc:	0a46                	slli	s4,s4,0x11
    20ce:	0000                	unimp
    20d0:	5f32                	lw	t5,44(sp)
    20d2:	615f 0100 0445      	0x4450100615f
    20d8:	0a46                	slli	s4,s4,0x11
    20da:	0000                	unimp
    20dc:	3300                	fld	fs0,32(a4)
    20de:	0f95                	addi	t6,t6,5
    20e0:	0000                	unimp
    20e2:	cf34                	sw	a3,88(a4)
    20e4:	0000                	unimp
    20e6:	0100                	addi	s0,sp,128
    20e8:	045e                	slli	s0,s0,0x17
    20ea:	0a46                	slli	s4,s4,0x11
    20ec:	0000                	unimp
    20ee:	ca34                	sw	a3,80(a2)
    20f0:	0000                	unimp
    20f2:	0100                	addi	s0,sp,128
    20f4:	045e                	slli	s0,s0,0x17
    20f6:	0a46                	slli	s4,s4,0x11
    20f8:	0000                	unimp
    20fa:	8534                	0x8534
    20fc:	0005                	c.addi	zero,1
    20fe:	0100                	addi	s0,sp,128
    2100:	045e                	slli	s0,s0,0x17
    2102:	0a46                	slli	s4,s4,0x11
    2104:	0000                	unimp
    2106:	8034                	0x8034
    2108:	0005                	c.addi	zero,1
    210a:	0100                	addi	s0,sp,128
    210c:	045e                	slli	s0,s0,0x17
    210e:	0a46                	slli	s4,s4,0x11
    2110:	0000                	unimp
    2112:	2034                	fld	fa3,64(s0)
    2114:	01000007          	0x1000007
    2118:	045e                	slli	s0,s0,0x17
    211a:	0a46                	slli	s4,s4,0x11
    211c:	0000                	unimp
    211e:	1b34                	addi	a3,sp,440
    2120:	01000007          	0x1000007
    2124:	045e                	slli	s0,s0,0x17
    2126:	0a46                	slli	s4,s4,0x11
    2128:	0000                	unimp
    212a:	5f32                	lw	t5,44(sp)
    212c:	6d5f 0100 045e      	0x45e01006d5f
    2132:	0a46                	slli	s4,s4,0x11
    2134:	0000                	unimp
    2136:	3300                	fld	fs0,32(a4)
    2138:	00000fef          	jal	t6,2138 <main+0x9a4>
    213c:	cf34                	sw	a3,88(a4)
    213e:	0000                	unimp
    2140:	0100                	addi	s0,sp,128
    2142:	0a460463          	beq	a2,tp,21ea <main+0xa56>
    2146:	0000                	unimp
    2148:	ca34                	sw	a3,80(a2)
    214a:	0000                	unimp
    214c:	0100                	addi	s0,sp,128
    214e:	0a460463          	beq	a2,tp,21f6 <main+0xa62>
    2152:	0000                	unimp
    2154:	8534                	0x8534
    2156:	0005                	c.addi	zero,1
    2158:	0100                	addi	s0,sp,128
    215a:	0a460463          	beq	a2,tp,2202 <main+0xa6e>
    215e:	0000                	unimp
    2160:	8034                	0x8034
    2162:	0005                	c.addi	zero,1
    2164:	0100                	addi	s0,sp,128
    2166:	0a460463          	beq	a2,tp,220e <main+0xa7a>
    216a:	0000                	unimp
    216c:	2034                	fld	fa3,64(s0)
    216e:	01000007          	0x1000007
    2172:	0a460463          	beq	a2,tp,221a <main+0xa86>
    2176:	0000                	unimp
    2178:	1b34                	addi	a3,sp,440
    217a:	01000007          	0x1000007
    217e:	0a460463          	beq	a2,tp,2226 <main+0xa92>
    2182:	0000                	unimp
    2184:	5f32                	lw	t5,44(sp)
    2186:	6d5f 0100 0463      	0x46301006d5f
    218c:	0a46                	slli	s4,s4,0x11
    218e:	0000                	unimp
    2190:	3300                	fld	fs0,32(a4)
    2192:	100d                	c.addi	zero,-29
    2194:	0000                	unimp
    2196:	d234                	sw	a3,96(a2)
    2198:	0005                	c.addi	zero,1
    219a:	0100                	addi	s0,sp,128
    219c:	0486                	slli	s1,s1,0x1
    219e:	0a46                	slli	s4,s4,0x11
    21a0:	0000                	unimp
    21a2:	5f32                	lw	t5,44(sp)
    21a4:	615f 0100 0486      	0x4860100615f
    21aa:	0a46                	slli	s4,s4,0x11
    21ac:	0000                	unimp
    21ae:	3300                	fld	fs0,32(a4)
    21b0:	101f 0000 5f32      	0x5f320000101f
    21b6:	785f 0100 0494      	0x4940100785f
    21bc:	0a46                	slli	s4,s4,0x11
    21be:	0000                	unimp
    21c0:	3500                	fld	fs0,40(a0)
    21c2:	6d32                	flw	fs10,12(sp)
    21c4:	0031                	c.addi	zero,12
    21c6:	a401                	j	23c6 <main+0xc32>
    21c8:	4604                	lw	s1,8(a2)
    21ca:	000a                	0xa
    21cc:	3200                	fld	fs0,32(a2)
    21ce:	306d                	jal	1a78 <main+0x2e4>
    21d0:	0100                	addi	s0,sp,128
    21d2:	04a4                	addi	s1,sp,584
    21d4:	0a46                	slli	s4,s4,0x11
    21d6:	0000                	unimp
    21d8:	00109033          	sll	zero,ra,ra
    21dc:	3400                	fld	fs0,40(s0)
    21de:	000000cf          	fnmadd.s	ft1,ft0,ft0,ft0,rne
    21e2:	af01                	j	28f2 <add+0x22>
    21e4:	4604                	lw	s1,8(a2)
    21e6:	000a                	0xa
    21e8:	3400                	fld	fs0,40(s0)
    21ea:	00ca                	slli	ra,ra,0x12
    21ec:	0000                	unimp
    21ee:	af01                	j	28fe <add+0x2e>
    21f0:	4604                	lw	s1,8(a2)
    21f2:	000a                	0xa
    21f4:	3400                	fld	fs0,40(s0)
    21f6:	0585                	addi	a1,a1,1
    21f8:	0000                	unimp
    21fa:	af01                	j	290a <add+0x3a>
    21fc:	4604                	lw	s1,8(a2)
    21fe:	000a                	0xa
    2200:	3400                	fld	fs0,40(s0)
    2202:	0580                	addi	s0,sp,704
    2204:	0000                	unimp
    2206:	af01                	j	2916 <add+0x46>
    2208:	4604                	lw	s1,8(a2)
    220a:	000a                	0xa
    220c:	3400                	fld	fs0,40(s0)
    220e:	0720                	addi	s0,sp,904
    2210:	0000                	unimp
    2212:	af01                	j	2922 <add+0x52>
    2214:	4604                	lw	s1,8(a2)
    2216:	000a                	0xa
    2218:	3400                	fld	fs0,40(s0)
    221a:	0000071b          	0x71b
    221e:	af01                	j	292e <add+0x5e>
    2220:	4604                	lw	s1,8(a2)
    2222:	000a                	0xa
    2224:	3200                	fld	fs0,32(a2)
    2226:	5f5f 006d af01      	0xaf01006d5f5f
    222c:	4604                	lw	s1,8(a2)
    222e:	000a                	0xa
    2230:	0000                	unimp
    2232:	0010f633          	and	a2,ra,ra
    2236:	3400                	fld	fs0,40(s0)
    2238:	04c1                	addi	s1,s1,16
    223a:	0000                	unimp
    223c:	b001                	j	1a3c <main+0x2a8>
    223e:	4604                	lw	s1,8(a2)
    2240:	000a                	0xa
    2242:	3400                	fld	fs0,40(s0)
    2244:	04c6                	slli	s1,s1,0x11
    2246:	0000                	unimp
    2248:	b001                	j	1a48 <main+0x2b4>
    224a:	4604                	lw	s1,8(a2)
    224c:	000a                	0xa
    224e:	3400                	fld	fs0,40(s0)
    2250:	000004cb          	fnmsub.s	fs1,ft0,ft0,ft0,rne
    2254:	b001                	j	1a54 <main+0x2c0>
    2256:	4604                	lw	s1,8(a2)
    2258:	000a                	0xa
    225a:	3400                	fld	fs0,40(s0)
    225c:	04d0                	addi	a2,sp,580
    225e:	0000                	unimp
    2260:	b001                	j	1a60 <main+0x2cc>
    2262:	4604                	lw	s1,8(a2)
    2264:	000a                	0xa
    2266:	3400                	fld	fs0,40(s0)
    2268:	030e                	slli	t1,t1,0x3
    226a:	0000                	unimp
    226c:	b001                	j	1a6c <main+0x2d8>
    226e:	4604                	lw	s1,8(a2)
    2270:	000a                	0xa
    2272:	3400                	fld	fs0,40(s0)
    2274:	03d1                	addi	t2,t2,20
    2276:	0000                	unimp
    2278:	b001                	j	1a78 <main+0x2e4>
    227a:	4604                	lw	s1,8(a2)
    227c:	000a                	0xa
    227e:	3400                	fld	fs0,40(s0)
    2280:	00000303          	lb	t1,0(zero) # 0 <buf.1743>
    2284:	b001                	j	1a84 <main+0x2f0>
    2286:	4604                	lw	s1,8(a2)
    2288:	000a                	0xa
    228a:	3400                	fld	fs0,40(s0)
    228c:	03cc                	addi	a1,sp,452
    228e:	0000                	unimp
    2290:	b001                	j	1a90 <main+0x2fc>
    2292:	4604                	lw	s1,8(a2)
    2294:	000a                	0xa
    2296:	0000                	unimp
    2298:	00110833          	add	a6,sp,ra
    229c:	3200                	fld	fs0,32(a2)
    229e:	5f5f 0078 b501      	0xb50100785f5f
    22a4:	4604                	lw	s1,8(a2)
    22a6:	000a                	0xa
    22a8:	0000                	unimp
    22aa:	3235                	jal	1bd6 <main+0x442>
    22ac:	5f5f 0078 bd01      	0xbd0100785f5f
    22b2:	4604                	lw	s1,8(a2)
    22b4:	000a                	0xa
    22b6:	0000                	unimp
    22b8:	0000                	unimp
    22ba:	0a5c040f          	0xa5c040f
    22be:	0000                	unimp
    22c0:	7800                	flw	fs0,48(s0)
    22c2:	0011                	c.addi	zero,4
    22c4:	0400                	addi	s0,sp,512
    22c6:	3300                	fld	fs0,32(a4)
    22c8:	0005                	c.addi	zero,1
    22ca:	0400                	addi	s0,sp,512
    22cc:	4f01                	li	t5,0
    22ce:	0006                	0x6
    22d0:	0c00                	addi	s0,sp,528
    22d2:	001c                	addi	a5,sp,0
    22d4:	0000                	unimp
    22d6:	00000507          	0x507
    22da:	320c                	fld	fa1,32(a2)
    22dc:	0000                	unimp
    22de:	0410                	addi	a2,sp,512
    22e0:	0000                	unimp
    22e2:	0938                	addi	a4,sp,152
    22e4:	0000                	unimp
    22e6:	0802                	slli	a6,a6,0x0
    22e8:	00026a07          	0x26a07
    22ec:	0300                	addi	s0,sp,384
    22ee:	0504                	addi	s1,sp,640
    22f0:	6e69                	lui	t3,0x1a
    22f2:	0074                	addi	a3,sp,12
    22f4:	0402                	slli	s0,s0,0x0
    22f6:	00027407          	0x27407
    22fa:	0200                	addi	s0,sp,256
    22fc:	0508                	addi	a0,sp,640
    22fe:	019d                	addi	gp,gp,7
    2300:	0000                	unimp
    2302:	1002                	0x1002
    2304:	ec04                	fsw	fs1,24(s0)
    2306:	0000                	unimp
    2308:	0200                	addi	s0,sp,256
    230a:	0601                	addi	a2,a2,0
    230c:	05a9                	addi	a1,a1,10
    230e:	0000                	unimp
    2310:	0102                	slli	sp,sp,0x0
    2312:	a708                	fsd	fa0,8(a4)
    2314:	0005                	c.addi	zero,1
    2316:	0200                	addi	s0,sp,256
    2318:	0502                	slli	a0,a0,0x0
    231a:	0000                	unimp
    231c:	0000                	unimp
    231e:	0202                	slli	tp,tp,0x0
    2320:	00028a07          	0x28a07
    2324:	0200                	addi	s0,sp,256
    2326:	0504                	addi	s1,sp,640
    2328:	01a2                	slli	gp,gp,0x8
    232a:	0000                	unimp
    232c:	0402                	slli	s0,s0,0x0
    232e:	00026f07          	0x26f07
    2332:	0400                	addi	s0,sp,512
    2334:	03c5                	addi	t2,t2,17
    2336:	0000                	unimp
    2338:	1002                	0x1002
    233a:	0064                	addi	s1,sp,12
    233c:	0000                	unimp
    233e:	e304                	fsw	fs1,0(a4)
    2340:	0004                	addi	s1,sp,0
    2342:	0200                	addi	s0,sp,256
    2344:	00002513          	slti	a0,zero,0
    2348:	0400                	addi	s0,sp,512
    234a:	00000623          	sb	zero,12(zero) # c <buf.1743+0xc>
    234e:	1f02                	slli	t5,t5,0x20
    2350:	0064                	addi	s1,sp,12
    2352:	0000                	unimp
    2354:	f504                	fsw	fs1,40(a0)
    2356:	03000003          	lb	zero,48(zero) # 30 <CL_SIZE+0x10>
    235a:	00002c07          	flw	fs8,0(zero) # 0 <buf.1743>
    235e:	0500                	addi	s0,sp,640
    2360:	02f6                	slli	t0,t0,0x1d
    2362:	0000                	unimp
    2364:	6504                	flw	fs1,8(a0)
    2366:	3301                	jal	2066 <main+0x8d2>
    2368:	0000                	unimp
    236a:	0600                	addi	s0,sp,768
    236c:	0504                	addi	s1,sp,640
    236e:	c94a                	sw	s2,144(sp)
    2370:	0000                	unimp
    2372:	0700                	addi	s0,sp,896
    2374:	02e1                	addi	t0,t0,24
    2376:	0000                	unimp
    2378:	4c05                	li	s8,1
    237a:	009e                	slli	ra,ra,0x7
    237c:	0000                	unimp
    237e:	00023c07          	fld	fs8,0(tp) # fffec000 <__C_STACK_TOP__+0xfffdc000>
    2382:	0500                	addi	s0,sp,640
    2384:	c94d                	beqz	a0,2436 <main+0xca2>
    2386:	0000                	unimp
    2388:	0000                	unimp
    238a:	4f08                	lw	a0,24(a4)
    238c:	0000                	unimp
    238e:	d900                	sw	s0,48(a0)
    2390:	0000                	unimp
    2392:	0900                	addi	s0,sp,144
    2394:	00000033          	add	zero,zero,zero
    2398:	080a0003          	lb	zero,128(s4)
    239c:	4705                	li	a4,1
    239e:	00fa                	slli	ra,ra,0x1e
    23a0:	0000                	unimp
    23a2:	00033c0b          	0x33c0b
    23a6:	0500                	addi	s0,sp,640
    23a8:	2c49                	jal	263a <main+0xea6>
    23aa:	0000                	unimp
    23ac:	0000                	unimp
    23ae:	0004d50b          	0x4d50b
    23b2:	0500                	addi	s0,sp,640
    23b4:	aa4e                	fsd	fs3,272(sp)
    23b6:	0000                	unimp
    23b8:	0400                	addi	s0,sp,512
    23ba:	0400                	addi	s0,sp,512
    23bc:	03ea                	slli	t2,t2,0x1a
    23be:	0000                	unimp
    23c0:	4f05                	li	t5,1
    23c2:	00d9                	addi	ra,ra,22
    23c4:	0000                	unimp
    23c6:	4404                	lw	s1,8(s0)
    23c8:	0004                	addi	s1,sp,0
    23ca:	0500                	addi	s0,sp,640
    23cc:	00009353          	fadd.s	ft6,ft1,ft0,rtz
    23d0:	0c00                	addi	s0,sp,528
    23d2:	0404                	addi	s1,sp,512
    23d4:	05ba                	slli	a1,a1,0xe
    23d6:	0000                	unimp
    23d8:	1606                	slli	a2,a2,0x21
    23da:	0000006b          	0x6b
    23de:	750d                	lui	a0,0xfffe3
    23e0:	18000003          	lb	zero,384(zero) # 180 <SIM_STOP+0x88>
    23e4:	2d06                	fld	fs10,64(sp)
    23e6:	0170                	addi	a2,sp,140
    23e8:	0000                	unimp
    23ea:	0007a30b          	0x7a30b
    23ee:	0600                	addi	s0,sp,768
    23f0:	0001702f          	0x1702f
    23f4:	0000                	unimp
    23f6:	5f0e                	lw	t5,224(sp)
    23f8:	3006006b          	0x3006006b
    23fc:	002c                	addi	a1,sp,8
    23fe:	0000                	unimp
    2400:	0b04                	addi	s1,sp,400
    2402:	04b2                	slli	s1,s1,0xc
    2404:	0000                	unimp
    2406:	3006                	fld	ft0,96(sp)
    2408:	002c                	addi	a1,sp,8
    240a:	0000                	unimp
    240c:	0b08                	addi	a0,sp,400
    240e:	01f9                	addi	gp,gp,30
    2410:	0000                	unimp
    2412:	3006                	fld	ft0,96(sp)
    2414:	002c                	addi	a1,sp,8
    2416:	0000                	unimp
    2418:	0b0c                	addi	a1,sp,400
    241a:	017f                	0x17f
    241c:	0000                	unimp
    241e:	3006                	fld	ft0,96(sp)
    2420:	002c                	addi	a1,sp,8
    2422:	0000                	unimp
    2424:	0e10                	addi	a2,sp,784
    2426:	785f 0600 7631      	0x76310600785f
    242c:	0001                	nop
    242e:	1400                	addi	s0,sp,544
    2430:	0f00                	addi	s0,sp,912
    2432:	1d04                	addi	s1,sp,688
    2434:	0001                	nop
    2436:	0800                	addi	s0,sp,16
    2438:	0112                	slli	sp,sp,0x4
    243a:	0000                	unimp
    243c:	0186                	slli	gp,gp,0x1
    243e:	0000                	unimp
    2440:	3309                	jal	2142 <main+0x9ae>
    2442:	0000                	unimp
    2444:	0000                	unimp
    2446:	0d00                	addi	s0,sp,656
    2448:	021f 0000 0624      	0x6240000021f
    244e:	ff35                	bnez	a4,23ca <main+0xc36>
    2450:	0001                	nop
    2452:	0b00                	addi	s0,sp,400
    2454:	0119                	addi	sp,sp,6
    2456:	0000                	unimp
    2458:	3706                	fld	fa4,96(sp)
    245a:	002c                	addi	a1,sp,8
    245c:	0000                	unimp
    245e:	0b00                	addi	s0,sp,400
    2460:	0000073f 002c3806 	0x2c38060000073f
    2468:	0000                	unimp
    246a:	0b04                	addi	s1,sp,400
    246c:	0135                	addi	sp,sp,13
    246e:	0000                	unimp
    2470:	3906                	fld	fs2,96(sp)
    2472:	002c                	addi	a1,sp,8
    2474:	0000                	unimp
    2476:	0b08                	addi	a0,sp,400
    2478:	0794                	addi	a3,sp,960
    247a:	0000                	unimp
    247c:	3a06                	fld	fs4,96(sp)
    247e:	002c                	addi	a1,sp,8
    2480:	0000                	unimp
    2482:	0b0c                	addi	a1,sp,400
    2484:	039f 0000 3b06      	0x3b060000039f
    248a:	002c                	addi	a1,sp,8
    248c:	0000                	unimp
    248e:	0b10                	addi	a2,sp,400
    2490:	0332                	slli	t1,t1,0xc
    2492:	0000                	unimp
    2494:	3c06                	fld	fs8,96(sp)
    2496:	002c                	addi	a1,sp,8
    2498:	0000                	unimp
    249a:	0b14                	addi	a3,sp,400
    249c:	05fa                	slli	a1,a1,0x1e
    249e:	0000                	unimp
    24a0:	3d06                	fld	fs10,96(sp)
    24a2:	002c                	addi	a1,sp,8
    24a4:	0000                	unimp
    24a6:	0b18                	addi	a4,sp,400
    24a8:	0000077b          	0x77b
    24ac:	3e06                	fld	ft8,96(sp)
    24ae:	002c                	addi	a1,sp,8
    24b0:	0000                	unimp
    24b2:	0b1c                	addi	a5,sp,400
    24b4:	0725                	addi	a4,a4,9
    24b6:	0000                	unimp
    24b8:	3f06                	fld	ft10,96(sp)
    24ba:	002c                	addi	a1,sp,8
    24bc:	0000                	unimp
    24be:	0020                	addi	s0,sp,8
    24c0:	5210                	lw	a2,32(a2)
    24c2:	0001                	nop
    24c4:	0800                	addi	s0,sp,16
    24c6:	0601                	addi	a2,a2,0
    24c8:	3f48                	fld	fa0,184(a4)
    24ca:	0002                	0x2
    24cc:	0b00                	addi	s0,sp,400
    24ce:	01ec                	addi	a1,sp,204
    24d0:	0000                	unimp
    24d2:	4906                	lw	s2,64(sp)
    24d4:	0000023f 04200b00 	0x4200b000000023f
    24dc:	0000                	unimp
    24de:	4a06                	lw	s4,64(sp)
    24e0:	0000023f 059e1180 	0x59e11800000023f
    24e8:	0000                	unimp
    24ea:	4c06                	lw	s8,64(sp)
    24ec:	0112                	slli	sp,sp,0x4
    24ee:	0000                	unimp
    24f0:	0100                	addi	s0,sp,128
    24f2:	7711                	lui	a4,0xfffe4
    24f4:	0001                	nop
    24f6:	0600                	addi	s0,sp,768
    24f8:	0001124f          	fnmadd.s	ft4,ft2,ft0,ft0,rtz
    24fc:	0400                	addi	s0,sp,512
    24fe:	0001                	nop
    2500:	1008                	addi	a0,sp,32
    2502:	0001                	nop
    2504:	4f00                	lw	s0,24(a4)
    2506:	0002                	0x2
    2508:	0900                	addi	s0,sp,144
    250a:	00000033          	add	zero,zero,zero
    250e:	001f a810 0003      	0x3a810001f
    2514:	9000                	0x9000
    2516:	0601                	addi	a2,a2,0
    2518:	00028d5b          	0x28d5b
    251c:	0b00                	addi	s0,sp,400
    251e:	000007a3          	sb	zero,15(zero) # f <buf.1743+0xf>
    2522:	5c06                	lw	s8,96(sp)
    2524:	028d                	addi	t0,t0,3
    2526:	0000                	unimp
    2528:	0b00                	addi	s0,sp,400
    252a:	00000493          	li	s1,0
    252e:	5d06                	lw	s10,96(sp)
    2530:	002c                	addi	a1,sp,8
    2532:	0000                	unimp
    2534:	0b04                	addi	s1,sp,400
    2536:	01f4                	addi	a3,sp,204
    2538:	0000                	unimp
    253a:	5f06                	lw	t5,96(sp)
    253c:	00000293          	li	t0,0
    2540:	0b08                	addi	a0,sp,400
    2542:	0152                	slli	sp,sp,0x14
    2544:	0000                	unimp
    2546:	6006                	flw	ft0,64(sp)
    2548:	01ff                	0x1ff
    254a:	0000                	unimp
    254c:	0088                	addi	a0,sp,64
    254e:	024f040f          	0x24f040f
    2552:	0000                	unimp
    2554:	a308                	fsd	fa0,0(a4)
    2556:	0002                	0x2
    2558:	a300                	fsd	fs0,0(a4)
    255a:	0002                	0x2
    255c:	0900                	addi	s0,sp,144
    255e:	00000033          	add	zero,zero,zero
    2562:	001f 040f 02a9      	0x2a9040f001f
    2568:	0000                	unimp
    256a:	0d12                	slli	s10,s10,0x4
    256c:	078d                	addi	a5,a5,3
    256e:	0000                	unimp
    2570:	0608                	addi	a0,sp,768
    2572:	0002cf73          	0x2cf73
    2576:	0b00                	addi	s0,sp,400
    2578:	0000012f          	0x12f
    257c:	7406                	flw	fs0,96(sp)
    257e:	000002cf          	fnmadd.s	ft5,ft0,ft0,ft0,rne
    2582:	0b00                	addi	s0,sp,400
    2584:	04f4                	addi	a3,sp,588
    2586:	0000                	unimp
    2588:	7506                	flw	fa0,96(sp)
    258a:	002c                	addi	a1,sp,8
    258c:	0000                	unimp
    258e:	0004                	addi	s1,sp,0
    2590:	004f040f          	0x4f040f
    2594:	0000                	unimp
    2596:	6f0d                	lui	t5,0x3
    2598:	0004                	addi	s1,sp,0
    259a:	6800                	flw	fs0,16(s0)
    259c:	b306                	fsd	ft1,416(sp)
    259e:	03ff                	0x3ff
    25a0:	0000                	unimp
    25a2:	5f0e                	lw	t5,224(sp)
    25a4:	0070                	addi	a2,sp,12
    25a6:	b406                	fsd	ft1,40(sp)
    25a8:	000002cf          	fnmadd.s	ft5,ft0,ft0,ft0,rne
    25ac:	0e00                	addi	s0,sp,784
    25ae:	725f 0600 2cb5      	0x2cb50600725f
    25b4:	0000                	unimp
    25b6:	0400                	addi	s0,sp,512
    25b8:	5f0e                	lw	t5,224(sp)
    25ba:	b6060077          	0xb6060077
    25be:	002c                	addi	a1,sp,8
    25c0:	0000                	unimp
    25c2:	0b08                	addi	a0,sp,400
    25c4:	0170                	addi	a2,sp,140
    25c6:	0000                	unimp
    25c8:	b706                	fsd	ft1,424(sp)
    25ca:	0056                	0x56
    25cc:	0000                	unimp
    25ce:	0b0c                	addi	a1,sp,400
    25d0:	0000024b          	fnmsub.s	ft4,ft0,ft0,ft0,rne
    25d4:	b806                	fsd	ft1,48(sp)
    25d6:	0056                	0x56
    25d8:	0000                	unimp
    25da:	0e0e                	slli	t3,t3,0x3
    25dc:	625f 0066 b906      	0xb9060066625f
    25e2:	02aa                	slli	t0,t0,0xa
    25e4:	0000                	unimp
    25e6:	0b10                	addi	a2,sp,400
    25e8:	00d4                	addi	a3,sp,68
    25ea:	0000                	unimp
    25ec:	ba06                	fsd	ft1,304(sp)
    25ee:	002c                	addi	a1,sp,8
    25f0:	0000                	unimp
    25f2:	0b18                	addi	a4,sp,400
    25f4:	0160                	addi	s0,sp,140
    25f6:	0000                	unimp
    25f8:	c106                	sw	ra,128(sp)
    25fa:	0110                	addi	a2,sp,128
    25fc:	0000                	unimp
    25fe:	0b1c                	addi	a5,sp,400
    2600:	00000407          	0x407
    2604:	c306                	sw	ra,132(sp)
    2606:	056c                	addi	a1,sp,652
    2608:	0000                	unimp
    260a:	0b20                	addi	s0,sp,408
    260c:	0000032b          	0x32b
    2610:	c506                	sw	ra,136(sp)
    2612:	0000059b          	0x59b
    2616:	0b24                	addi	s1,sp,408
    2618:	04dd                	addi	s1,s1,23
    261a:	0000                	unimp
    261c:	c806                	sw	ra,16(sp)
    261e:	000005bf 01220b28 	0x1220b28000005bf
    2626:	0000                	unimp
    2628:	c906                	sw	ra,144(sp)
    262a:	05d9                	addi	a1,a1,22
    262c:	0000                	unimp
    262e:	0e2c                	addi	a1,sp,792
    2630:	755f 0062 cc06      	0xcc060062755f
    2636:	02aa                	slli	t0,t0,0xa
    2638:	0000                	unimp
    263a:	0e30                	addi	a2,sp,792
    263c:	755f 0070 cd06      	0xcd060070755f
    2642:	000002cf          	fnmadd.s	ft5,ft0,ft0,ft0,rne
    2646:	0e38                	addi	a4,sp,792
    2648:	755f 0072 ce06      	0xce060072755f
    264e:	002c                	addi	a1,sp,8
    2650:	0000                	unimp
    2652:	0b3c                	addi	a5,sp,408
    2654:	0129                	addi	sp,sp,10
    2656:	0000                	unimp
    2658:	d106                	sw	ra,160(sp)
    265a:	05df 0000 0b40      	0xb40000005df
    2660:	070d                	addi	a4,a4,3
    2662:	0000                	unimp
    2664:	d206                	sw	ra,36(sp)
    2666:	000005ef          	jal	a1,2666 <main+0xed2>
    266a:	6c5f0e43          	0x6c5f0e43
    266e:	0062                	0x62
    2670:	d506                	sw	ra,168(sp)
    2672:	02aa                	slli	t0,t0,0xa
    2674:	0000                	unimp
    2676:	0b44                	addi	s1,sp,404
    2678:	000004eb          	0x4eb
    267c:	d806                	sw	ra,48(sp)
    267e:	002c                	addi	a1,sp,8
    2680:	0000                	unimp
    2682:	0b4c                	addi	a1,sp,404
    2684:	036d                	addi	t1,t1,27
    2686:	0000                	unimp
    2688:	d906                	sw	ra,176(sp)
    268a:	0072                	0x72
    268c:	0000                	unimp
    268e:	0b50                	addi	a2,sp,404
    2690:	00a4                	addi	s1,sp,72
    2692:	0000                	unimp
    2694:	dc06                	sw	ra,56(sp)
    2696:	041d                	addi	s0,s0,7
    2698:	0000                	unimp
    269a:	0b54                	addi	a3,sp,404
    269c:	02fd                	addi	t0,t0,31
    269e:	0000                	unimp
    26a0:	e006                	fsw	ft1,0(sp)
    26a2:	0105                	addi	sp,sp,1
    26a4:	0000                	unimp
    26a6:	0b58                	addi	a4,sp,404
    26a8:	00000233          	add	tp,zero,zero
    26ac:	e206                	fsw	ft1,4(sp)
    26ae:	00fa                	slli	ra,ra,0x1e
    26b0:	0000                	unimp
    26b2:	0b5c                	addi	a5,sp,404
    26b4:	044d                	addi	s0,s0,19
    26b6:	0000                	unimp
    26b8:	e306                	fsw	ft1,132(sp)
    26ba:	002c                	addi	a1,sp,8
    26bc:	0000                	unimp
    26be:	0064                	addi	s1,sp,12
    26c0:	00008813          	mv	a6,ra
    26c4:	1d00                	addi	s0,sp,688
    26c6:	0004                	addi	s1,sp,0
    26c8:	1400                	addi	s0,sp,544
    26ca:	041d                	addi	s0,s0,7
    26cc:	0000                	unimp
    26ce:	1014                	addi	a3,sp,32
    26d0:	0001                	nop
    26d2:	1400                	addi	s0,sp,544
    26d4:	055a                	slli	a0,a0,0x16
    26d6:	0000                	unimp
    26d8:	2c14                	fld	fa3,24(s0)
    26da:	0000                	unimp
    26dc:	0000                	unimp
    26de:	0428040f          	0x428040f
    26e2:	0000                	unimp
    26e4:	1d15                	addi	s10,s10,-27
    26e6:	0004                	addi	s1,sp,0
    26e8:	1600                	addi	s0,sp,800
    26ea:	04ba                	slli	s1,s1,0xe
    26ec:	0000                	unimp
    26ee:	0428                	addi	a0,sp,520
    26f0:	3806                	fld	fa6,96(sp)
    26f2:	5a02                	lw	s4,32(sp)
    26f4:	0005                	c.addi	zero,1
    26f6:	1700                	addi	s0,sp,928
    26f8:	043d                	addi	s0,s0,15
    26fa:	0000                	unimp
    26fc:	3a06                	fld	fs4,96(sp)
    26fe:	2c02                	fld	fs8,0(sp)
    2700:	0000                	unimp
    2702:	0000                	unimp
    2704:	00060a17          	auipc	s4,0x60
    2708:	0600                	addi	s0,sp,768
    270a:	0646023f 17040000 	0x170400000646023f
    2712:	05f2                	slli	a1,a1,0x1c
    2714:	0000                	unimp
    2716:	3f06                	fld	ft10,96(sp)
    2718:	4602                	lw	a2,0(sp)
    271a:	0006                	0x6
    271c:	0800                	addi	s0,sp,16
    271e:	0001ff17          	auipc	t5,0x1f
    2722:	0600                	addi	s0,sp,768
    2724:	0646023f 170c0000 	0x170c00000646023f
    272c:	048e                	slli	s1,s1,0x3
    272e:	0000                	unimp
    2730:	4106                	lw	sp,64(sp)
    2732:	2c02                	fld	fs8,0(sp)
    2734:	0000                	unimp
    2736:	1000                	addi	s0,sp,32
    2738:	00007317          	auipc	t1,0x7
    273c:	0600                	addi	s0,sp,768
    273e:	0242                	slli	tp,tp,0x10
    2740:	0828                	addi	a0,sp,24
    2742:	0000                	unimp
    2744:	1714                	addi	a3,sp,928
    2746:	0611                	addi	a2,a2,4
    2748:	0000                	unimp
    274a:	4406                	lw	s0,64(sp)
    274c:	2c02                	fld	fs8,0(sp)
    274e:	0000                	unimp
    2750:	3000                	fld	fs0,32(s0)
    2752:	00049817          	auipc	a6,0x49
    2756:	0600                	addi	s0,sp,768
    2758:	0245                	addi	tp,tp,17
    275a:	0590                	addi	a2,sp,704
    275c:	0000                	unimp
    275e:	1734                	addi	a3,sp,936
    2760:	03ba                	slli	t2,t2,0xe
    2762:	0000                	unimp
    2764:	4706                	lw	a4,64(sp)
    2766:	2c02                	fld	fs8,0(sp)
    2768:	0000                	unimp
    276a:	3800                	fld	fs0,48(s0)
    276c:	0004a817          	auipc	a6,0x4a
    2770:	0600                	addi	s0,sp,768
    2772:	0249                	addi	tp,tp,18
    2774:	00000843          	fmadd.s	fa6,ft0,ft0,ft0,rne
    2778:	173c                	addi	a5,sp,936
    277a:	02d9                	addi	t0,t0,22
    277c:	0000                	unimp
    277e:	4c06                	lw	s8,64(sp)
    2780:	7002                	flw	ft0,32(sp)
    2782:	0001                	nop
    2784:	4000                	lw	s0,0(s0)
    2786:	00018b17          	auipc	s6,0x18
    278a:	0600                	addi	s0,sp,768
    278c:	024d                	addi	tp,tp,19
    278e:	002c                	addi	a1,sp,8
    2790:	0000                	unimp
    2792:	1744                	addi	s1,sp,932
    2794:	0776                	slli	a4,a4,0x1d
    2796:	0000                	unimp
    2798:	4e06                	lw	t3,64(sp)
    279a:	7002                	flw	ft0,32(sp)
    279c:	0001                	nop
    279e:	4800                	lw	s0,16(s0)
    27a0:	0003d617          	auipc	a2,0x3d
    27a4:	0600                	addi	s0,sp,768
    27a6:	0849024f          	fnmadd.s	ft4,fs2,ft4,ft1,rne
    27aa:	0000                	unimp
    27ac:	174c                	addi	a1,sp,932
    27ae:	00000243          	fmadd.s	ft4,ft0,ft0,ft0,rne
    27b2:	5206                	lw	tp,96(sp)
    27b4:	2c02                	fld	fs8,0(sp)
    27b6:	0000                	unimp
    27b8:	5000                	lw	s0,32(s0)
    27ba:	0001b817          	auipc	a6,0x1b
    27be:	0600                	addi	s0,sp,768
    27c0:	055a0253          	0x55a0253
    27c4:	0000                	unimp
    27c6:	1754                	addi	a3,sp,932
    27c8:	0436                	slli	s0,s0,0xd
    27ca:	0000                	unimp
    27cc:	7606                	flw	fa2,96(sp)
    27ce:	0602                	slli	a2,a2,0x0
    27d0:	0008                	addi	a0,sp,0
    27d2:	5800                	lw	s0,48(s0)
    27d4:	a818                	fsd	fa4,16(s0)
    27d6:	06000003          	lb	zero,96(zero) # 60 <buflen.1744+0x20>
    27da:	027a                	slli	tp,tp,0x1e
    27dc:	028d                	addi	t0,t0,3
    27de:	0000                	unimp
    27e0:	0148                	addi	a0,sp,132
    27e2:	b718                	fsd	fa4,40(a4)
    27e4:	0002                	0x2
    27e6:	0600                	addi	s0,sp,768
    27e8:	024f027b          	0x24f027b
    27ec:	0000                	unimp
    27ee:	014c                	addi	a1,sp,132
    27f0:	3618                	fld	fa4,40(a2)
    27f2:	0006                	0x6
    27f4:	0600                	addi	s0,sp,768
    27f6:	027f                	0x27f
    27f8:	085a                	slli	a6,a6,0x16
    27fa:	0000                	unimp
    27fc:	02dc                	addi	a5,sp,324
    27fe:	6818                	flw	fa4,16(s0)
    2800:	0001                	nop
    2802:	0600                	addi	s0,sp,768
    2804:	0284                	addi	s1,sp,320
    2806:	0000060b          	0x60b
    280a:	02e0                	addi	s0,sp,332
    280c:	4d18                	lw	a4,24(a0)
    280e:	0001                	nop
    2810:	0600                	addi	s0,sp,768
    2812:	0285                	addi	t0,t0,1
    2814:	0866                	slli	a6,a6,0x19
    2816:	0000                	unimp
    2818:	02ec                	addi	a1,sp,332
    281a:	0f00                	addi	s0,sp,912
    281c:	6004                	flw	fs1,0(s0)
    281e:	0005                	c.addi	zero,1
    2820:	0200                	addi	s0,sp,256
    2822:	0801                	addi	a6,a6,0
    2824:	05b0                	addi	a2,sp,712
    2826:	0000                	unimp
    2828:	6015                	0x6015
    282a:	0005                	c.addi	zero,1
    282c:	0f00                	addi	s0,sp,912
    282e:	ff04                	fsw	fs1,56(a4)
    2830:	13000003          	lb	zero,304(zero) # 130 <SIM_STOP+0x38>
    2834:	0088                	addi	a0,sp,64
    2836:	0000                	unimp
    2838:	0590                	addi	a2,sp,704
    283a:	0000                	unimp
    283c:	1d14                	addi	a3,sp,688
    283e:	0004                	addi	s1,sp,0
    2840:	1400                	addi	s0,sp,544
    2842:	0110                	addi	a2,sp,128
    2844:	0000                	unimp
    2846:	9014                	0x9014
    2848:	0005                	c.addi	zero,1
    284a:	1400                	addi	s0,sp,544
    284c:	002c                	addi	a1,sp,8
    284e:	0000                	unimp
    2850:	0f00                	addi	s0,sp,912
    2852:	6704                	flw	fs1,8(a4)
    2854:	0005                	c.addi	zero,1
    2856:	1500                	addi	s0,sp,672
    2858:	0590                	addi	a2,sp,704
    285a:	0000                	unimp
    285c:	0572040f          	0x572040f
    2860:	0000                	unimp
    2862:	00007d13          	andi	s10,zero,0
    2866:	bf00                	fsd	fs0,56(a4)
    2868:	0005                	c.addi	zero,1
    286a:	1400                	addi	s0,sp,544
    286c:	041d                	addi	s0,s0,7
    286e:	0000                	unimp
    2870:	1014                	addi	a3,sp,32
    2872:	0001                	nop
    2874:	1400                	addi	s0,sp,544
    2876:	007d                	c.addi	zero,31
    2878:	0000                	unimp
    287a:	2c14                	fld	fa3,24(s0)
    287c:	0000                	unimp
    287e:	0000                	unimp
    2880:	05a1040f          	0x5a1040f
    2884:	0000                	unimp
    2886:	00002c13          	slti	s8,zero,0
    288a:	d900                	sw	s0,48(a0)
    288c:	0005                	c.addi	zero,1
    288e:	1400                	addi	s0,sp,544
    2890:	041d                	addi	s0,s0,7
    2892:	0000                	unimp
    2894:	1014                	addi	a3,sp,32
    2896:	0001                	nop
    2898:	0000                	unimp
    289a:	05c5040f          	0x5c5040f
    289e:	0000                	unimp
    28a0:	4f08                	lw	a0,24(a4)
    28a2:	0000                	unimp
    28a4:	ef00                	fsw	fs0,24(a4)
    28a6:	0005                	c.addi	zero,1
    28a8:	0900                	addi	s0,sp,144
    28aa:	00000033          	add	zero,zero,zero
    28ae:	0002                	0x2
    28b0:	4f08                	lw	a0,24(a4)
    28b2:	0000                	unimp
    28b4:	ff00                	fsw	fs0,56(a4)
    28b6:	0005                	c.addi	zero,1
    28b8:	0900                	addi	s0,sp,144
    28ba:	00000033          	add	zero,zero,zero
    28be:	0000                	unimp
    28c0:	8405                	srai	s0,s0,0x1
    28c2:	0001                	nop
    28c4:	0600                	addi	s0,sp,768
    28c6:	011d                	addi	sp,sp,7
    28c8:	02d5                	addi	t0,t0,21
    28ca:	0000                	unimp
    28cc:	0419                	addi	s0,s0,6
    28ce:	0006                	0x6
    28d0:	0c00                	addi	s0,sp,528
    28d2:	2106                	fld	ft2,64(sp)
    28d4:	4001                	0x4001
    28d6:	0006                	0x6
    28d8:	1700                	addi	s0,sp,928
    28da:	000007a3          	sb	zero,15(zero) # f <buf.1743+0xf>
    28de:	2306                	fld	ft6,64(sp)
    28e0:	4001                	0x4001
    28e2:	0006                	0x6
    28e4:	0000                	unimp
    28e6:	00026317          	auipc	t1,0x26
    28ea:	0600                	addi	s0,sp,768
    28ec:	0124                	addi	s1,sp,136
    28ee:	002c                	addi	a1,sp,8
    28f0:	0000                	unimp
    28f2:	1704                	addi	s1,sp,928
    28f4:	0455                	addi	s0,s0,21
    28f6:	0000                	unimp
    28f8:	2506                	fld	fa0,64(sp)
    28fa:	4601                	li	a2,0
    28fc:	0006                	0x6
    28fe:	0800                	addi	s0,sp,16
    2900:	0f00                	addi	s0,sp,912
    2902:	0b04                	addi	s1,sp,400
    2904:	0006                	0x6
    2906:	0f00                	addi	s0,sp,912
    2908:	ff04                	fsw	fs1,56(a4)
    290a:	0005                	c.addi	zero,1
    290c:	1900                	addi	s0,sp,176
    290e:	0000006b          	0x6b
    2912:	060e                	slli	a2,a2,0x3
    2914:	013d                	addi	sp,sp,15
    2916:	0681                	addi	a3,a3,0
    2918:	0000                	unimp
    291a:	00056e17          	auipc	t3,0x56
    291e:	0600                	addi	s0,sp,768
    2920:	013e                	slli	sp,sp,0xf
    2922:	0681                	addi	a3,a3,0
    2924:	0000                	unimp
    2926:	1700                	addi	s0,sp,928
    2928:	0308                	addi	a0,sp,384
    292a:	0000                	unimp
    292c:	3f06                	fld	ft10,96(sp)
    292e:	8101                	srli	a0,a0,0x0
    2930:	0006                	0x6
    2932:	0600                	addi	s0,sp,768
    2934:	0005b517          	auipc	a0,0x5b
    2938:	0600                	addi	s0,sp,768
    293a:	0140                	addi	s0,sp,132
    293c:	005d                	c.addi	zero,23
    293e:	0000                	unimp
    2940:	000c                	addi	a1,sp,0
    2942:	5d08                	lw	a0,56(a0)
    2944:	0000                	unimp
    2946:	9100                	0x9100
    2948:	0006                	0x6
    294a:	0900                	addi	s0,sp,144
    294c:	00000033          	add	zero,zero,zero
    2950:	0002                	0x2
    2952:	d01a                	sw	t1,32(sp)
    2954:	5706                	lw	a4,96(sp)
    2956:	9202                	jalr	tp
    2958:	17000007          	0x17000007
    295c:	0344                	addi	s1,sp,388
    295e:	0000                	unimp
    2960:	5906                	lw	s2,96(sp)
    2962:	3302                	fld	ft6,32(sp)
    2964:	0000                	unimp
    2966:	0000                	unimp
    2968:	00058a17          	auipc	s4,0x58
    296c:	0600                	addi	s0,sp,768
    296e:	025a                	slli	tp,tp,0x16
    2970:	055a                	slli	a0,a0,0x16
    2972:	0000                	unimp
    2974:	1704                	addi	s1,sp,928
    2976:	02cc                	addi	a1,sp,324
    2978:	0000                	unimp
    297a:	5b06                	lw	s6,96(sp)
    297c:	9202                	jalr	tp
    297e:	08000007          	0x8000007
    2982:	00073017          	auipc	zero,0x73
    2986:	0600                	addi	s0,sp,768
    2988:	025c                	addi	a5,sp,260
    298a:	0186                	slli	gp,gp,0x1
    298c:	0000                	unimp
    298e:	1724                	addi	s1,sp,936
    2990:	00000207          	0x207
    2994:	5d06                	lw	s10,96(sp)
    2996:	2c02                	fld	fs8,0(sp)
    2998:	0000                	unimp
    299a:	4800                	lw	s0,16(s0)
    299c:	00079e17          	auipc	t3,0x79
    29a0:	0600                	addi	s0,sp,768
    29a2:	025e                	slli	tp,tp,0x17
    29a4:	0025                	c.addi	zero,9
    29a6:	0000                	unimp
    29a8:	1750                	addi	a2,sp,932
    29aa:	0748                	addi	a0,sp,900
    29ac:	0000                	unimp
    29ae:	5f06                	lw	t5,96(sp)
    29b0:	4c02                	lw	s8,0(sp)
    29b2:	0006                	0x6
    29b4:	5800                	lw	s0,48(s0)
    29b6:	00048117          	auipc	sp,0x48
    29ba:	0600                	addi	s0,sp,768
    29bc:	0260                	addi	s0,sp,268
    29be:	00fa                	slli	ra,ra,0x1e
    29c0:	0000                	unimp
    29c2:	1768                	addi	a0,sp,940
    29c4:	0768                	addi	a0,sp,908
    29c6:	0000                	unimp
    29c8:	6106                	flw	ft2,64(sp)
    29ca:	fa02                	fsw	ft0,52(sp)
    29cc:	0000                	unimp
    29ce:	7000                	flw	fs0,32(s0)
    29d0:	00013f17          	auipc	t5,0x13
    29d4:	0600                	addi	s0,sp,768
    29d6:	0262                	slli	tp,tp,0x18
    29d8:	00fa                	slli	ra,ra,0x1e
    29da:	0000                	unimp
    29dc:	1778                	addi	a4,sp,940
    29de:	062c                	addi	a1,sp,776
    29e0:	0000                	unimp
    29e2:	6306                	flw	ft6,64(sp)
    29e4:	a202                	fsd	ft0,256(sp)
    29e6:	80000007          	0x80000007
    29ea:	0002c017          	auipc	zero,0x2c
    29ee:	0600                	addi	s0,sp,768
    29f0:	0264                	addi	s1,sp,268
    29f2:	07b2                	slli	a5,a5,0xc
    29f4:	0000                	unimp
    29f6:	1788                	addi	a0,sp,992
    29f8:	00000097          	auipc	ra,0x0
    29fc:	6506                	flw	fa0,64(sp)
    29fe:	2c02                	fld	fs8,0(sp)
    2a00:	0000                	unimp
    2a02:	a000                	fsd	fs0,0(s0)
    2a04:	0001d117          	auipc	sp,0x1d
    2a08:	0600                	addi	s0,sp,768
    2a0a:	0266                	slli	tp,tp,0x19
    2a0c:	00fa                	slli	ra,ra,0x1e
    2a0e:	0000                	unimp
    2a10:	17a4                	addi	s1,sp,1000
    2a12:	0102                	slli	sp,sp,0x0
    2a14:	0000                	unimp
    2a16:	6706                	flw	fa4,64(sp)
    2a18:	fa02                	fsw	ft0,52(sp)
    2a1a:	0000                	unimp
    2a1c:	ac00                	fsd	fs0,24(s0)
    2a1e:	0001c017          	auipc	zero,0x1c
    2a22:	0600                	addi	s0,sp,768
    2a24:	0268                	addi	a0,sp,268
    2a26:	00fa                	slli	ra,ra,0x1e
    2a28:	0000                	unimp
    2a2a:	17b4                	addi	a3,sp,1000
    2a2c:	00aa                	slli	ra,ra,0xa
    2a2e:	0000                	unimp
    2a30:	6906                	flw	fs2,64(sp)
    2a32:	fa02                	fsw	ft0,52(sp)
    2a34:	0000                	unimp
    2a36:	bc00                	fsd	fs0,56(s0)
    2a38:	0000b917          	auipc	s2,0xb
    2a3c:	0600                	addi	s0,sp,768
    2a3e:	026a                	slli	tp,tp,0x1a
    2a40:	00fa                	slli	ra,ra,0x1e
    2a42:	0000                	unimp
    2a44:	17c4                	addi	s1,sp,996
    2a46:	0000043b          	0x43b
    2a4a:	6b06                	flw	fs6,64(sp)
    2a4c:	2c02                	fld	fs8,0(sp)
    2a4e:	0000                	unimp
    2a50:	cc00                	sw	s0,24(s0)
    2a52:	0800                	addi	s0,sp,16
    2a54:	0560                	addi	s0,sp,652
    2a56:	0000                	unimp
    2a58:	07a2                	slli	a5,a5,0x8
    2a5a:	0000                	unimp
    2a5c:	3309                	jal	275e <main+0xfca>
    2a5e:	0000                	unimp
    2a60:	1900                	addi	s0,sp,176
    2a62:	0800                	addi	s0,sp,16
    2a64:	0560                	addi	s0,sp,652
    2a66:	0000                	unimp
    2a68:	07b2                	slli	a5,a5,0xc
    2a6a:	0000                	unimp
    2a6c:	3309                	jal	276e <main+0xfda>
    2a6e:	0000                	unimp
    2a70:	0700                	addi	s0,sp,896
    2a72:	0800                	addi	s0,sp,16
    2a74:	0560                	addi	s0,sp,652
    2a76:	0000                	unimp
    2a78:	07c2                	slli	a5,a5,0x10
    2a7a:	0000                	unimp
    2a7c:	3309                	jal	277e <main+0xfea>
    2a7e:	0000                	unimp
    2a80:	1700                	addi	s0,sp,928
    2a82:	1a00                	addi	s0,sp,304
    2a84:	06f0                	addi	a2,sp,844
    2a86:	0270                	addi	a2,sp,268
    2a88:	07e6                	slli	a5,a5,0x19
    2a8a:	0000                	unimp
    2a8c:	0002e717          	auipc	a4,0x2e
    2a90:	0600                	addi	s0,sp,768
    2a92:	07e60273          	0x7e60273
    2a96:	0000                	unimp
    2a98:	1700                	addi	s0,sp,928
    2a9a:	0216                	slli	tp,tp,0x5
    2a9c:	0000                	unimp
    2a9e:	7406                	flw	fs0,96(sp)
    2aa0:	f602                	fsw	ft0,44(sp)
    2aa2:	78000007          	0x78000007
    2aa6:	0800                	addi	s0,sp,16
    2aa8:	000002cf          	fnmadd.s	ft5,ft0,ft0,ft0,rne
    2aac:	07f6                	slli	a5,a5,0x1d
    2aae:	0000                	unimp
    2ab0:	3309                	jal	27b2 <main+0x101e>
    2ab2:	0000                	unimp
    2ab4:	1d00                	addi	s0,sp,688
    2ab6:	0800                	addi	s0,sp,16
    2ab8:	00000033          	add	zero,zero,zero
    2abc:	0806                	slli	a6,a6,0x1
    2abe:	0000                	unimp
    2ac0:	3309                	jal	27c2 <main+0x102e>
    2ac2:	0000                	unimp
    2ac4:	1d00                	addi	s0,sp,688
    2ac6:	1b00                	addi	s0,sp,432
    2ac8:	06f0                	addi	a2,sp,844
    2aca:	0255                	addi	tp,tp,21
    2acc:	0828                	addi	a0,sp,24
    2ace:	0000                	unimp
    2ad0:	ba1c                	fsd	fa5,48(a2)
    2ad2:	0004                	addi	s1,sp,0
    2ad4:	0600                	addi	s0,sp,768
    2ad6:	026c                	addi	a1,sp,268
    2ad8:	0691                	addi	a3,a3,4
    2ada:	0000                	unimp
    2adc:	131c                	addi	a5,sp,416
    2ade:	06000007          	0x6000007
    2ae2:	0275                	addi	tp,tp,29
    2ae4:	07c2                	slli	a5,a5,0x10
    2ae6:	0000                	unimp
    2ae8:	0800                	addi	s0,sp,16
    2aea:	0560                	addi	s0,sp,652
    2aec:	0000                	unimp
    2aee:	0838                	addi	a4,sp,24
    2af0:	0000                	unimp
    2af2:	3309                	jal	27f4 <main+0x1060>
    2af4:	0000                	unimp
    2af6:	1800                	addi	s0,sp,48
    2af8:	1d00                	addi	s0,sp,688
    2afa:	00000843          	fmadd.s	fa6,ft0,ft0,ft0,rne
    2afe:	1d14                	addi	a3,sp,688
    2b00:	0004                	addi	s1,sp,0
    2b02:	0000                	unimp
    2b04:	0838040f          	0x838040f
    2b08:	0000                	unimp
    2b0a:	0170040f          	0x170040f
    2b0e:	0000                	unimp
    2b10:	5a1d                	li	s4,-25
    2b12:	0008                	addi	a0,sp,0
    2b14:	1400                	addi	s0,sp,544
    2b16:	002c                	addi	a1,sp,8
    2b18:	0000                	unimp
    2b1a:	0f00                	addi	s0,sp,912
    2b1c:	6004                	flw	fs1,0(s0)
    2b1e:	0008                	addi	a0,sp,0
    2b20:	0f00                	addi	s0,sp,912
    2b22:	4f04                	lw	s1,24(a4)
    2b24:	0008                	addi	a0,sp,0
    2b26:	0800                	addi	s0,sp,16
    2b28:	05ff                	0x5ff
    2b2a:	0000                	unimp
    2b2c:	0876                	slli	a6,a6,0x1d
    2b2e:	0000                	unimp
    2b30:	3309                	jal	2832 <main+0x109e>
    2b32:	0000                	unimp
    2b34:	0200                	addi	s0,sp,256
    2b36:	1e00                	addi	s0,sp,816
    2b38:	05de                	slli	a1,a1,0x17
    2b3a:	0000                	unimp
    2b3c:	fd06                	fsw	ft1,184(sp)
    2b3e:	1d02                	slli	s10,s10,0x20
    2b40:	0004                	addi	s1,sp,0
    2b42:	1e00                	addi	s0,sp,816
    2b44:	000005d7          	0x5d7
    2b48:	fe06                	fsw	ft1,60(sp)
    2b4a:	2302                	fld	ft6,0(sp)
    2b4c:	0004                	addi	s1,sp,0
    2b4e:	0800                	addi	s0,sp,16
    2b50:	0596                	slli	a1,a1,0x5
    2b52:	0000                	unimp
    2b54:	0899                	addi	a7,a7,6
    2b56:	0000                	unimp
    2b58:	001f 8e15 0008      	0x88e15001f
    2b5e:	2000                	fld	fs0,0(s0)
    2b60:	000001ab          	0x1ab
    2b64:	08991407          	0x8991407
    2b68:	0000                	unimp
    2b6a:	7720                	flw	fs0,104(a4)
    2b6c:	0004                	addi	s1,sp,0
    2b6e:	0700                	addi	s0,sp,896
    2b70:	2c15                	jal	2da4 <__moddi3+0x424>
    2b72:	0000                	unimp
    2b74:	0f00                	addi	s0,sp,912
    2b76:	ba04                	fsd	fs1,48(a2)
    2b78:	0008                	addi	a0,sp,0
    2b7a:	1300                	addi	s0,sp,416
    2b7c:	002c                	addi	a1,sp,8
    2b7e:	0000                	unimp
    2b80:	08ce                	slli	a7,a7,0x13
    2b82:	0000                	unimp
    2b84:	ce14                	sw	a3,24(a2)
    2b86:	0008                	addi	a0,sp,0
    2b88:	1400                	addi	s0,sp,544
    2b8a:	08ce                	slli	a7,a7,0x13
    2b8c:	0000                	unimp
    2b8e:	0f00                	addi	s0,sp,912
    2b90:	d404                	sw	s1,40(s0)
    2b92:	0008                	addi	a0,sp,0
    2b94:	2100                	fld	fs0,0(a0)
    2b96:	b020                	fsd	fs0,96(s0)
    2b98:	08000003          	lb	zero,128(zero) # 1ea9e <__C_STACK_TOP__+0xea9e>
    2b9c:	5a5f 0005 2000      	0x200000055a5f
    2ba2:	02ee                	slli	t0,t0,0x1b
    2ba4:	0000                	unimp
    2ba6:	1009                	c.addi	zero,-30
    2ba8:	000008eb          	0x8eb
    2bac:	055a040f          	0x55a040f
    2bb0:	0000                	unimp
    2bb2:	b320                	fsd	fs0,96(a4)
    2bb4:	09000003          	lb	zero,144(zero) # 90 <buflen.1744+0x50>
    2bb8:	5ad8                	lw	a4,52(a3)
    2bba:	0005                	c.addi	zero,1
    2bbc:	2000                	fld	fs0,0(s0)
    2bbe:	00dd                	addi	ra,ra,23
    2bc0:	0000                	unimp
    2bc2:	d909                	beqz	a0,2ad4 <__moddi3+0x154>
    2bc4:	002c                	addi	a1,sp,8
    2bc6:	0000                	unimp
    2bc8:	7420                	flw	fs0,104(s0)
    2bca:	0005                	c.addi	zero,1
    2bcc:	0900                	addi	s0,sp,144
    2bce:	2cd9                	jal	2ea4 <__udivdi3+0xcc>
    2bd0:	0000                	unimp
    2bd2:	2000                	fld	fs0,0(s0)
    2bd4:	00000757          	0x757
    2bd8:	d909                	beqz	a0,2aea <__moddi3+0x16a>
    2bda:	002c                	addi	a1,sp,8
    2bdc:	0000                	unimp
    2bde:	2220                	fld	fs0,64(a2)
    2be0:	09000003          	lb	zero,144(zero) # 90 <buflen.1744+0x50>
    2be4:	00002cdb          	0x2cdb
    2be8:	2000                	fld	fs0,0(s0)
    2bea:	03e0                	addi	s0,sp,460
    2bec:	0000                	unimp
    2bee:	8b0a                	mv	s6,sp
    2bf0:	0064                	addi	s1,sp,12
    2bf2:	0000                	unimp
    2bf4:	7e20                	flw	fs0,120(a2)
    2bf6:	0000                	unimp
    2bf8:	0a00                	addi	s0,sp,272
    2bfa:	2c8c                	fld	fa1,24(s1)
    2bfc:	0000                	unimp
    2bfe:	0800                	addi	s0,sp,16
    2c00:	055a                	slli	a0,a0,0x16
    2c02:	0000                	unimp
    2c04:	094e                	slli	s2,s2,0x13
    2c06:	0000                	unimp
    2c08:	3309                	jal	290a <add+0x3a>
    2c0a:	0000                	unimp
    2c0c:	0100                	addi	s0,sp,128
    2c0e:	2000                	fld	fs0,0(s0)
    2c10:	0111                	addi	sp,sp,4
    2c12:	0000                	unimp
    2c14:	8f0a                	mv	t5,sp
    2c16:	093e                	slli	s2,s2,0xf
    2c18:	0000                	unimp
    2c1a:	5104                	lw	s1,32(a0)
    2c1c:	0002                	0x2
    2c1e:	0b00                	addi	s0,sp,400
    2c20:	332a                	fld	ft6,168(sp)
    2c22:	0000                	unimp
    2c24:	0400                	addi	s0,sp,512
    2c26:	0465                	addi	s0,s0,25
    2c28:	0000                	unimp
    2c2a:	096f2f0b          	0x96f2f0b
    2c2e:	0000                	unimp
    2c30:	0975040f          	0x975040f
    2c34:	0000                	unimp
    2c36:	00095913          	srli	s2,s2,0x0
    2c3a:	8400                	0x8400
    2c3c:	0009                	c.addi	zero,2
    2c3e:	1400                	addi	s0,sp,544
    2c40:	08ce                	slli	a7,a7,0x13
    2c42:	0000                	unimp
    2c44:	0400                	addi	s0,sp,512
    2c46:	07a9                	addi	a5,a5,10
    2c48:	0000                	unimp
    2c4a:	08b4360b          	0x8b4360b
    2c4e:	0000                	unimp
    2c50:	0a20                	addi	s0,sp,280
    2c52:	0000                	unimp
    2c54:	0b00                	addi	s0,sp,400
    2c56:	000964bb          	0x964bb
    2c5a:	2000                	fld	fs0,0(s0)
    2c5c:	05c2                	slli	a1,a1,0x10
    2c5e:	0000                	unimp
    2c60:	0984be0b          	0x984be0b
    2c64:	0000                	unimp
    2c66:	2422                	fld	fs0,8(sp)
    2c68:	0002                	0x2
    2c6a:	0700                	addi	s0,sp,896
    2c6c:	3304                	fld	fs1,32(a4)
    2c6e:	0000                	unimp
    2c70:	0c00                	addi	s0,sp,528
    2c72:	db18                	sw	a4,48(a4)
    2c74:	0009                	c.addi	zero,2
    2c76:	2300                	fld	fs0,0(a4)
    2c78:	0416                	slli	s0,s0,0x5
    2c7a:	0000                	unimp
    2c7c:	2300                	fld	fs0,0(a4)
    2c7e:	0386                	slli	t2,t2,0x1
    2c80:	0000                	unimp
    2c82:	2301                	jal	3182 <__udivdi3+0x3aa>
    2c84:	0351                	addi	t1,t1,20
    2c86:	0000                	unimp
    2c88:	2302                	fld	ft6,0(sp)
    2c8a:	040d                	addi	s0,s0,3
    2c8c:	0000                	unimp
    2c8e:	075e2303          	lw	t1,117(t3) # 7ba11 <__C_STACK_TOP__+0x6ba11>
    2c92:	0000                	unimp
    2c94:	2304                	fld	fs1,0(a4)
    2c96:	074d                	addi	a4,a4,19
    2c98:	0000                	unimp
    2c9a:	0005                	c.addi	zero,1
    2c9c:	f820                	fsw	fs0,112(s0)
    2c9e:	0000                	unimp
    2ca0:	0c00                	addi	s0,sp,528
    2ca2:	a520                	fsd	fs0,72(a0)
    2ca4:	0009                	c.addi	zero,2
    2ca6:	2200                	fld	fs0,0(a2)
    2ca8:	035c                	addi	a5,sp,388
    2caa:	0000                	unimp
    2cac:	00330407          	0x330407
    2cb0:	0000                	unimp
    2cb2:	220c                	fld	fa1,0(a2)
    2cb4:	0a0a                	slli	s4,s4,0x2
    2cb6:	0000                	unimp
    2cb8:	00045b23          	0x45b23
    2cbc:	0000                	unimp
    2cbe:	00042c23          	sw	zero,24(s0) # c018 <_gp+0x7f78>
    2cc2:	0100                	addi	s0,sp,128
    2cc4:	00059723          	sh	zero,14(a1) # 1bb4 <main+0x420>
    2cc8:	0200                	addi	s0,sp,256
    2cca:	2000                	fld	fs0,0(s0)
    2ccc:	01df 0000 270c      	0x270c000001df
    2cd2:	09e6                	slli	s3,s3,0x19
    2cd4:	0000                	unimp
    2cd6:	1320                	addi	s0,sp,424
    2cd8:	0d000003          	lb	zero,208(zero) # d0 <buflen.1744+0x90>
    2cdc:	9925                	andi	a0,a0,-23
    2cde:	0008                	addi	a0,sp,0
    2ce0:	2000                	fld	fs0,0(s0)
    2ce2:	000002a7          	0x2a7
    2ce6:	310d                	jal	2908 <add+0x38>
    2ce8:	0899                	addi	a7,a7,6
    2cea:	0000                	unimp
    2cec:	8504                	0x8504
    2cee:	0e000007          	0xe000007
    2cf2:	00004f7b          	0x4f7b
    2cf6:	1500                	addi	s0,sp,672
    2cf8:	00000a2b          	0xa2b
    2cfc:	9604                	0x9604
    2cfe:	0001                	nop
    2d00:	0e00                	addi	s0,sp,784
    2d02:	2c80                	fld	fs0,24(s1)
    2d04:	0000                	unimp
    2d06:	0400                	addi	s0,sp,512
    2d08:	0195                	addi	gp,gp,5
    2d0a:	0000                	unimp
    2d0c:	810e                	mv	sp,gp
    2d0e:	00000033          	add	zero,zero,zero
    2d12:	eb04                	fsw	fs1,16(a4)
    2d14:	0005                	c.addi	zero,1
    2d16:	0e00                	addi	s0,sp,784
    2d18:	3a84                	fld	fs1,48(a3)
    2d1a:	0000                	unimp
    2d1c:	0400                	addi	s0,sp,512
    2d1e:	05ea                	slli	a1,a1,0x1a
    2d20:	0000                	unimp
    2d22:	850e                	mv	a0,gp
    2d24:	0025                	c.addi	zero,9
    2d26:	0000                	unimp
    2d28:	0402                	slli	s0,s0,0x0
    2d2a:	9904                	0x9904
    2d2c:	02000003          	lb	zero,32(zero) # 20 <CL_SIZE>
    2d30:	0308                	addi	a0,sp,384
    2d32:	0391                	addi	t2,t2,4
    2d34:	0000                	unimp
    2d36:	0802                	slli	a6,a6,0x0
    2d38:	f104                	fsw	fs1,32(a0)
    2d3a:	0000                	unimp
    2d3c:	0200                	addi	s0,sp,256
    2d3e:	0310                	addi	a2,sp,384
    2d40:	0088                	addi	a0,sp,64
    2d42:	0000                	unimp
    2d44:	2002                	fld	ft0,0(sp)
    2d46:	0000e403          	0xe403
    2d4a:	1900                	addi	s0,sp,176
    2d4c:	0281                	addi	t0,t0,0
    2d4e:	0000                	unimp
    2d50:	0e08                	addi	a0,sp,784
    2d52:	01ed                	addi	gp,gp,27
    2d54:	0ab2                	slli	s5,s5,0xc
    2d56:	0000                	unimp
    2d58:	6c24                	flw	fs1,88(s0)
    2d5a:	0e00776f          	jal	a4,9e3a <_gp+0x5d9a>
    2d5e:	01ed                	addi	gp,gp,27
    2d60:	00000a3b          	0xa3b
    2d64:	1700                	addi	s0,sp,928
    2d66:	0000057b          	0x57b
    2d6a:	ed0e                	fsw	ft3,152(sp)
    2d6c:	3b01                	jal	2a7c <__moddi3+0xfc>
    2d6e:	000a                	0xa
    2d70:	0400                	addi	s0,sp,512
    2d72:	1b00                	addi	s0,sp,432
    2d74:	0e08                	addi	a0,sp,784
    2d76:	01f4                	addi	a3,sp,204
    2d78:	0ad1                	addi	s5,s5,20
    2d7a:	0000                	unimp
    2d7c:	7325                	lui	t1,0xfffe9
    2d7e:	0e00                	addi	s0,sp,784
    2d80:	01f6                	slli	gp,gp,0x1d
    2d82:	0a8a                	slli	s5,s5,0x2
    2d84:	0000                	unimp
    2d86:	6c25                	lui	s8,0x9
    2d88:	006c                	addi	a1,sp,12
    2d8a:	f70e                	fsw	ft3,172(sp)
    2d8c:	5101                	li	sp,-32
    2d8e:	000a                	0xa
    2d90:	0000                	unimp
    2d92:	5b05                	li	s6,-31
    2d94:	0002                	0x2
    2d96:	0e00                	addi	s0,sp,784
    2d98:	01f8                	addi	a4,sp,204
    2d9a:	0ab2                	slli	s5,s5,0xc
    2d9c:	0000                	unimp
    2d9e:	d115                	beqz	a0,2cc2 <__moddi3+0x342>
    2da0:	000a                	0xa
    2da2:	0800                	addi	s0,sp,16
    2da4:	0a36                	slli	s4,s4,0xd
    2da6:	0000                	unimp
    2da8:	0af2                	slli	s5,s5,0x1c
    2daa:	0000                	unimp
    2dac:	3309                	jal	2aae <__moddi3+0x12e>
    2dae:	0000                	unimp
    2db0:	ff00                	fsw	fs0,56(a4)
    2db2:	1500                	addi	s0,sp,672
    2db4:	0ae2                	slli	s5,s5,0x18
    2db6:	0000                	unimp
    2db8:	401e                	0x401e
    2dba:	0006                	0x6
    2dbc:	0e00                	addi	s0,sp,784
    2dbe:	01fc                	addi	a5,sp,204
    2dc0:	0af2                	slli	s5,s5,0x1c
    2dc2:	0000                	unimp
    2dc4:	9d1e                	add	s10,s10,t2
    2dc6:	0002                	0x2
    2dc8:	0e00                	addi	s0,sp,784
    2dca:	0202                	slli	tp,tp,0x0
    2dcc:	0af2                	slli	s5,s5,0x1c
    2dce:	0000                	unimp
    2dd0:	bb26                	fsd	fs1,432(sp)
    2dd2:	01000007          	0x1000007
    2dd6:	0519                	addi	a0,a0,6
    2dd8:	0a5c                	addi	a5,sp,276
    2dda:	0000                	unimp
    2ddc:	320c                	fld	fa1,32(a2)
    2dde:	0000                	unimp
    2de0:	0410                	addi	a2,sp,512
    2de2:	0000                	unimp
    2de4:	9c01                	0x9c01
    2de6:	0e44                	addi	s1,sp,788
    2de8:	0000                	unimp
    2dea:	01007527          	0x1007527
    2dee:	0519                	addi	a0,a0,6
    2df0:	0a5c                	addi	a5,sp,276
    2df2:	0000                	unimp
    2df4:	15b9                	addi	a1,a1,-18
    2df6:	0000                	unimp
    2df8:	01007627          	0x1007627
    2dfc:	0519                	addi	a0,a0,6
    2dfe:	0a5c                	addi	a5,sp,276
    2e00:	0000                	unimp
    2e02:	1661                	addi	a2,a2,-8
    2e04:	0000                	unimp
    2e06:	7728                	flw	fa0,104(a4)
    2e08:	0100                	addi	s0,sp,128
    2e0a:	0a5c051b          	0xa5c051b
    2e0e:	0000                	unimp
    2e10:	16c9                	addi	a3,a3,-14
    2e12:	0000                	unimp
    2e14:	4429                	li	s0,10
    2e16:	000e                	0xe
    2e18:	0c00                	addi	s0,sp,528
    2e1a:	0032                	0x32
    2e1c:	b000                	fsd	fs0,32(s0)
    2e1e:	0001                	nop
    2e20:	0100                	addi	s0,sp,128
    2e22:	051d                	addi	a0,a0,7
    2e24:	692a                	flw	fs2,136(sp)
    2e26:	000e                	0xe
    2e28:	e100                	fsw	fs0,0(a0)
    2e2a:	0016                	0x16
    2e2c:	2a00                	fld	fs0,16(a2)
    2e2e:	0e5f 0000 1709      	0x170900000e5f
    2e34:	0000                	unimp
    2e36:	552a                	lw	a0,168(sp)
    2e38:	000e                	0xe
    2e3a:	7100                	flw	fs0,32(a0)
    2e3c:	2b000017          	auipc	zero,0x2b000
    2e40:	01b0                	addi	a2,sp,200
    2e42:	0000                	unimp
    2e44:	742c                	flw	fa1,104(s0)
    2e46:	000e                	0xe
    2e48:	2c00                	fld	fs0,24(s0)
    2e4a:	0e7f                	0xe7f
    2e4c:	0000                	unimp
    2e4e:	8a2c                	0x8a2c
    2e50:	000e                	0xe
    2e52:	2d00                	fld	fs0,24(a0)
    2e54:	0e95                	addi	t4,t4,5
    2e56:	0000                	unimp
    2e58:	17f9                	addi	a5,a5,-2
    2e5a:	0000                	unimp
    2e5c:	a02d                	j	2e86 <__udivdi3+0xae>
    2e5e:	000e                	0xe
    2e60:	3800                	fld	fs0,48(s0)
    2e62:	0018                	addi	a4,sp,0
    2e64:	2d00                	fld	fs0,24(a0)
    2e66:	00000eab          	0xeab
    2e6a:	188d                	addi	a7,a7,-29
    2e6c:	0000                	unimp
    2e6e:	b62d                	j	2998 <__moddi3+0x18>
    2e70:	000e                	0xe
    2e72:	0300                	addi	s0,sp,384
    2e74:	0019                	c.addi	zero,6
    2e76:	2d00                	fld	fs0,24(a0)
    2e78:	0ec1                	addi	t4,t4,16
    2e7a:	0000                	unimp
    2e7c:	199a                	slli	s3,s3,0x26
    2e7e:	0000                	unimp
    2e80:	cc2d                	beqz	s0,2efa <__udivdi3+0x122>
    2e82:	000e                	0xe
    2e84:	c800                	sw	s0,16(s0)
    2e86:	0019                	c.addi	zero,6
    2e88:	2d00                	fld	fs0,24(a0)
    2e8a:	00000ed7          	0xed7
    2e8e:	19dc                	addi	a5,sp,244
    2e90:	0000                	unimp
    2e92:	e22d                	bnez	a2,2ef4 <__udivdi3+0x11c>
    2e94:	000e                	0xe
    2e96:	fc00                	fsw	fs0,56(s0)
    2e98:	0019                	c.addi	zero,6
    2e9a:	2d00                	fld	fs0,24(a0)
    2e9c:	0eec                	addi	a1,sp,860
    2e9e:	0000                	unimp
    2ea0:	1a1a                	slli	s4,s4,0x26
    2ea2:	0000                	unimp
    2ea4:	f72c                	fsw	fa1,104(a4)
    2ea6:	000e                	0xe
    2ea8:	2e00                	fld	fs0,24(a2)
    2eaa:	0f02                	slli	t5,t5,0x0
    2eac:	0000                	unimp
    2eae:	01c8                	addi	a0,sp,196
    2eb0:	0000                	unimp
    2eb2:	0c08                	addi	a0,sp,528
    2eb4:	0000                	unimp
    2eb6:	072d                	addi	a4,a4,11
    2eb8:	5900000f          	0x5900000f
    2ebc:	001a                	0x1a
    2ebe:	2d00                	fld	fs0,24(a0)
    2ec0:	00000f13          	li	t5,0
    2ec4:	00001a77          	0x1a77
    2ec8:	2f00                	fld	fs0,24(a4)
    2eca:	0f20                	addi	s0,sp,920
    2ecc:	0000                	unimp
    2ece:	3270                	fld	fa2,224(a2)
    2ed0:	0000                	unimp
    2ed2:	0070                	addi	a2,sp,12
    2ed4:	0000                	unimp
    2ed6:	0c55                	addi	s8,s8,21
    2ed8:	0000                	unimp
    2eda:	252d                	jal	3504 <__umoddi3+0x2f8>
    2edc:	8a00000f          	0x8a00000f
    2ee0:	001a                	0x1a
    2ee2:	2d00                	fld	fs0,24(a0)
    2ee4:	0f31                	addi	t5,t5,12
    2ee6:	0000                	unimp
    2ee8:	1a9d                	addi	s5,s5,-25
    2eea:	0000                	unimp
    2eec:	3d2c                	fld	fa1,120(a0)
    2eee:	2d00000f          	0x2d00000f
    2ef2:	0f49                	addi	t5,t5,18
    2ef4:	0000                	unimp
    2ef6:	1ac1                	addi	s5,s5,-16
    2ef8:	0000                	unimp
    2efa:	552d                	li	a0,-21
    2efc:	d400000f          	0xd400000f
    2f00:	001a                	0x1a
    2f02:	2d00                	fld	fs0,24(a0)
    2f04:	0f61                	addi	t5,t5,24
    2f06:	0000                	unimp
    2f08:	1af2                	slli	s5,s5,0x3c
    2f0a:	0000                	unimp
    2f0c:	6d2d                	lui	s10,0xb
    2f0e:	1000000f          	0x1000000f
    2f12:	0000001b          	0x1b
    2f16:	7a2e                	flw	fs4,232(sp)
    2f18:	e000000f          	0xe000000f
    2f1c:	0001                	nop
    2f1e:	7500                	flw	fs0,40(a0)
    2f20:	000c                	addi	a1,sp,0
    2f22:	2d00                	fld	fs0,24(a0)
    2f24:	0f7f                	0xf7f
    2f26:	0000                	unimp
    2f28:	1b2e                	slli	s6,s6,0x2b
    2f2a:	0000                	unimp
    2f2c:	8b2d                	andi	a4,a4,11
    2f2e:	4c00000f          	0x4c00000f
    2f32:	0000001b          	0x1b
    2f36:	000ff22f          	0xff22f
    2f3a:	4000                	lw	s0,0(s0)
    2f3c:	74000033          	0x74000033
    2f40:	0000                	unimp
    2f42:	c600                	sw	s0,8(a2)
    2f44:	000c                	addi	a1,sp,0
    2f46:	2d00                	fld	fs0,24(a0)
    2f48:	00000ff7          	0xff7
    2f4c:	1b6a                	slli	s6,s6,0x3a
    2f4e:	0000                	unimp
    2f50:	032d                	addi	t1,t1,11
    2f52:	0010                	addi	a2,sp,0
    2f54:	7d00                	flw	fs0,56(a0)
    2f56:	2d00001b          	0x2d00001b
    2f5a:	0000100f          	fence.i
    2f5e:	1ba1                	addi	s7,s7,-24
    2f60:	0000                	unimp
    2f62:	1b2d                	addi	s6,s6,-21
    2f64:	0010                	addi	a2,sp,0
    2f66:	b400                	fsd	fs0,40(s0)
    2f68:	2d00001b          	0x2d00001b
    2f6c:	00001027          	0x1027
    2f70:	00001bc7          	fmsub.s	fs7,ft0,ft0,ft0,rtz
    2f74:	332d                	jal	2c9e <__moddi3+0x31e>
    2f76:	0010                	addi	a2,sp,0
    2f78:	f000                	fsw	fs0,32(s0)
    2f7a:	2d00001b          	0x2d00001b
    2f7e:	0000103f 00001c0e 	0x1c0e0000103f
    2f86:	2e00                	fld	fs0,24(a2)
    2f88:	0f98                	addi	a4,sp,976
    2f8a:	0000                	unimp
    2f8c:	01f8                	addi	a4,sp,204
    2f8e:	0000                	unimp
    2f90:	00000d13          	li	s10,0
    2f94:	9d2d                	0x9d2d
    2f96:	2c00000f          	0x2c00000f
    2f9a:	001c                	addi	a5,sp,0
    2f9c:	2d00                	fld	fs0,24(a0)
    2f9e:	0fa9                	addi	t6,t6,10
    2fa0:	0000                	unimp
    2fa2:	00001c3f 000fb52d 	0xfb52d00001c3f
    2faa:	6300                	flw	fs0,0(a4)
    2fac:	001c                	addi	a5,sp,0
    2fae:	2d00                	fld	fs0,24(a0)
    2fb0:	0fc1                	addi	t6,t6,16
    2fb2:	0000                	unimp
    2fb4:	1c76                	slli	s8,s8,0x3d
    2fb6:	0000                	unimp
    2fb8:	cd2d                	beqz	a0,3032 <__udivdi3+0x25a>
    2fba:	8900000f          	0x8900000f
    2fbe:	001c                	addi	a5,sp,0
    2fc0:	2d00                	fld	fs0,24(a0)
    2fc2:	0fd9                	addi	t6,t6,22
    2fc4:	0000                	unimp
    2fc6:	1cb2                	slli	s9,s9,0x2c
    2fc8:	0000                	unimp
    2fca:	e52d                	bnez	a0,3034 <__udivdi3+0x25c>
    2fcc:	d000000f          	0xd000000f
    2fd0:	001c                	addi	a5,sp,0
    2fd2:	0000                	unimp
    2fd4:	4c2e                	lw	s8,200(sp)
    2fd6:	0010                	addi	a2,sp,0
    2fd8:	1000                	addi	s0,sp,32
    2fda:	0002                	0x2
    2fdc:	3300                	fld	fs0,32(a4)
    2fde:	000d                	c.addi	zero,3
    2fe0:	2d00                	fld	fs0,24(a0)
    2fe2:	1051                	c.addi	zero,-12
    2fe4:	0000                	unimp
    2fe6:	1cee                	slli	s9,s9,0x3b
    2fe8:	0000                	unimp
    2fea:	5d2d                	li	s10,-21
    2fec:	0010                	addi	a2,sp,0
    2fee:	0100                	addi	s0,sp,128
    2ff0:	001d                	c.addi	zero,7
    2ff2:	0000                	unimp
    2ff4:	00106a2f          	0x106a2f
    2ff8:	9800                	0x9800
    2ffa:	0034                	addi	a3,sp,8
    2ffc:	1000                	addi	s0,sp,32
    2ffe:	0000                	unimp
    3000:	4e00                	lw	s0,24(a2)
    3002:	000d                	c.addi	zero,3
    3004:	2d00                	fld	fs0,24(a0)
    3006:	0000106f          	j	4006 <__BSS_START__+0x746>
    300a:	1d1f 0000 3000      	0x300000001d1f
    3010:	107c                	addi	a5,sp,44
    3012:	0000                	unimp
    3014:	34c8                	fld	fa0,168(s1)
    3016:	0000                	unimp
    3018:	0150                	addi	a2,sp,132
    301a:	0000                	unimp
    301c:	7d2d                	lui	s10,0xfffeb
    301e:	0010                	addi	a2,sp,0
    3020:	3200                	fld	fs0,32(a2)
    3022:	001d                	c.addi	zero,7
    3024:	2d00                	fld	fs0,24(a0)
    3026:	1088                	addi	a0,sp,96
    3028:	0000                	unimp
    302a:	1d50                	addi	a2,sp,692
    302c:	0000                	unimp
    302e:	932e                	add	t1,t1,a1
    3030:	0010                	addi	a2,sp,0
    3032:	2800                	fld	fs0,16(s0)
    3034:	0002                	0x2
    3036:	ba00                	fsd	fs0,48(a2)
    3038:	000d                	c.addi	zero,3
    303a:	2d00                	fld	fs0,24(a0)
    303c:	1098                	addi	a4,sp,96
    303e:	0000                	unimp
    3040:	1d79                	addi	s10,s10,-2
    3042:	0000                	unimp
    3044:	a42d                	j	326e <__umoddi3+0x62>
    3046:	0010                	addi	a2,sp,0
    3048:	9b00                	0x9b00
    304a:	001d                	c.addi	zero,7
    304c:	2d00                	fld	fs0,24(a0)
    304e:	10b0                	addi	a2,sp,104
    3050:	0000                	unimp
    3052:	00001dbf 0010bc2d 	0x10bc2d00001dbf
    305a:	dd00                	sw	s0,56(a0)
    305c:	001d                	c.addi	zero,7
    305e:	2d00                	fld	fs0,24(a0)
    3060:	10c8                	addi	a0,sp,100
    3062:	0000                	unimp
    3064:	00001dfb          	0x1dfb
    3068:	d42d                	beqz	s0,2fd2 <__udivdi3+0x1fa>
    306a:	0010                	addi	a2,sp,0
    306c:	3700                	fld	fs0,40(a4)
    306e:	001e                	0x1e
    3070:	2d00                	fld	fs0,24(a0)
    3072:	10e0                	addi	s0,sp,108
    3074:	0000                	unimp
    3076:	1e74                	addi	a3,sp,828
    3078:	0000                	unimp
    307a:	2e00                	fld	fs0,24(a2)
    307c:	10ed                	addi	ra,ra,-5
    307e:	0000                	unimp
    3080:	0250                	addi	a2,sp,260
    3082:	0000                	unimp
    3084:	0e0e                	slli	t3,t3,0x3
    3086:	0000                	unimp
    3088:	f22d                	bnez	a2,2fea <__udivdi3+0x212>
    308a:	0010                	addi	a2,sp,0
    308c:	9200                	0x9200
    308e:	001e                	0x1e
    3090:	2d00                	fld	fs0,24(a0)
    3092:	10fe                	slli	ra,ra,0x3f
    3094:	0000                	unimp
    3096:	1ea5                	addi	t4,t4,-23
    3098:	0000                	unimp
    309a:	0a2d                	addi	s4,s4,11
    309c:	0011                	c.addi	zero,4
    309e:	b800                	fsd	fs0,48(s0)
    30a0:	001e                	0x1e
    30a2:	2d00                	fld	fs0,24(a0)
    30a4:	1116                	slli	sp,sp,0x25
    30a6:	0000                	unimp
    30a8:	00001ecb          	fnmsub.s	ft9,ft0,ft0,ft0,rtz
    30ac:	222d                	jal	31d6 <__udivdi3+0x3fe>
    30ae:	0011                	c.addi	zero,4
    30b0:	de00                	sw	s0,56(a2)
    30b2:	001e                	0x1e
    30b4:	2d00                	fld	fs0,24(a0)
    30b6:	112e                	slli	sp,sp,0x2b
    30b8:	0000                	unimp
    30ba:	1ef1                	addi	t4,t4,-4
    30bc:	0000                	unimp
    30be:	3a2d                	jal	29f8 <__moddi3+0x78>
    30c0:	0011                	c.addi	zero,4
    30c2:	2400                	fld	fs0,8(s0)
    30c4:	001f 3100 1146      	0x11463100001f
    30ca:	0000                	unimp
    30cc:	6001                	0x6001
    30ce:	2f00                	fld	fs0,24(a4)
    30d0:	00001153          	fadd.s	ft2,ft0,ft0,rtz
    30d4:	35e4                	fld	fs1,232(a1)
    30d6:	0000                	unimp
    30d8:	0014                	addi	a3,sp,0
    30da:	0000                	unimp
    30dc:	0e29                	addi	t3,t3,10
    30de:	0000                	unimp
    30e0:	582d                	li	a6,-21
    30e2:	0011                	c.addi	zero,4
    30e4:	3700                	fld	fs0,40(a4)
    30e6:	001f 0000 6530      	0x65300000001f
    30ec:	0011                	c.addi	zero,4
    30ee:	f800                	fsw	fs0,48(s0)
    30f0:	0035                	c.addi	zero,13
    30f2:	1000                	addi	s0,sp,32
    30f4:	0000                	unimp
    30f6:	2d00                	fld	fs0,24(a0)
    30f8:	1166                	slli	sp,sp,0x39
    30fa:	0000                	unimp
    30fc:	1f4a                	slli	t5,t5,0x32
    30fe:	0000                	unimp
    3100:	0000                	unimp
    3102:	0000                	unimp
    3104:	3200                	fld	fs0,32(a2)
    3106:	04fa                	slli	s1,s1,0x1e
    3108:	0000                	unimp
    310a:	f601                	bnez	a2,3012 <__udivdi3+0x23a>
    310c:	000a5c03          	lhu	s8,0(s4) # 5a968 <__C_STACK_TOP__+0x4a968>
    3110:	0300                	addi	s0,sp,384
    3112:	1175                	addi	sp,sp,-3
    3114:	0000                	unimp
    3116:	01006e33          	or	t3,zero,a6
    311a:	03f6                	slli	t2,t2,0x1d
    311c:	0a5c                	addi	a5,sp,276
    311e:	0000                	unimp
    3120:	01006433          	or	s0,zero,a6
    3124:	03f6                	slli	t2,t2,0x1d
    3126:	0a5c                	addi	a5,sp,276
    3128:	0000                	unimp
    312a:	00707233          	and	tp,zero,t2
    312e:	f601                	bnez	a2,3036 <__udivdi3+0x25e>
    3130:	00117503          	0x117503
    3134:	3400                	fld	fs0,40(s0)
    3136:	6e6e                	flw	ft8,216(sp)
    3138:	0100                	addi	s0,sp,128
    313a:	03f8                	addi	a4,sp,460
    313c:	0add                	addi	s5,s5,23
    313e:	0000                	unimp
    3140:	6434                	flw	fa3,72(s0)
    3142:	0064                	addi	s1,sp,12
    3144:	f901                	bnez	a0,3054 <__udivdi3+0x27c>
    3146:	000add03          	lhu	s10,0(s5)
    314a:	3400                	fld	fs0,40(s0)
    314c:	7272                	flw	ft4,60(sp)
    314e:	0100                	addi	s0,sp,128
    3150:	03fa                	slli	t2,t2,0x1e
    3152:	0ad1                	addi	s5,s5,20
    3154:	0000                	unimp
    3156:	6434                	flw	fa3,72(s0)
    3158:	0030                	addi	a2,sp,8
    315a:	fb01                	bnez	a4,306a <__udivdi3+0x292>
    315c:	000a4603          	lbu	a2,0(s4)
    3160:	3400                	fld	fs0,40(s0)
    3162:	3164                	fld	fs1,224(a0)
    3164:	0100                	addi	s0,sp,128
    3166:	0a4603fb          	0xa4603fb
    316a:	0000                	unimp
    316c:	6e34                	flw	fa3,88(a2)
    316e:	0030                	addi	a2,sp,8
    3170:	fb01                	bnez	a4,3080 <__udivdi3+0x2a8>
    3172:	000a4603          	lbu	a2,0(s4)
    3176:	3400                	fld	fs0,40(s0)
    3178:	316e                	fld	ft2,248(sp)
    317a:	0100                	addi	s0,sp,128
    317c:	0a4603fb          	0xa4603fb
    3180:	0000                	unimp
    3182:	6e34                	flw	fa3,88(a2)
    3184:	0032                	0x32
    3186:	fb01                	bnez	a4,3096 <__udivdi3+0x2be>
    3188:	000a4603          	lbu	a2,0(s4)
    318c:	3400                	fld	fs0,40(s0)
    318e:	3071                	jal	2a1a <__moddi3+0x9a>
    3190:	0100                	addi	s0,sp,128
    3192:	03fc                	addi	a5,sp,460
    3194:	0a46                	slli	s4,s4,0x11
    3196:	0000                	unimp
    3198:	7134                	flw	fa3,96(a0)
    319a:	0031                	c.addi	zero,12
    319c:	fc01                	bnez	s0,30b4 <__udivdi3+0x2dc>
    319e:	000a4603          	lbu	a2,0(s4)
    31a2:	3400                	fld	fs0,40(s0)
    31a4:	0062                	0x62
    31a6:	fd01                	bnez	a0,30be <__udivdi3+0x2e6>
    31a8:	000a4603          	lbu	a2,0(s4)
    31ac:	3400                	fld	fs0,40(s0)
    31ae:	6d62                	flw	fs10,24(sp)
    31b0:	0100                	addi	s0,sp,128
    31b2:	03fd                	addi	t2,t2,31
    31b4:	0a46                	slli	s4,s4,0x11
    31b6:	0000                	unimp
    31b8:	7734                	flw	fa3,104(a4)
    31ba:	c6010077          	0xc6010077
    31be:	dd04                	sw	s1,56(a0)
    31c0:	000a                	0xa
    31c2:	3500                	fld	fs0,40(a0)
    31c4:	0f20                	addi	s0,sp,920
    31c6:	0000                	unimp
    31c8:	d236                	sw	a3,36(sp)
    31ca:	0005                	c.addi	zero,1
    31cc:	0100                	addi	s0,sp,128
    31ce:	042d                	addi	s0,s0,11
    31d0:	0a46                	slli	s4,s4,0x11
    31d2:	0000                	unimp
    31d4:	5f34                	lw	a3,120(a4)
    31d6:	615f 0100 042d      	0x42d0100615f
    31dc:	0a46                	slli	s4,s4,0x11
    31de:	0000                	unimp
    31e0:	3500                	fld	fs0,40(a0)
    31e2:	0f7a                	slli	t5,t5,0x1e
    31e4:	0000                	unimp
    31e6:	cf36                	sw	a3,156(sp)
    31e8:	0000                	unimp
    31ea:	0100                	addi	s0,sp,128
    31ec:	0439                	addi	s0,s0,14
    31ee:	0a46                	slli	s4,s4,0x11
    31f0:	0000                	unimp
    31f2:	ca36                	sw	a3,20(sp)
    31f4:	0000                	unimp
    31f6:	0100                	addi	s0,sp,128
    31f8:	0439                	addi	s0,s0,14
    31fa:	0a46                	slli	s4,s4,0x11
    31fc:	0000                	unimp
    31fe:	8536                	mv	a0,a3
    3200:	0005                	c.addi	zero,1
    3202:	0100                	addi	s0,sp,128
    3204:	0439                	addi	s0,s0,14
    3206:	0a46                	slli	s4,s4,0x11
    3208:	0000                	unimp
    320a:	8036                	0x8036
    320c:	0005                	c.addi	zero,1
    320e:	0100                	addi	s0,sp,128
    3210:	0439                	addi	s0,s0,14
    3212:	0a46                	slli	s4,s4,0x11
    3214:	0000                	unimp
    3216:	2036                	fld	ft0,328(sp)
    3218:	01000007          	0x1000007
    321c:	0439                	addi	s0,s0,14
    321e:	0a46                	slli	s4,s4,0x11
    3220:	0000                	unimp
    3222:	1b36                	slli	s6,s6,0x2d
    3224:	01000007          	0x1000007
    3228:	0439                	addi	s0,s0,14
    322a:	0a46                	slli	s4,s4,0x11
    322c:	0000                	unimp
    322e:	5f34                	lw	a3,120(a4)
    3230:	6d5f 0100 0439      	0x43901006d5f
    3236:	0a46                	slli	s4,s4,0x11
    3238:	0000                	unimp
    323a:	3500                	fld	fs0,40(a0)
    323c:	0f98                	addi	a4,sp,976
    323e:	0000                	unimp
    3240:	d236                	sw	a3,36(sp)
    3242:	0005                	c.addi	zero,1
    3244:	0100                	addi	s0,sp,128
    3246:	0445                	addi	s0,s0,17
    3248:	0a46                	slli	s4,s4,0x11
    324a:	0000                	unimp
    324c:	5f34                	lw	a3,120(a4)
    324e:	615f 0100 0445      	0x4450100615f
    3254:	0a46                	slli	s4,s4,0x11
    3256:	0000                	unimp
    3258:	3500                	fld	fs0,40(a0)
    325a:	0ff2                	slli	t6,t6,0x1c
    325c:	0000                	unimp
    325e:	cf36                	sw	a3,156(sp)
    3260:	0000                	unimp
    3262:	0100                	addi	s0,sp,128
    3264:	045e                	slli	s0,s0,0x17
    3266:	0a46                	slli	s4,s4,0x11
    3268:	0000                	unimp
    326a:	ca36                	sw	a3,20(sp)
    326c:	0000                	unimp
    326e:	0100                	addi	s0,sp,128
    3270:	045e                	slli	s0,s0,0x17
    3272:	0a46                	slli	s4,s4,0x11
    3274:	0000                	unimp
    3276:	8536                	mv	a0,a3
    3278:	0005                	c.addi	zero,1
    327a:	0100                	addi	s0,sp,128
    327c:	045e                	slli	s0,s0,0x17
    327e:	0a46                	slli	s4,s4,0x11
    3280:	0000                	unimp
    3282:	8036                	0x8036
    3284:	0005                	c.addi	zero,1
    3286:	0100                	addi	s0,sp,128
    3288:	045e                	slli	s0,s0,0x17
    328a:	0a46                	slli	s4,s4,0x11
    328c:	0000                	unimp
    328e:	2036                	fld	ft0,328(sp)
    3290:	01000007          	0x1000007
    3294:	045e                	slli	s0,s0,0x17
    3296:	0a46                	slli	s4,s4,0x11
    3298:	0000                	unimp
    329a:	1b36                	slli	s6,s6,0x2d
    329c:	01000007          	0x1000007
    32a0:	045e                	slli	s0,s0,0x17
    32a2:	0a46                	slli	s4,s4,0x11
    32a4:	0000                	unimp
    32a6:	5f34                	lw	a3,120(a4)
    32a8:	6d5f 0100 045e      	0x45e01006d5f
    32ae:	0a46                	slli	s4,s4,0x11
    32b0:	0000                	unimp
    32b2:	3500                	fld	fs0,40(a0)
    32b4:	104c                	addi	a1,sp,36
    32b6:	0000                	unimp
    32b8:	cf36                	sw	a3,156(sp)
    32ba:	0000                	unimp
    32bc:	0100                	addi	s0,sp,128
    32be:	0a460463          	beq	a2,tp,3366 <__umoddi3+0x15a>
    32c2:	0000                	unimp
    32c4:	ca36                	sw	a3,20(sp)
    32c6:	0000                	unimp
    32c8:	0100                	addi	s0,sp,128
    32ca:	0a460463          	beq	a2,tp,3372 <__umoddi3+0x166>
    32ce:	0000                	unimp
    32d0:	8536                	mv	a0,a3
    32d2:	0005                	c.addi	zero,1
    32d4:	0100                	addi	s0,sp,128
    32d6:	0a460463          	beq	a2,tp,337e <__umoddi3+0x172>
    32da:	0000                	unimp
    32dc:	8036                	0x8036
    32de:	0005                	c.addi	zero,1
    32e0:	0100                	addi	s0,sp,128
    32e2:	0a460463          	beq	a2,tp,338a <__umoddi3+0x17e>
    32e6:	0000                	unimp
    32e8:	2036                	fld	ft0,328(sp)
    32ea:	01000007          	0x1000007
    32ee:	0a460463          	beq	a2,tp,3396 <__umoddi3+0x18a>
    32f2:	0000                	unimp
    32f4:	1b36                	slli	s6,s6,0x2d
    32f6:	01000007          	0x1000007
    32fa:	0a460463          	beq	a2,tp,33a2 <__umoddi3+0x196>
    32fe:	0000                	unimp
    3300:	5f34                	lw	a3,120(a4)
    3302:	6d5f 0100 0463      	0x46301006d5f
    3308:	0a46                	slli	s4,s4,0x11
    330a:	0000                	unimp
    330c:	3500                	fld	fs0,40(a0)
    330e:	106a                	0x106a
    3310:	0000                	unimp
    3312:	d236                	sw	a3,36(sp)
    3314:	0005                	c.addi	zero,1
    3316:	0100                	addi	s0,sp,128
    3318:	0486                	slli	s1,s1,0x1
    331a:	0a46                	slli	s4,s4,0x11
    331c:	0000                	unimp
    331e:	5f34                	lw	a3,120(a4)
    3320:	615f 0100 0486      	0x4860100615f
    3326:	0a46                	slli	s4,s4,0x11
    3328:	0000                	unimp
    332a:	3500                	fld	fs0,40(a0)
    332c:	107c                	addi	a5,sp,44
    332e:	0000                	unimp
    3330:	5f34                	lw	a3,120(a4)
    3332:	785f 0100 0494      	0x4940100785f
    3338:	0a46                	slli	s4,s4,0x11
    333a:	0000                	unimp
    333c:	3700                	fld	fs0,40(a4)
    333e:	6d34                	flw	fa3,88(a0)
    3340:	0031                	c.addi	zero,12
    3342:	a401                	j	3542 <__umoddi3+0x336>
    3344:	4604                	lw	s1,8(a2)
    3346:	000a                	0xa
    3348:	3400                	fld	fs0,40(s0)
    334a:	306d                	jal	2bf4 <__moddi3+0x274>
    334c:	0100                	addi	s0,sp,128
    334e:	04a4                	addi	s1,sp,584
    3350:	0a46                	slli	s4,s4,0x11
    3352:	0000                	unimp
    3354:	ed35                	bnez	a0,33d0 <__umoddi3+0x1c4>
    3356:	0010                	addi	a2,sp,0
    3358:	3600                	fld	fs0,40(a2)
    335a:	000000cf          	fnmadd.s	ft1,ft0,ft0,ft0,rne
    335e:	af01                	j	3a6e <__BSS_START__+0x1ae>
    3360:	4604                	lw	s1,8(a2)
    3362:	000a                	0xa
    3364:	3600                	fld	fs0,40(a2)
    3366:	00ca                	slli	ra,ra,0x12
    3368:	0000                	unimp
    336a:	af01                	j	3a7a <__BSS_START__+0x1ba>
    336c:	4604                	lw	s1,8(a2)
    336e:	000a                	0xa
    3370:	3600                	fld	fs0,40(a2)
    3372:	0585                	addi	a1,a1,1
    3374:	0000                	unimp
    3376:	af01                	j	3a86 <__BSS_START__+0x1c6>
    3378:	4604                	lw	s1,8(a2)
    337a:	000a                	0xa
    337c:	3600                	fld	fs0,40(a2)
    337e:	0580                	addi	s0,sp,704
    3380:	0000                	unimp
    3382:	af01                	j	3a92 <__BSS_START__+0x1d2>
    3384:	4604                	lw	s1,8(a2)
    3386:	000a                	0xa
    3388:	3600                	fld	fs0,40(a2)
    338a:	0720                	addi	s0,sp,904
    338c:	0000                	unimp
    338e:	af01                	j	3a9e <__BSS_START__+0x1de>
    3390:	4604                	lw	s1,8(a2)
    3392:	000a                	0xa
    3394:	3600                	fld	fs0,40(a2)
    3396:	0000071b          	0x71b
    339a:	af01                	j	3aaa <__BSS_START__+0x1ea>
    339c:	4604                	lw	s1,8(a2)
    339e:	000a                	0xa
    33a0:	3400                	fld	fs0,40(s0)
    33a2:	5f5f 006d af01      	0xaf01006d5f5f
    33a8:	4604                	lw	s1,8(a2)
    33aa:	000a                	0xa
    33ac:	0000                	unimp
    33ae:	5335                	li	t1,-19
    33b0:	0011                	c.addi	zero,4
    33b2:	3600                	fld	fs0,40(a2)
    33b4:	04c1                	addi	s1,s1,16
    33b6:	0000                	unimp
    33b8:	b001                	j	2bb8 <__moddi3+0x238>
    33ba:	4604                	lw	s1,8(a2)
    33bc:	000a                	0xa
    33be:	3600                	fld	fs0,40(a2)
    33c0:	04c6                	slli	s1,s1,0x11
    33c2:	0000                	unimp
    33c4:	b001                	j	2bc4 <__moddi3+0x244>
    33c6:	4604                	lw	s1,8(a2)
    33c8:	000a                	0xa
    33ca:	3600                	fld	fs0,40(a2)
    33cc:	000004cb          	fnmsub.s	fs1,ft0,ft0,ft0,rne
    33d0:	b001                	j	2bd0 <__moddi3+0x250>
    33d2:	4604                	lw	s1,8(a2)
    33d4:	000a                	0xa
    33d6:	3600                	fld	fs0,40(a2)
    33d8:	04d0                	addi	a2,sp,580
    33da:	0000                	unimp
    33dc:	b001                	j	2bdc <__moddi3+0x25c>
    33de:	4604                	lw	s1,8(a2)
    33e0:	000a                	0xa
    33e2:	3600                	fld	fs0,40(a2)
    33e4:	030e                	slli	t1,t1,0x3
    33e6:	0000                	unimp
    33e8:	b001                	j	2be8 <__moddi3+0x268>
    33ea:	4604                	lw	s1,8(a2)
    33ec:	000a                	0xa
    33ee:	3600                	fld	fs0,40(a2)
    33f0:	03d1                	addi	t2,t2,20
    33f2:	0000                	unimp
    33f4:	b001                	j	2bf4 <__moddi3+0x274>
    33f6:	4604                	lw	s1,8(a2)
    33f8:	000a                	0xa
    33fa:	3600                	fld	fs0,40(a2)
    33fc:	00000303          	lb	t1,0(zero) # 2b002e3c <__C_STACK_TOP__+0x2aff2e3c>
    3400:	b001                	j	2c00 <__moddi3+0x280>
    3402:	4604                	lw	s1,8(a2)
    3404:	000a                	0xa
    3406:	3600                	fld	fs0,40(a2)
    3408:	03cc                	addi	a1,sp,452
    340a:	0000                	unimp
    340c:	b001                	j	2c0c <__moddi3+0x28c>
    340e:	4604                	lw	s1,8(a2)
    3410:	000a                	0xa
    3412:	0000                	unimp
    3414:	6535                	lui	a0,0xd
    3416:	0011                	c.addi	zero,4
    3418:	3400                	fld	fs0,40(s0)
    341a:	5f5f 0078 b501      	0xb50100785f5f
    3420:	4604                	lw	s1,8(a2)
    3422:	000a                	0xa
    3424:	0000                	unimp
    3426:	5f5f3437          	lui	s0,0x5f5f3
    342a:	0078                	addi	a4,sp,12
    342c:	bd01                	j	323c <__umoddi3+0x30>
    342e:	4604                	lw	s1,8(a2)
    3430:	000a                	0xa
    3432:	0000                	unimp
    3434:	0000                	unimp
    3436:	0a5c040f          	0xa5c040f
    343a:	0000                	unimp
    343c:	8e00                	0x8e00
    343e:	000a                	0xa
    3440:	0400                	addi	s0,sp,512
    3442:	d600                	sw	s0,40(a2)
    3444:	04000007          	0x4000007
    3448:	c501                	beqz	a0,3450 <__umoddi3+0x244>
    344a:	0c000007          	0xc000007
    344e:	001c                	addi	a5,sp,0
    3450:	0000                	unimp
    3452:	00000507          	0x507
    3456:	0dbc                	addi	a5,sp,728
    3458:	0000                	unimp
    345a:	0402                	slli	s0,s0,0x0
    345c:	6905                	lui	s2,0x1
    345e:	746e                	flw	fs0,248(sp)
    3460:	0300                	addi	s0,sp,384
    3462:	0704                	addi	s1,sp,896
    3464:	0274                	addi	a3,sp,268
    3466:	0000                	unimp
    3468:	9d050803          	lb	a6,-1584(a0) # c9d0 <_gp+0x8930>
    346c:	0001                	nop
    346e:	0300                	addi	s0,sp,384
    3470:	0410                	addi	a2,sp,512
    3472:	00ec                	addi	a1,sp,76
    3474:	0000                	unimp
    3476:	a9060103          	lb	sp,-1392(a2) # 3f230 <__C_STACK_TOP__+0x2f230>
    347a:	0005                	c.addi	zero,1
    347c:	0300                	addi	s0,sp,384
    347e:	0801                	addi	a6,a6,0
    3480:	000005a7          	0x5a7
    3484:	00050203          	lb	tp,0(a0)
    3488:	0000                	unimp
    348a:	0300                	addi	s0,sp,384
    348c:	0702                	slli	a4,a4,0x0
    348e:	028a                	slli	t0,t0,0x2
    3490:	0000                	unimp
    3492:	a2050403          	lb	s0,-1504(a0)
    3496:	0001                	nop
    3498:	0300                	addi	s0,sp,384
    349a:	0704                	addi	s1,sp,896
    349c:	0000026f          	jal	tp,349c <__umoddi3+0x290>
    34a0:	6a070803          	lb	a6,1696(a4) # 3112c <__C_STACK_TOP__+0x2112c>
    34a4:	0002                	0x2
    34a6:	0400                	addi	s0,sp,512
    34a8:	03c5                	addi	t2,t2,17
    34aa:	0000                	unimp
    34ac:	1001                	c.addi	zero,-32
    34ae:	0055                	c.addi	zero,21
    34b0:	0000                	unimp
    34b2:	e304                	fsw	fs1,0(a4)
    34b4:	0004                	addi	s1,sp,0
    34b6:	0100                	addi	s0,sp,128
    34b8:	00006313          	ori	t1,zero,0
    34bc:	0400                	addi	s0,sp,512
    34be:	00000623          	sb	zero,12(zero) # c <buf.1743+0xc>
    34c2:	1f01                	addi	t5,t5,-32
    34c4:	0055                	c.addi	zero,21
    34c6:	0000                	unimp
    34c8:	f504                	fsw	fs1,40(a0)
    34ca:	02000003          	lb	zero,32(zero) # 20 <CL_SIZE>
    34ce:	00001d07          	0x1d07
    34d2:	0500                	addi	s0,sp,640
    34d4:	02f6                	slli	t0,t0,0x1d
    34d6:	0000                	unimp
    34d8:	24016503          	0x24016503
    34dc:	0000                	unimp
    34de:	0600                	addi	s0,sp,768
    34e0:	0404                	addi	s1,sp,512
    34e2:	c14a                	sw	s2,128(sp)
    34e4:	0000                	unimp
    34e6:	0700                	addi	s0,sp,896
    34e8:	02e1                	addi	t0,t0,24
    34ea:	0000                	unimp
    34ec:	4c04                	lw	s1,24(s0)
    34ee:	0096                	slli	ra,ra,0x5
    34f0:	0000                	unimp
    34f2:	00023c07          	fld	fs8,0(tp) # 0 <buf.1743>
    34f6:	0400                	addi	s0,sp,512
    34f8:	c14d                	beqz	a0,359a <__umoddi3+0x38e>
    34fa:	0000                	unimp
    34fc:	0000                	unimp
    34fe:	4008                	lw	a0,0(s0)
    3500:	0000                	unimp
    3502:	d100                	sw	s0,32(a0)
    3504:	0000                	unimp
    3506:	0900                	addi	s0,sp,144
    3508:	0024                	addi	s1,sp,8
    350a:	0000                	unimp
    350c:	080a0003          	lb	zero,128(s4)
    3510:	4704                	lw	s1,8(a4)
    3512:	00f2                	slli	ra,ra,0x1c
    3514:	0000                	unimp
    3516:	00033c0b          	0x33c0b
    351a:	0400                	addi	s0,sp,512
    351c:	1d49                	addi	s10,s10,-14
    351e:	0000                	unimp
    3520:	0000                	unimp
    3522:	0004d50b          	0x4d50b
    3526:	0400                	addi	s0,sp,512
    3528:	a24e                	fsd	fs3,256(sp)
    352a:	0000                	unimp
    352c:	0400                	addi	s0,sp,512
    352e:	0400                	addi	s0,sp,512
    3530:	03ea                	slli	t2,t2,0x1a
    3532:	0000                	unimp
    3534:	4f04                	lw	s1,24(a4)
    3536:	00d1                	addi	ra,ra,20
    3538:	0000                	unimp
    353a:	4404                	lw	s1,8(s0)
    353c:	0004                	addi	s1,sp,0
    353e:	0400                	addi	s0,sp,512
    3540:	00008b53          	fadd.s	fs6,ft1,ft0,rne
    3544:	0c00                	addi	s0,sp,528
    3546:	0404                	addi	s1,sp,512
    3548:	05ba                	slli	a1,a1,0xe
    354a:	0000                	unimp
    354c:	1605                	addi	a2,a2,-31
    354e:	005c                	addi	a5,sp,4
    3550:	0000                	unimp
    3552:	750d                	lui	a0,0xfffe3
    3554:	18000003          	lb	zero,384(zero) # 180 <SIM_STOP+0x88>
    3558:	2d05                	jal	3b88 <__BSS_START__+0x2c8>
    355a:	0168                	addi	a0,sp,140
    355c:	0000                	unimp
    355e:	0007a30b          	0x7a30b
    3562:	0500                	addi	s0,sp,640
    3564:	0001682f          	0x1682f
    3568:	0000                	unimp
    356a:	5f0e                	lw	t5,224(sp)
    356c:	3005006b          	0x3005006b
    3570:	001d                	c.addi	zero,7
    3572:	0000                	unimp
    3574:	0b04                	addi	s1,sp,400
    3576:	04b2                	slli	s1,s1,0xc
    3578:	0000                	unimp
    357a:	3005                	jal	2d9a <__moddi3+0x41a>
    357c:	001d                	c.addi	zero,7
    357e:	0000                	unimp
    3580:	0b08                	addi	a0,sp,400
    3582:	01f9                	addi	gp,gp,30
    3584:	0000                	unimp
    3586:	3005                	jal	2da6 <__moddi3+0x426>
    3588:	001d                	c.addi	zero,7
    358a:	0000                	unimp
    358c:	0b0c                	addi	a1,sp,400
    358e:	017f                	0x17f
    3590:	0000                	unimp
    3592:	3005                	jal	2db2 <__moddi3+0x432>
    3594:	001d                	c.addi	zero,7
    3596:	0000                	unimp
    3598:	0e10                	addi	a2,sp,784
    359a:	785f 0500 6e31      	0x6e310500785f
    35a0:	0001                	nop
    35a2:	1400                	addi	s0,sp,544
    35a4:	0f00                	addi	s0,sp,912
    35a6:	1504                	addi	s1,sp,672
    35a8:	0001                	nop
    35aa:	0800                	addi	s0,sp,16
    35ac:	010a                	slli	sp,sp,0x2
    35ae:	0000                	unimp
    35b0:	017e                	slli	sp,sp,0x1f
    35b2:	0000                	unimp
    35b4:	2409                	jal	37b6 <__clz_tab+0x3e>
    35b6:	0000                	unimp
    35b8:	0000                	unimp
    35ba:	0d00                	addi	s0,sp,656
    35bc:	021f 0000 0524      	0x5240000021f
    35c2:	f735                	bnez	a4,352e <__umoddi3+0x322>
    35c4:	0001                	nop
    35c6:	0b00                	addi	s0,sp,400
    35c8:	0119                	addi	sp,sp,6
    35ca:	0000                	unimp
    35cc:	3705                	jal	34ec <__umoddi3+0x2e0>
    35ce:	001d                	c.addi	zero,7
    35d0:	0000                	unimp
    35d2:	0b00                	addi	s0,sp,400
    35d4:	0000073f 001d3805 	0x1d38050000073f
    35dc:	0000                	unimp
    35de:	0b04                	addi	s1,sp,400
    35e0:	0135                	addi	sp,sp,13
    35e2:	0000                	unimp
    35e4:	3905                	jal	3214 <__umoddi3+0x8>
    35e6:	001d                	c.addi	zero,7
    35e8:	0000                	unimp
    35ea:	0b08                	addi	a0,sp,400
    35ec:	0794                	addi	a3,sp,960
    35ee:	0000                	unimp
    35f0:	3a05                	jal	2f20 <__udivdi3+0x148>
    35f2:	001d                	c.addi	zero,7
    35f4:	0000                	unimp
    35f6:	0b0c                	addi	a1,sp,400
    35f8:	039f 0000 3b05      	0x3b050000039f
    35fe:	001d                	c.addi	zero,7
    3600:	0000                	unimp
    3602:	0b10                	addi	a2,sp,400
    3604:	0332                	slli	t1,t1,0xc
    3606:	0000                	unimp
    3608:	3c05                	jal	3038 <__udivdi3+0x260>
    360a:	001d                	c.addi	zero,7
    360c:	0000                	unimp
    360e:	0b14                	addi	a3,sp,400
    3610:	05fa                	slli	a1,a1,0x1e
    3612:	0000                	unimp
    3614:	3d05                	jal	3444 <__umoddi3+0x238>
    3616:	001d                	c.addi	zero,7
    3618:	0000                	unimp
    361a:	0b18                	addi	a4,sp,400
    361c:	0000077b          	0x77b
    3620:	3e05                	jal	3150 <__udivdi3+0x378>
    3622:	001d                	c.addi	zero,7
    3624:	0000                	unimp
    3626:	0b1c                	addi	a5,sp,400
    3628:	0725                	addi	a4,a4,9
    362a:	0000                	unimp
    362c:	3f05                	jal	355c <__umoddi3+0x350>
    362e:	001d                	c.addi	zero,7
    3630:	0000                	unimp
    3632:	0020                	addi	s0,sp,8
    3634:	5210                	lw	a2,32(a2)
    3636:	0001                	nop
    3638:	0800                	addi	s0,sp,16
    363a:	0501                	addi	a0,a0,0
    363c:	3748                	fld	fa0,168(a4)
    363e:	0002                	0x2
    3640:	0b00                	addi	s0,sp,400
    3642:	01ec                	addi	a1,sp,204
    3644:	0000                	unimp
    3646:	4905                	li	s2,1
    3648:	00000237          	lui	tp,0x0
    364c:	0b00                	addi	s0,sp,400
    364e:	0420                	addi	s0,sp,520
    3650:	0000                	unimp
    3652:	4a05                	li	s4,1
    3654:	00000237          	lui	tp,0x0
    3658:	1180                	addi	s0,sp,224
    365a:	059e                	slli	a1,a1,0x7
    365c:	0000                	unimp
    365e:	4c05                	li	s8,1
    3660:	010a                	slli	sp,sp,0x2
    3662:	0000                	unimp
    3664:	0100                	addi	s0,sp,128
    3666:	7711                	lui	a4,0xfffe4
    3668:	0001                	nop
    366a:	0500                	addi	s0,sp,640
    366c:	00010a4f          	fnmadd.s	fs4,ft2,ft0,ft0,rne
    3670:	0400                	addi	s0,sp,512
    3672:	0001                	nop
    3674:	0808                	addi	a0,sp,16
    3676:	0001                	nop
    3678:	4700                	lw	s0,8(a4)
    367a:	0002                	0x2
    367c:	0900                	addi	s0,sp,144
    367e:	0024                	addi	s1,sp,8
    3680:	0000                	unimp
    3682:	001f a810 0003      	0x3a810001f
    3688:	9000                	0x9000
    368a:	0501                	addi	a0,a0,0
    368c:	0002855b          	0x2855b
    3690:	0b00                	addi	s0,sp,400
    3692:	000007a3          	sb	zero,15(zero) # f <buf.1743+0xf>
    3696:	5c05                	li	s8,-31
    3698:	0285                	addi	t0,t0,1
    369a:	0000                	unimp
    369c:	0b00                	addi	s0,sp,400
    369e:	00000493          	li	s1,0
    36a2:	5d05                	li	s10,-31
    36a4:	001d                	c.addi	zero,7
    36a6:	0000                	unimp
    36a8:	0b04                	addi	s1,sp,400
    36aa:	01f4                	addi	a3,sp,204
    36ac:	0000                	unimp
    36ae:	5f05                	li	t5,-31
    36b0:	0000028b          	0x28b
    36b4:	0b08                	addi	a0,sp,400
    36b6:	0152                	slli	sp,sp,0x14
    36b8:	0000                	unimp
    36ba:	6005                	0x6005
    36bc:	000001f7          	0x1f7
    36c0:	0088                	addi	a0,sp,64
    36c2:	0247040f          	0x247040f
    36c6:	0000                	unimp
    36c8:	9b08                	0x9b08
    36ca:	0002                	0x2
    36cc:	9b00                	0x9b00
    36ce:	0002                	0x2
    36d0:	0900                	addi	s0,sp,144
    36d2:	0024                	addi	s1,sp,8
    36d4:	0000                	unimp
    36d6:	001f 040f 02a1      	0x2a1040f001f
    36dc:	0000                	unimp
    36de:	0d12                	slli	s10,s10,0x4
    36e0:	078d                	addi	a5,a5,3
    36e2:	0000                	unimp
    36e4:	0508                	addi	a0,sp,640
    36e6:	0002c773          	0x2c773
    36ea:	0b00                	addi	s0,sp,400
    36ec:	0000012f          	0x12f
    36f0:	7405                	lui	s0,0xfffe1
    36f2:	000002c7          	fmsub.s	ft5,ft0,ft0,ft0,rne
    36f6:	0b00                	addi	s0,sp,400
    36f8:	04f4                	addi	a3,sp,588
    36fa:	0000                	unimp
    36fc:	7505                	lui	a0,0xfffe1
    36fe:	001d                	c.addi	zero,7
    3700:	0000                	unimp
    3702:	0004                	addi	s1,sp,0
    3704:	0040040f          	0x40040f
    3708:	0000                	unimp
    370a:	6f0d                	lui	t5,0x3
    370c:	0004                	addi	s1,sp,0
    370e:	6800                	flw	fs0,16(s0)
    3710:	b305                	j	3430 <__umoddi3+0x224>
    3712:	000003f7          	0x3f7
    3716:	5f0e                	lw	t5,224(sp)
    3718:	0070                	addi	a2,sp,12
    371a:	b405                	j	313a <__udivdi3+0x362>
    371c:	000002c7          	fmsub.s	ft5,ft0,ft0,ft0,rne
    3720:	0e00                	addi	s0,sp,784
    3722:	725f 0500 1db5      	0x1db50500725f
    3728:	0000                	unimp
    372a:	0400                	addi	s0,sp,512
    372c:	5f0e                	lw	t5,224(sp)
    372e:	b6050077          	0xb6050077
    3732:	001d                	c.addi	zero,7
    3734:	0000                	unimp
    3736:	0b08                	addi	a0,sp,400
    3738:	0170                	addi	a2,sp,140
    373a:	0000                	unimp
    373c:	b705                	j	365c <__umoddi3+0x450>
    373e:	00000047          	fmsub.s	ft0,ft0,ft0,ft0,rne
    3742:	0b0c                	addi	a1,sp,400
    3744:	0000024b          	fnmsub.s	ft4,ft0,ft0,ft0,rne
    3748:	b805                	j	2f78 <__udivdi3+0x1a0>
    374a:	00000047          	fmsub.s	ft0,ft0,ft0,ft0,rne
    374e:	0e0e                	slli	t3,t3,0x3
    3750:	625f 0066 b905      	0xb9050066625f
    3756:	02a2                	slli	t0,t0,0x8
    3758:	0000                	unimp
    375a:	0b10                	addi	a2,sp,400
    375c:	00d4                	addi	a3,sp,68
    375e:	0000                	unimp
    3760:	ba05                	j	3090 <__udivdi3+0x2b8>
    3762:	001d                	c.addi	zero,7
    3764:	0000                	unimp
    3766:	0b18                	addi	a4,sp,400
    3768:	0160                	addi	s0,sp,140
    376a:	0000                	unimp
    376c:	c105                	beqz	a0,378c <__clz_tab+0x14>
    376e:	0108                	addi	a0,sp,128
    3770:	0000                	unimp
    3772:	0b1c                	addi	a5,sp,400
    3774:	00000407          	0x407
    3778:	c305                	beqz	a4,3798 <__clz_tab+0x20>
    377a:	0564                	addi	s1,sp,652
    377c:	0000                	unimp
    377e:	0b20                	addi	s0,sp,408
    3780:	0000032b          	0x32b
    3784:	c505                	beqz	a0,37ac <__clz_tab+0x34>
    3786:	00000593          	li	a1,0
    378a:	0b24                	addi	s1,sp,408
    378c:	04dd                	addi	s1,s1,23
    378e:	0000                	unimp
    3790:	c805                	beqz	s0,37c0 <__clz_tab+0x48>
    3792:	000005b7          	lui	a1,0x0
    3796:	0b28                	addi	a0,sp,408
    3798:	0122                	slli	sp,sp,0x8
    379a:	0000                	unimp
    379c:	c905                	beqz	a0,37cc <__clz_tab+0x54>
    379e:	05d1                	addi	a1,a1,20
    37a0:	0000                	unimp
    37a2:	0e2c                	addi	a1,sp,792
    37a4:	755f 0062 cc05      	0xcc050062755f
    37aa:	02a2                	slli	t0,t0,0x8
    37ac:	0000                	unimp
    37ae:	0e30                	addi	a2,sp,792
    37b0:	755f 0070 cd05      	0xcd050070755f
    37b6:	000002c7          	fmsub.s	ft5,ft0,ft0,ft0,rne
    37ba:	0e38                	addi	a4,sp,792
    37bc:	755f 0072 ce05      	0xce050072755f
    37c2:	001d                	c.addi	zero,7
    37c4:	0000                	unimp
    37c6:	0b3c                	addi	a5,sp,408
    37c8:	0129                	addi	sp,sp,10
    37ca:	0000                	unimp
    37cc:	d105                	beqz	a0,36ec <__umoddi3+0x4e0>
    37ce:	000005d7          	0x5d7
    37d2:	0b40                	addi	s0,sp,404
    37d4:	070d                	addi	a4,a4,3
    37d6:	0000                	unimp
    37d8:	d205                	beqz	a2,36f8 <__umoddi3+0x4ec>
    37da:	000005e7          	jalr	a1,zero
    37de:	6c5f0e43          	0x6c5f0e43
    37e2:	0062                	0x62
    37e4:	d505                	beqz	a0,370c <__umoddi3+0x500>
    37e6:	02a2                	slli	t0,t0,0x8
    37e8:	0000                	unimp
    37ea:	0b44                	addi	s1,sp,404
    37ec:	000004eb          	0x4eb
    37f0:	d805                	beqz	s0,3720 <__umoddi3+0x514>
    37f2:	001d                	c.addi	zero,7
    37f4:	0000                	unimp
    37f6:	0b4c                	addi	a1,sp,404
    37f8:	036d                	addi	t1,t1,27
    37fa:	0000                	unimp
    37fc:	d905                	beqz	a0,372c <__umoddi3+0x520>
    37fe:	006a                	0x6a
    3800:	0000                	unimp
    3802:	0b50                	addi	a2,sp,404
    3804:	00a4                	addi	s1,sp,72
    3806:	0000                	unimp
    3808:	dc05                	beqz	s0,3740 <__umoddi3+0x534>
    380a:	0415                	addi	s0,s0,5
    380c:	0000                	unimp
    380e:	0b54                	addi	a3,sp,404
    3810:	02fd                	addi	t0,t0,31
    3812:	0000                	unimp
    3814:	e005                	bnez	s0,3834 <__clz_tab+0xbc>
    3816:	00fd                	addi	ra,ra,31
    3818:	0000                	unimp
    381a:	0b58                	addi	a4,sp,404
    381c:	00000233          	add	tp,zero,zero
    3820:	e205                	bnez	a2,3840 <__clz_tab+0xc8>
    3822:	00f2                	slli	ra,ra,0x1c
    3824:	0000                	unimp
    3826:	0b5c                	addi	a5,sp,404
    3828:	044d                	addi	s0,s0,19
    382a:	0000                	unimp
    382c:	e305                	bnez	a4,384c <__clz_tab+0xd4>
    382e:	001d                	c.addi	zero,7
    3830:	0000                	unimp
    3832:	0064                	addi	s1,sp,12
    3834:	00008013          	mv	zero,ra
    3838:	1500                	addi	s0,sp,672
    383a:	0004                	addi	s1,sp,0
    383c:	1400                	addi	s0,sp,544
    383e:	0415                	addi	s0,s0,5
    3840:	0000                	unimp
    3842:	0814                	addi	a3,sp,16
    3844:	0001                	nop
    3846:	1400                	addi	s0,sp,544
    3848:	0552                	slli	a0,a0,0x14
    384a:	0000                	unimp
    384c:	1d14                	addi	a3,sp,688
    384e:	0000                	unimp
    3850:	0000                	unimp
    3852:	0420040f          	0x420040f
    3856:	0000                	unimp
    3858:	1515                	addi	a0,a0,-27
    385a:	0004                	addi	s1,sp,0
    385c:	1600                	addi	s0,sp,800
    385e:	04ba                	slli	s1,s1,0xe
    3860:	0000                	unimp
    3862:	0428                	addi	a0,sp,520
    3864:	3805                	jal	3094 <__udivdi3+0x2bc>
    3866:	5202                	lw	tp,32(sp)
    3868:	0005                	c.addi	zero,1
    386a:	1700                	addi	s0,sp,928
    386c:	043d                	addi	s0,s0,15
    386e:	0000                	unimp
    3870:	3a05                	jal	31a0 <__udivdi3+0x3c8>
    3872:	1d02                	slli	s10,s10,0x20
    3874:	0000                	unimp
    3876:	0000                	unimp
    3878:	00060a17          	auipc	s4,0x60
    387c:	0500                	addi	s0,sp,640
    387e:	063e023f 17040000 	0x17040000063e023f
    3886:	05f2                	slli	a1,a1,0x1c
    3888:	0000                	unimp
    388a:	3f05                	jal	37ba <__clz_tab+0x42>
    388c:	3e02                	fld	ft8,32(sp)
    388e:	0006                	0x6
    3890:	0800                	addi	s0,sp,16
    3892:	0001ff17          	auipc	t5,0x1f
    3896:	0500                	addi	s0,sp,640
    3898:	063e023f 170c0000 	0x170c0000063e023f
    38a0:	048e                	slli	s1,s1,0x3
    38a2:	0000                	unimp
    38a4:	4105                	li	sp,1
    38a6:	1d02                	slli	s10,s10,0x20
    38a8:	0000                	unimp
    38aa:	1000                	addi	s0,sp,32
    38ac:	00007317          	auipc	t1,0x7
    38b0:	0500                	addi	s0,sp,640
    38b2:	0242                	slli	tp,tp,0x10
    38b4:	0820                	addi	s0,sp,24
    38b6:	0000                	unimp
    38b8:	1714                	addi	a3,sp,928
    38ba:	0611                	addi	a2,a2,4
    38bc:	0000                	unimp
    38be:	4405                	li	s0,1
    38c0:	1d02                	slli	s10,s10,0x20
    38c2:	0000                	unimp
    38c4:	3000                	fld	fs0,32(s0)
    38c6:	00049817          	auipc	a6,0x49
    38ca:	0500                	addi	s0,sp,640
    38cc:	0245                	addi	tp,tp,17
    38ce:	0588                	addi	a0,sp,704
    38d0:	0000                	unimp
    38d2:	1734                	addi	a3,sp,936
    38d4:	03ba                	slli	t2,t2,0xe
    38d6:	0000                	unimp
    38d8:	4705                	li	a4,1
    38da:	1d02                	slli	s10,s10,0x20
    38dc:	0000                	unimp
    38de:	3800                	fld	fs0,48(s0)
    38e0:	0004a817          	auipc	a6,0x4a
    38e4:	0500                	addi	s0,sp,640
    38e6:	0249                	addi	tp,tp,18
    38e8:	0000083b          	0x83b
    38ec:	173c                	addi	a5,sp,936
    38ee:	02d9                	addi	t0,t0,22
    38f0:	0000                	unimp
    38f2:	4c05                	li	s8,1
    38f4:	6802                	flw	fa6,0(sp)
    38f6:	0001                	nop
    38f8:	4000                	lw	s0,0(s0)
    38fa:	00018b17          	auipc	s6,0x18
    38fe:	0500                	addi	s0,sp,640
    3900:	024d                	addi	tp,tp,19
    3902:	001d                	c.addi	zero,7
    3904:	0000                	unimp
    3906:	1744                	addi	s1,sp,932
    3908:	0776                	slli	a4,a4,0x1d
    390a:	0000                	unimp
    390c:	4e05                	li	t3,1
    390e:	6802                	flw	fa6,0(sp)
    3910:	0001                	nop
    3912:	4800                	lw	s0,16(s0)
    3914:	0003d617          	auipc	a2,0x3d
    3918:	0500                	addi	s0,sp,640
    391a:	0841024f          	fnmadd.s	ft4,ft2,ft4,ft1,rne
    391e:	0000                	unimp
    3920:	174c                	addi	a1,sp,932
    3922:	00000243          	fmadd.s	ft4,ft0,ft0,ft0,rne
    3926:	5205                	li	tp,-31
    3928:	1d02                	slli	s10,s10,0x20
    392a:	0000                	unimp
    392c:	5000                	lw	s0,32(s0)
    392e:	0001b817          	auipc	a6,0x1b
    3932:	0500                	addi	s0,sp,640
    3934:	05520253          	0x5520253
    3938:	0000                	unimp
    393a:	1754                	addi	a3,sp,932
    393c:	0436                	slli	s0,s0,0xd
    393e:	0000                	unimp
    3940:	7605                	lui	a2,0xfffe1
    3942:	fe02                	fsw	ft0,60(sp)
    3944:	58000007          	0x58000007
    3948:	a818                	fsd	fa4,16(s0)
    394a:	05000003          	lb	zero,80(zero) # 50 <buflen.1744+0x10>
    394e:	027a                	slli	tp,tp,0x1e
    3950:	0285                	addi	t0,t0,1
    3952:	0000                	unimp
    3954:	0148                	addi	a0,sp,132
    3956:	b718                	fsd	fa4,40(a4)
    3958:	0002                	0x2
    395a:	0500                	addi	s0,sp,640
    395c:	0247027b          	0x247027b
    3960:	0000                	unimp
    3962:	014c                	addi	a1,sp,132
    3964:	3618                	fld	fa4,40(a2)
    3966:	0006                	0x6
    3968:	0500                	addi	s0,sp,640
    396a:	027f                	0x27f
    396c:	0852                	slli	a6,a6,0x14
    396e:	0000                	unimp
    3970:	02dc                	addi	a5,sp,324
    3972:	6818                	flw	fa4,16(s0)
    3974:	0001                	nop
    3976:	0500                	addi	s0,sp,640
    3978:	0284                	addi	s1,sp,320
    397a:	00000603          	lb	a2,0(zero) # 0 <buf.1743>
    397e:	02e0                	addi	s0,sp,332
    3980:	4d18                	lw	a4,24(a0)
    3982:	0001                	nop
    3984:	0500                	addi	s0,sp,640
    3986:	0285                	addi	t0,t0,1
    3988:	085e                	slli	a6,a6,0x17
    398a:	0000                	unimp
    398c:	02ec                	addi	a1,sp,332
    398e:	0f00                	addi	s0,sp,912
    3990:	5804                	lw	s1,48(s0)
    3992:	0005                	c.addi	zero,1
    3994:	0300                	addi	s0,sp,384
    3996:	0801                	addi	a6,a6,0
    3998:	05b0                	addi	a2,sp,712
    399a:	0000                	unimp
    399c:	5815                	li	a6,-27
    399e:	0005                	c.addi	zero,1
    39a0:	0f00                	addi	s0,sp,912
    39a2:	f704                	fsw	fs1,40(a4)
    39a4:	13000003          	lb	zero,304(zero) # 130 <SIM_STOP+0x38>
    39a8:	0080                	addi	s0,sp,64
    39aa:	0000                	unimp
    39ac:	0588                	addi	a0,sp,704
    39ae:	0000                	unimp
    39b0:	1514                	addi	a3,sp,672
    39b2:	0004                	addi	s1,sp,0
    39b4:	1400                	addi	s0,sp,544
    39b6:	0108                	addi	a0,sp,128
    39b8:	0000                	unimp
    39ba:	8814                	0x8814
    39bc:	0005                	c.addi	zero,1
    39be:	1400                	addi	s0,sp,544
    39c0:	001d                	c.addi	zero,7
    39c2:	0000                	unimp
    39c4:	0f00                	addi	s0,sp,912
    39c6:	5f04                	lw	s1,56(a4)
    39c8:	0005                	c.addi	zero,1
    39ca:	1500                	addi	s0,sp,672
    39cc:	0588                	addi	a0,sp,704
    39ce:	0000                	unimp
    39d0:	056a040f          	0x56a040f
    39d4:	0000                	unimp
    39d6:	00007513          	andi	a0,zero,0
    39da:	b700                	fsd	fs0,40(a4)
    39dc:	0005                	c.addi	zero,1
    39de:	1400                	addi	s0,sp,544
    39e0:	0415                	addi	s0,s0,5
    39e2:	0000                	unimp
    39e4:	0814                	addi	a3,sp,16
    39e6:	0001                	nop
    39e8:	1400                	addi	s0,sp,544
    39ea:	0075                	c.addi	zero,29
    39ec:	0000                	unimp
    39ee:	1d14                	addi	a3,sp,688
    39f0:	0000                	unimp
    39f2:	0000                	unimp
    39f4:	0599040f          	0x599040f
    39f8:	0000                	unimp
    39fa:	00001d13          	slli	s10,zero,0x0
    39fe:	d100                	sw	s0,32(a0)
    3a00:	0005                	c.addi	zero,1
    3a02:	1400                	addi	s0,sp,544
    3a04:	0415                	addi	s0,s0,5
    3a06:	0000                	unimp
    3a08:	0814                	addi	a3,sp,16
    3a0a:	0001                	nop
    3a0c:	0000                	unimp
    3a0e:	05bd040f          	0x5bd040f
    3a12:	0000                	unimp
    3a14:	4008                	lw	a0,0(s0)
    3a16:	0000                	unimp
    3a18:	e700                	fsw	fs0,8(a4)
    3a1a:	0005                	c.addi	zero,1
    3a1c:	0900                	addi	s0,sp,144
    3a1e:	0024                	addi	s1,sp,8
    3a20:	0000                	unimp
    3a22:	0002                	0x2
    3a24:	4008                	lw	a0,0(s0)
    3a26:	0000                	unimp
    3a28:	f700                	fsw	fs0,40(a4)
    3a2a:	0005                	c.addi	zero,1
    3a2c:	0900                	addi	s0,sp,144
    3a2e:	0024                	addi	s1,sp,8
    3a30:	0000                	unimp
    3a32:	0000                	unimp
    3a34:	8405                	srai	s0,s0,0x1
    3a36:	0001                	nop
    3a38:	0500                	addi	s0,sp,640
    3a3a:	011d                	addi	sp,sp,7
    3a3c:	02cd                	addi	t0,t0,19
    3a3e:	0000                	unimp
    3a40:	0419                	addi	s0,s0,6
    3a42:	0006                	0x6
    3a44:	0c00                	addi	s0,sp,528
    3a46:	2105                	jal	3e66 <__BSS_START__+0x5a6>
    3a48:	3801                	jal	3258 <__umoddi3+0x4c>
    3a4a:	0006                	0x6
    3a4c:	1700                	addi	s0,sp,928
    3a4e:	000007a3          	sb	zero,15(zero) # f <buf.1743+0xf>
    3a52:	2305                	jal	3f72 <__BSS_START__+0x6b2>
    3a54:	3801                	jal	3264 <__umoddi3+0x58>
    3a56:	0006                	0x6
    3a58:	0000                	unimp
    3a5a:	00026317          	auipc	t1,0x26
    3a5e:	0500                	addi	s0,sp,640
    3a60:	0124                	addi	s1,sp,136
    3a62:	001d                	c.addi	zero,7
    3a64:	0000                	unimp
    3a66:	1704                	addi	s1,sp,928
    3a68:	0455                	addi	s0,s0,21
    3a6a:	0000                	unimp
    3a6c:	2505                	jal	408c <__BSS_START__+0x7cc>
    3a6e:	3e01                	jal	357e <__umoddi3+0x372>
    3a70:	0006                	0x6
    3a72:	0800                	addi	s0,sp,16
    3a74:	0f00                	addi	s0,sp,912
    3a76:	0304                	addi	s1,sp,384
    3a78:	0006                	0x6
    3a7a:	0f00                	addi	s0,sp,912
    3a7c:	f704                	fsw	fs1,40(a4)
    3a7e:	0005                	c.addi	zero,1
    3a80:	1900                	addi	s0,sp,176
    3a82:	0000006b          	0x6b
    3a86:	050e                	slli	a0,a0,0x3
    3a88:	013d                	addi	sp,sp,15
    3a8a:	0679                	addi	a2,a2,30
    3a8c:	0000                	unimp
    3a8e:	00056e17          	auipc	t3,0x56
    3a92:	0500                	addi	s0,sp,640
    3a94:	013e                	slli	sp,sp,0xf
    3a96:	0679                	addi	a2,a2,30
    3a98:	0000                	unimp
    3a9a:	1700                	addi	s0,sp,928
    3a9c:	0308                	addi	a0,sp,384
    3a9e:	0000                	unimp
    3aa0:	3f05                	jal	39d0 <__BSS_START__+0x110>
    3aa2:	7901                	lui	s2,0xfffe0
    3aa4:	0006                	0x6
    3aa6:	0600                	addi	s0,sp,768
    3aa8:	0005b517          	auipc	a0,0x5b
    3aac:	0500                	addi	s0,sp,640
    3aae:	0140                	addi	s0,sp,132
    3ab0:	004e                	0x4e
    3ab2:	0000                	unimp
    3ab4:	000c                	addi	a1,sp,0
    3ab6:	4e08                	lw	a0,24(a2)
    3ab8:	0000                	unimp
    3aba:	8900                	0x8900
    3abc:	0006                	0x6
    3abe:	0900                	addi	s0,sp,144
    3ac0:	0024                	addi	s1,sp,8
    3ac2:	0000                	unimp
    3ac4:	0002                	0x2
    3ac6:	d01a                	sw	t1,32(sp)
    3ac8:	5705                	li	a4,-31
    3aca:	8a02                	jr	s4
    3acc:	17000007          	0x17000007
    3ad0:	0344                	addi	s1,sp,388
    3ad2:	0000                	unimp
    3ad4:	5905                	li	s2,-31
    3ad6:	2402                	fld	fs0,0(sp)
    3ad8:	0000                	unimp
    3ada:	0000                	unimp
    3adc:	00058a17          	auipc	s4,0x58
    3ae0:	0500                	addi	s0,sp,640
    3ae2:	025a                	slli	tp,tp,0x16
    3ae4:	0552                	slli	a0,a0,0x14
    3ae6:	0000                	unimp
    3ae8:	1704                	addi	s1,sp,928
    3aea:	02cc                	addi	a1,sp,324
    3aec:	0000                	unimp
    3aee:	5b05                	li	s6,-31
    3af0:	8a02                	jr	s4
    3af2:	08000007          	0x8000007
    3af6:	00073017          	auipc	zero,0x73
    3afa:	0500                	addi	s0,sp,640
    3afc:	025c                	addi	a5,sp,260
    3afe:	017e                	slli	sp,sp,0x1f
    3b00:	0000                	unimp
    3b02:	1724                	addi	s1,sp,936
    3b04:	00000207          	0x207
    3b08:	5d05                	li	s10,-31
    3b0a:	1d02                	slli	s10,s10,0x20
    3b0c:	0000                	unimp
    3b0e:	4800                	lw	s0,16(s0)
    3b10:	00079e17          	auipc	t3,0x79
    3b14:	0500                	addi	s0,sp,640
    3b16:	025e                	slli	tp,tp,0x17
    3b18:	00000063          	beqz	zero,3b18 <__BSS_START__+0x258>
    3b1c:	1750                	addi	a2,sp,932
    3b1e:	0748                	addi	a0,sp,900
    3b20:	0000                	unimp
    3b22:	5f05                	li	t5,-31
    3b24:	4402                	lw	s0,0(sp)
    3b26:	0006                	0x6
    3b28:	5800                	lw	s0,48(s0)
    3b2a:	00048117          	auipc	sp,0x48
    3b2e:	0500                	addi	s0,sp,640
    3b30:	0260                	addi	s0,sp,268
    3b32:	00f2                	slli	ra,ra,0x1c
    3b34:	0000                	unimp
    3b36:	1768                	addi	a0,sp,940
    3b38:	0768                	addi	a0,sp,908
    3b3a:	0000                	unimp
    3b3c:	6105                	addi	sp,sp,32
    3b3e:	f202                	fsw	ft0,36(sp)
    3b40:	0000                	unimp
    3b42:	7000                	flw	fs0,32(s0)
    3b44:	00013f17          	auipc	t5,0x13
    3b48:	0500                	addi	s0,sp,640
    3b4a:	0262                	slli	tp,tp,0x18
    3b4c:	00f2                	slli	ra,ra,0x1c
    3b4e:	0000                	unimp
    3b50:	1778                	addi	a4,sp,940
    3b52:	062c                	addi	a1,sp,776
    3b54:	0000                	unimp
    3b56:	6305                	lui	t1,0x1
    3b58:	9a02                	jalr	s4
    3b5a:	80000007          	0x80000007
    3b5e:	0002c017          	auipc	zero,0x2c
    3b62:	0500                	addi	s0,sp,640
    3b64:	0264                	addi	s1,sp,268
    3b66:	07aa                	slli	a5,a5,0xa
    3b68:	0000                	unimp
    3b6a:	1788                	addi	a0,sp,992
    3b6c:	00000097          	auipc	ra,0x0
    3b70:	6505                	lui	a0,0x1
    3b72:	1d02                	slli	s10,s10,0x20
    3b74:	0000                	unimp
    3b76:	a000                	fsd	fs0,0(s0)
    3b78:	0001d117          	auipc	sp,0x1d
    3b7c:	0500                	addi	s0,sp,640
    3b7e:	0266                	slli	tp,tp,0x19
    3b80:	00f2                	slli	ra,ra,0x1c
    3b82:	0000                	unimp
    3b84:	17a4                	addi	s1,sp,1000
    3b86:	0102                	slli	sp,sp,0x0
    3b88:	0000                	unimp
    3b8a:	6705                	lui	a4,0x1
    3b8c:	f202                	fsw	ft0,36(sp)
    3b8e:	0000                	unimp
    3b90:	ac00                	fsd	fs0,24(s0)
    3b92:	0001c017          	auipc	zero,0x1c
    3b96:	0500                	addi	s0,sp,640
    3b98:	0268                	addi	a0,sp,268
    3b9a:	00f2                	slli	ra,ra,0x1c
    3b9c:	0000                	unimp
    3b9e:	17b4                	addi	a3,sp,1000
    3ba0:	00aa                	slli	ra,ra,0xa
    3ba2:	0000                	unimp
    3ba4:	6905                	lui	s2,0x1
    3ba6:	f202                	fsw	ft0,36(sp)
    3ba8:	0000                	unimp
    3baa:	bc00                	fsd	fs0,56(s0)
    3bac:	0000b917          	auipc	s2,0xb
    3bb0:	0500                	addi	s0,sp,640
    3bb2:	026a                	slli	tp,tp,0x1a
    3bb4:	00f2                	slli	ra,ra,0x1c
    3bb6:	0000                	unimp
    3bb8:	17c4                	addi	s1,sp,996
    3bba:	0000043b          	0x43b
    3bbe:	6b05                	lui	s6,0x1
    3bc0:	1d02                	slli	s10,s10,0x20
    3bc2:	0000                	unimp
    3bc4:	cc00                	sw	s0,24(s0)
    3bc6:	0800                	addi	s0,sp,16
    3bc8:	0558                	addi	a4,sp,644
    3bca:	0000                	unimp
    3bcc:	079a                	slli	a5,a5,0x6
    3bce:	0000                	unimp
    3bd0:	2409                	jal	3dd2 <__BSS_START__+0x512>
    3bd2:	0000                	unimp
    3bd4:	1900                	addi	s0,sp,176
    3bd6:	0800                	addi	s0,sp,16
    3bd8:	0558                	addi	a4,sp,644
    3bda:	0000                	unimp
    3bdc:	07aa                	slli	a5,a5,0xa
    3bde:	0000                	unimp
    3be0:	2409                	jal	3de2 <__BSS_START__+0x522>
    3be2:	0000                	unimp
    3be4:	0700                	addi	s0,sp,896
    3be6:	0800                	addi	s0,sp,16
    3be8:	0558                	addi	a4,sp,644
    3bea:	0000                	unimp
    3bec:	07ba                	slli	a5,a5,0xe
    3bee:	0000                	unimp
    3bf0:	2409                	jal	3df2 <__BSS_START__+0x532>
    3bf2:	0000                	unimp
    3bf4:	1700                	addi	s0,sp,928
    3bf6:	1a00                	addi	s0,sp,304
    3bf8:	05f0                	addi	a2,sp,716
    3bfa:	0270                	addi	a2,sp,268
    3bfc:	07de                	slli	a5,a5,0x17
    3bfe:	0000                	unimp
    3c00:	0002e717          	auipc	a4,0x2e
    3c04:	0500                	addi	s0,sp,640
    3c06:	07de0273          	0x7de0273
    3c0a:	0000                	unimp
    3c0c:	1700                	addi	s0,sp,928
    3c0e:	0216                	slli	tp,tp,0x5
    3c10:	0000                	unimp
    3c12:	7405                	lui	s0,0xfffe1
    3c14:	ee02                	fsw	ft0,28(sp)
    3c16:	78000007          	0x78000007
    3c1a:	0800                	addi	s0,sp,16
    3c1c:	000002c7          	fmsub.s	ft5,ft0,ft0,ft0,rne
    3c20:	07ee                	slli	a5,a5,0x1b
    3c22:	0000                	unimp
    3c24:	2409                	jal	3e26 <__BSS_START__+0x566>
    3c26:	0000                	unimp
    3c28:	1d00                	addi	s0,sp,688
    3c2a:	0800                	addi	s0,sp,16
    3c2c:	0024                	addi	s1,sp,8
    3c2e:	0000                	unimp
    3c30:	07fe                	slli	a5,a5,0x1f
    3c32:	0000                	unimp
    3c34:	2409                	jal	3e36 <__BSS_START__+0x576>
    3c36:	0000                	unimp
    3c38:	1d00                	addi	s0,sp,688
    3c3a:	1b00                	addi	s0,sp,432
    3c3c:	05f0                	addi	a2,sp,716
    3c3e:	0255                	addi	tp,tp,21
    3c40:	0820                	addi	s0,sp,24
    3c42:	0000                	unimp
    3c44:	ba1c                	fsd	fa5,48(a2)
    3c46:	0004                	addi	s1,sp,0
    3c48:	0500                	addi	s0,sp,640
    3c4a:	026c                	addi	a1,sp,268
    3c4c:	0689                	addi	a3,a3,2
    3c4e:	0000                	unimp
    3c50:	131c                	addi	a5,sp,416
    3c52:	05000007          	0x5000007
    3c56:	0275                	addi	tp,tp,29
    3c58:	07ba                	slli	a5,a5,0xe
    3c5a:	0000                	unimp
    3c5c:	0800                	addi	s0,sp,16
    3c5e:	0558                	addi	a4,sp,644
    3c60:	0000                	unimp
    3c62:	0830                	addi	a2,sp,24
    3c64:	0000                	unimp
    3c66:	2409                	jal	3e68 <__BSS_START__+0x5a8>
    3c68:	0000                	unimp
    3c6a:	1800                	addi	s0,sp,48
    3c6c:	1d00                	addi	s0,sp,688
    3c6e:	0000083b          	0x83b
    3c72:	1514                	addi	a3,sp,672
    3c74:	0004                	addi	s1,sp,0
    3c76:	0000                	unimp
    3c78:	0830040f          	0x830040f
    3c7c:	0000                	unimp
    3c7e:	0168040f          	0x168040f
    3c82:	0000                	unimp
    3c84:	521d                	li	tp,-25
    3c86:	0008                	addi	a0,sp,0
    3c88:	1400                	addi	s0,sp,544
    3c8a:	001d                	c.addi	zero,7
    3c8c:	0000                	unimp
    3c8e:	0f00                	addi	s0,sp,912
    3c90:	5804                	lw	s1,48(s0)
    3c92:	0008                	addi	a0,sp,0
    3c94:	0f00                	addi	s0,sp,912
    3c96:	4704                	lw	s1,8(a4)
    3c98:	0008                	addi	a0,sp,0
    3c9a:	0800                	addi	s0,sp,16
    3c9c:	000005f7          	0x5f7
    3ca0:	086e                	slli	a6,a6,0x1b
    3ca2:	0000                	unimp
    3ca4:	2409                	jal	3ea6 <__BSS_START__+0x5e6>
    3ca6:	0000                	unimp
    3ca8:	0200                	addi	s0,sp,256
    3caa:	1e00                	addi	s0,sp,816
    3cac:	05de                	slli	a1,a1,0x17
    3cae:	0000                	unimp
    3cb0:	fd05                	bnez	a0,3be8 <__BSS_START__+0x328>
    3cb2:	1502                	slli	a0,a0,0x20
    3cb4:	0004                	addi	s1,sp,0
    3cb6:	1e00                	addi	s0,sp,816
    3cb8:	000005d7          	0x5d7
    3cbc:	fe05                	bnez	a2,3bf4 <__BSS_START__+0x334>
    3cbe:	1b02                	slli	s6,s6,0x20
    3cc0:	0004                	addi	s1,sp,0
    3cc2:	0800                	addi	s0,sp,16
    3cc4:	058e                	slli	a1,a1,0x3
    3cc6:	0000                	unimp
    3cc8:	0891                	addi	a7,a7,4
    3cca:	0000                	unimp
    3ccc:	001f 8615 0008      	0x88615001f
    3cd2:	2000                	fld	fs0,0(s0)
    3cd4:	000001ab          	0x1ab
    3cd8:	1406                	slli	s0,s0,0x21
    3cda:	0891                	addi	a7,a7,4
    3cdc:	0000                	unimp
    3cde:	7720                	flw	fs0,104(a4)
    3ce0:	0004                	addi	s1,sp,0
    3ce2:	0600                	addi	s0,sp,768
    3ce4:	1d15                	addi	s10,s10,-27
    3ce6:	0000                	unimp
    3ce8:	0f00                	addi	s0,sp,912
    3cea:	b204                	fsd	fs1,32(a2)
    3cec:	0008                	addi	a0,sp,0
    3cee:	1300                	addi	s0,sp,416
    3cf0:	001d                	c.addi	zero,7
    3cf2:	0000                	unimp
    3cf4:	08c6                	slli	a7,a7,0x11
    3cf6:	0000                	unimp
    3cf8:	c614                	sw	a3,8(a2)
    3cfa:	0008                	addi	a0,sp,0
    3cfc:	1400                	addi	s0,sp,544
    3cfe:	08c6                	slli	a7,a7,0x11
    3d00:	0000                	unimp
    3d02:	0f00                	addi	s0,sp,912
    3d04:	cc04                	sw	s1,24(s0)
    3d06:	0008                	addi	a0,sp,0
    3d08:	2100                	fld	fs0,0(a0)
    3d0a:	b020                	fsd	fs0,96(s0)
    3d0c:	07000003          	lb	zero,112(zero) # 1fc02 <__C_STACK_TOP__+0xfc02>
    3d10:	525f 0005 2000      	0x20000005525f
    3d16:	02ee                	slli	t0,t0,0x1b
    3d18:	0000                	unimp
    3d1a:	1008                	addi	a0,sp,32
    3d1c:	000008e3          	beqz	zero,452c <_gp+0x48c>
    3d20:	0552040f          	0x552040f
    3d24:	0000                	unimp
    3d26:	b320                	fsd	fs0,96(a4)
    3d28:	08000003          	lb	zero,128(zero) # 80 <buflen.1744+0x40>
    3d2c:	52d8                	lw	a4,36(a3)
    3d2e:	0005                	c.addi	zero,1
    3d30:	2000                	fld	fs0,0(s0)
    3d32:	00dd                	addi	ra,ra,23
    3d34:	0000                	unimp
    3d36:	d908                	sw	a0,48(a0)
    3d38:	001d                	c.addi	zero,7
    3d3a:	0000                	unimp
    3d3c:	7420                	flw	fs0,104(s0)
    3d3e:	0005                	c.addi	zero,1
    3d40:	0800                	addi	s0,sp,16
    3d42:	1dd9                	addi	s11,s11,-10
    3d44:	0000                	unimp
    3d46:	2000                	fld	fs0,0(s0)
    3d48:	00000757          	0x757
    3d4c:	d908                	sw	a0,48(a0)
    3d4e:	001d                	c.addi	zero,7
    3d50:	0000                	unimp
    3d52:	2220                	fld	fs0,64(a2)
    3d54:	08000003          	lb	zero,128(zero) # 80 <buflen.1744+0x40>
    3d58:	00001ddb          	0x1ddb
    3d5c:	2000                	fld	fs0,0(s0)
    3d5e:	03e0                	addi	s0,sp,460
    3d60:	0000                	unimp
    3d62:	8b09                	andi	a4,a4,2
    3d64:	0055                	c.addi	zero,21
    3d66:	0000                	unimp
    3d68:	7e20                	flw	fs0,120(a2)
    3d6a:	0000                	unimp
    3d6c:	0900                	addi	s0,sp,144
    3d6e:	1d8c                	addi	a1,sp,752
    3d70:	0000                	unimp
    3d72:	0800                	addi	s0,sp,16
    3d74:	0552                	slli	a0,a0,0x14
    3d76:	0000                	unimp
    3d78:	0946                	slli	s2,s2,0x11
    3d7a:	0000                	unimp
    3d7c:	2409                	jal	3f7e <__BSS_START__+0x6be>
    3d7e:	0000                	unimp
    3d80:	0100                	addi	s0,sp,128
    3d82:	2000                	fld	fs0,0(s0)
    3d84:	0111                	addi	sp,sp,4
    3d86:	0000                	unimp
    3d88:	8f09                	sub	a4,a4,a0
    3d8a:	0936                	slli	s2,s2,0xd
    3d8c:	0000                	unimp
    3d8e:	5104                	lw	s1,32(a0)
    3d90:	0002                	0x2
    3d92:	0a00                	addi	s0,sp,272
    3d94:	242a                	fld	fs0,136(sp)
    3d96:	0000                	unimp
    3d98:	0400                	addi	s0,sp,512
    3d9a:	0465                	addi	s0,s0,25
    3d9c:	0000                	unimp
    3d9e:	2f0a                	fld	ft10,128(sp)
    3da0:	00000967          	jalr	s2,zero
    3da4:	096d040f          	0x96d040f
    3da8:	0000                	unimp
    3daa:	00095113          	srli	sp,s2,0x0
    3dae:	7c00                	flw	fs0,56(s0)
    3db0:	0009                	c.addi	zero,2
    3db2:	1400                	addi	s0,sp,544
    3db4:	08c6                	slli	a7,a7,0x11
    3db6:	0000                	unimp
    3db8:	0400                	addi	s0,sp,512
    3dba:	07a9                	addi	a5,a5,10
    3dbc:	0000                	unimp
    3dbe:	360a                	fld	fa2,160(sp)
    3dc0:	08ac                	addi	a1,sp,88
    3dc2:	0000                	unimp
    3dc4:	0a20                	addi	s0,sp,280
    3dc6:	0000                	unimp
    3dc8:	0a00                	addi	s0,sp,272
    3dca:	00095cbb          	0x95cbb
    3dce:	2000                	fld	fs0,0(s0)
    3dd0:	05c2                	slli	a1,a1,0x10
    3dd2:	0000                	unimp
    3dd4:	be0a                	fsd	ft2,312(sp)
    3dd6:	097c                	addi	a5,sp,156
    3dd8:	0000                	unimp
    3dda:	2422                	fld	fs0,8(sp)
    3ddc:	0002                	0x2
    3dde:	0700                	addi	s0,sp,896
    3de0:	2404                	fld	fs1,8(s0)
    3de2:	0000                	unimp
    3de4:	0b00                	addi	s0,sp,400
    3de6:	d318                	sw	a4,32(a4)
    3de8:	0009                	c.addi	zero,2
    3dea:	2300                	fld	fs0,0(a4)
    3dec:	0416                	slli	s0,s0,0x5
    3dee:	0000                	unimp
    3df0:	2300                	fld	fs0,0(a4)
    3df2:	0386                	slli	t2,t2,0x1
    3df4:	0000                	unimp
    3df6:	2301                	jal	42f6 <_gp+0x256>
    3df8:	0351                	addi	t1,t1,20
    3dfa:	0000                	unimp
    3dfc:	2302                	fld	ft6,0(sp)
    3dfe:	040d                	addi	s0,s0,3
    3e00:	0000                	unimp
    3e02:	075e2303          	lw	t1,117(t3) # 7cb85 <__C_STACK_TOP__+0x6cb85>
    3e06:	0000                	unimp
    3e08:	2304                	fld	fs1,0(a4)
    3e0a:	074d                	addi	a4,a4,19
    3e0c:	0000                	unimp
    3e0e:	0005                	c.addi	zero,1
    3e10:	f820                	fsw	fs0,112(s0)
    3e12:	0000                	unimp
    3e14:	0b00                	addi	s0,sp,400
    3e16:	9d20                	0x9d20
    3e18:	0009                	c.addi	zero,2
    3e1a:	2200                	fld	fs0,0(a2)
    3e1c:	035c                	addi	a5,sp,388
    3e1e:	0000                	unimp
    3e20:	00240407          	0x240407
    3e24:	0000                	unimp
    3e26:	0a02220b          	0xa02220b
    3e2a:	0000                	unimp
    3e2c:	00045b23          	0x45b23
    3e30:	0000                	unimp
    3e32:	00042c23          	sw	zero,24(s0) # fffe1018 <__C_STACK_TOP__+0xfffd1018>
    3e36:	0100                	addi	s0,sp,128
    3e38:	00059723          	sh	zero,14(a1) # e <buf.1743+0xe>
    3e3c:	0200                	addi	s0,sp,256
    3e3e:	2000                	fld	fs0,0(s0)
    3e40:	01df 0000 270b      	0x270b000001df
    3e46:	09de                	slli	s3,s3,0x17
    3e48:	0000                	unimp
    3e4a:	1320                	addi	s0,sp,424
    3e4c:	0c000003          	lb	zero,192(zero) # c0 <buflen.1744+0x80>
    3e50:	9125                	srli	a0,a0,0x29
    3e52:	0008                	addi	a0,sp,0
    3e54:	2000                	fld	fs0,0(s0)
    3e56:	000002a7          	0x2a7
    3e5a:	310c                	fld	fa1,32(a0)
    3e5c:	0891                	addi	a7,a7,4
    3e5e:	0000                	unimp
    3e60:	8504                	0x8504
    3e62:	0d000007          	0xd000007
    3e66:	0000407b          	0x407b
    3e6a:	1500                	addi	s0,sp,672
    3e6c:	00000a23          	sb	zero,20(zero) # 14 <buf.1743+0x14>
    3e70:	99040403          	lb	s0,-1648(s0)
    3e74:	03000003          	lb	zero,48(zero) # 30 <CL_SIZE+0x10>
    3e78:	0308                	addi	a0,sp,384
    3e7a:	0391                	addi	t2,t2,4
    3e7c:	0000                	unimp
    3e7e:	f1040803          	lb	a6,-240(s0)
    3e82:	0000                	unimp
    3e84:	0300                	addi	s0,sp,384
    3e86:	0310                	addi	a2,sp,384
    3e88:	0088                	addi	a0,sp,64
    3e8a:	0000                	unimp
    3e8c:	e4032003          	lw	zero,-448(t1) # e40 <vprintfmt.constprop.1+0xa04>
    3e90:	0000                	unimp
    3e92:	0800                	addi	s0,sp,16
    3e94:	0a2e                	slli	s4,s4,0xb
    3e96:	0000                	unimp
    3e98:	0a66                	slli	s4,s4,0x19
    3e9a:	0000                	unimp
    3e9c:	2409                	jal	409e <__BSS_START__+0x7de>
    3e9e:	0000                	unimp
    3ea0:	ff00                	fsw	fs0,56(a4)
    3ea2:	1500                	addi	s0,sp,672
    3ea4:	0a56                	slli	s4,s4,0x15
    3ea6:	0000                	unimp
    3ea8:	401e                	0x401e
    3eaa:	0006                	0x6
    3eac:	0d00                	addi	s0,sp,656
    3eae:	01fc                	addi	a5,sp,204
    3eb0:	0a66                	slli	s4,s4,0x19
    3eb2:	0000                	unimp
    3eb4:	9d1e                	add	s10,s10,t2
    3eb6:	0002                	0x2
    3eb8:	0d00                	addi	s0,sp,656
    3eba:	0202                	slli	tp,tp,0x0
    3ebc:	0a66                	slli	s4,s4,0x19
    3ebe:	0000                	unimp
    3ec0:	7724                	flw	fs1,104(a4)
    3ec2:	000a                	0xa
    3ec4:	0e00                	addi	s0,sp,784
    3ec6:	02b1                	addi	t0,t0,12
    3ec8:	0305                	addi	t1,t1,1
    3eca:	3778                	fld	fa4,232(a4)
    3ecc:	0000                	unimp
	...

Disassembly of section .debug_abbrev:

00000000 <.debug_abbrev>:
   0:	1101                	addi	sp,sp,-32
   2:	2501                	jal	602 <vprintfmt.constprop.1+0x1c6>
   4:	130e                	slli	t1,t1,0x23
   6:	1b0e030b          	0x1b0e030b
   a:	110e                	slli	sp,sp,0x23
   c:	1201                	addi	tp,tp,-32
   e:	1006                	0x1006
  10:	02000017          	auipc	zero,0x2000
  14:	0024                	addi	s1,sp,8
  16:	0b3e0b0b          	0xb3e0b0b
  1a:	00000e03          	lb	t3,0(zero) # 2000010 <__C_STACK_TOP__+0x1ff0010>
  1e:	0b002403          	lw	s0,176(zero) # b0 <buflen.1744+0x70>
  22:	030b3e0b          	0x30b3e0b
  26:	0008                	addi	a0,sp,0
  28:	0400                	addi	s0,sp,512
  2a:	0016                	0x16
  2c:	0b3a0e03          	lb	t3,179(s4) # 5bb8f <__C_STACK_TOP__+0x4bb8f>
  30:	13490b3b          	0x13490b3b
  34:	0000                	unimp
  36:	1605                	addi	a2,a2,-31
  38:	0300                	addi	s0,sp,384
  3a:	3a0e                	fld	fs4,224(sp)
  3c:	49053b0b          	0x49053b0b
  40:	06000013          	li	zero,96
  44:	0b0b0117          	auipc	sp,0xb0b0
  48:	0b3a                	slli	s6,s6,0xe
  4a:	13010b3b          	0x13010b3b
  4e:	0000                	unimp
  50:	03000d07          	0x3000d07
  54:	3a0e                	fld	fs4,224(sp)
  56:	490b3b0b          	0x490b3b0b
  5a:	08000013          	li	zero,128
  5e:	0101                	addi	sp,sp,0
  60:	1349                	addi	t1,t1,-14
  62:	1301                	addi	t1,t1,-32
  64:	0000                	unimp
  66:	2109                	jal	468 <vprintfmt.constprop.1+0x2c>
  68:	4900                	lw	s0,16(a0)
  6a:	000b2f13          	slti	t5,s6,0
  6e:	0a00                	addi	s0,sp,272
  70:	0b0b0113          	addi	sp,s6,176 # 10b0 <vprintfmt.constprop.1+0xc74>
  74:	0b3a                	slli	s6,s6,0xe
  76:	13010b3b          	0x13010b3b
  7a:	0000                	unimp
  7c:	03000d0b          	0x3000d0b
  80:	3a0e                	fld	fs4,224(sp)
  82:	490b3b0b          	0x490b3b0b
  86:	000b3813          	sltiu	a6,s6,0
  8a:	0c00                	addi	s0,sp,528
  8c:	0b0b000f          	0xb0b000f
  90:	0000                	unimp
  92:	130d                	addi	t1,t1,-29
  94:	0301                	addi	t1,t1,0
  96:	0b0e                	slli	s6,s6,0x3
  98:	3b0b3a0b          	0x3b0b3a0b
  9c:	0013010b          	0x13010b
  a0:	0e00                	addi	s0,sp,784
  a2:	000d                	c.addi	zero,3
  a4:	0b3a0803          	lb	a6,179(s4)
  a8:	13490b3b          	0x13490b3b
  ac:	0b38                	addi	a4,sp,408
  ae:	0000                	unimp
  b0:	0b000f0f          	0xb000f0f
  b4:	0013490b          	0x13490b
  b8:	1000                	addi	s0,sp,32
  ba:	0e030113          	addi	sp,t1,224
  be:	0b3a050b          	0xb3a050b
  c2:	13010b3b          	0x13010b3b
  c6:	0000                	unimp
  c8:	0d11                	addi	s10,s10,4
  ca:	0300                	addi	s0,sp,384
  cc:	3a0e                	fld	fs4,224(sp)
  ce:	490b3b0b          	0x490b3b0b
  d2:	00053813          	sltiu	a6,a0,0
  d6:	1200                	addi	s0,sp,288
  d8:	0015                	c.addi	zero,5
  da:	00001927          	0x1927
  de:	27011513          	0x27011513
  e2:	4919                	li	s2,6
  e4:	00130113          	addi	sp,t1,1
  e8:	1400                	addi	s0,sp,544
  ea:	0005                	c.addi	zero,1
  ec:	1349                	addi	t1,t1,-14
  ee:	0000                	unimp
  f0:	2615                	jal	414 <STACK_SIZE+0x14>
  f2:	4900                	lw	s0,16(a0)
  f4:	16000013          	li	zero,352
  f8:	0e030113          	addi	sp,t1,224
  fc:	0b3a050b          	0xb3a050b
 100:	1301053b          	0x1301053b
 104:	0000                	unimp
 106:	03000d17          	auipc	s10,0x3000
 10a:	3a0e                	fld	fs4,224(sp)
 10c:	49053b0b          	0x49053b0b
 110:	000b3813          	sltiu	a6,s6,0
 114:	1800                	addi	s0,sp,48
 116:	000d                	c.addi	zero,3
 118:	0b3a0e03          	lb	t3,179(s4)
 11c:	1349053b          	0x1349053b
 120:	0538                	addi	a4,sp,648
 122:	0000                	unimp
 124:	1319                	addi	t1,t1,-26
 126:	0301                	addi	t1,t1,0
 128:	0b0e                	slli	s6,s6,0x3
 12a:	3b0b3a0b          	0x3b0b3a0b
 12e:	0105                	addi	sp,sp,1
 130:	1a000013          	li	zero,416
 134:	0b0b0113          	addi	sp,s6,176
 138:	0b3a                	slli	s6,s6,0xe
 13a:	1301053b          	0x1301053b
 13e:	0000                	unimp
 140:	0b01171b          	0xb01171b
 144:	3b0b3a0b          	0x3b0b3a0b
 148:	0105                	addi	sp,sp,1
 14a:	1c000013          	li	zero,448
 14e:	000d                	c.addi	zero,3
 150:	0b3a0e03          	lb	t3,179(s4)
 154:	1349053b          	0x1349053b
 158:	0000                	unimp
 15a:	151d                	addi	a0,a0,-25
 15c:	2701                	jal	85c <vprintfmt.constprop.1+0x420>
 15e:	0119                	addi	sp,sp,6
 160:	1e000013          	li	zero,480
 164:	0034                	addi	a3,sp,8
 166:	0b3a0e03          	lb	t3,179(s4)
 16a:	1349053b          	0x1349053b
 16e:	193c193f 211f0000 	0x211f0000193c193f
 176:	0000                	unimp
 178:	2000                	fld	fs0,0(s0)
 17a:	0034                	addi	a3,sp,8
 17c:	0b3a0e03          	lb	t3,179(s4)
 180:	13490b3b          	0x13490b3b
 184:	193c193f 26210000 	0x26210000193c193f
 18c:	0000                	unimp
 18e:	2200                	fld	fs0,0(a2)
 190:	0104                	addi	s1,sp,128
 192:	0b3e0e03          	lb	t3,179(t3)
 196:	13490b0b          	0x13490b0b
 19a:	0b3a                	slli	s6,s6,0xe
 19c:	13010b3b          	0x13010b3b
 1a0:	0000                	unimp
 1a2:	03002823          	sw	a6,48(zero) # 30 <CL_SIZE+0x10>
 1a6:	1c0e                	slli	s8,s8,0x23
 1a8:	2400000b          	0x2400000b
 1ac:	000d                	c.addi	zero,3
 1ae:	0b3a0803          	lb	a6,179(s4)
 1b2:	1349053b          	0x1349053b
 1b6:	0b38                	addi	a4,sp,408
 1b8:	0000                	unimp
 1ba:	0d25                	addi	s10,s10,9
 1bc:	0300                	addi	s0,sp,384
 1be:	3a08                	fld	fa0,48(a2)
 1c0:	49053b0b          	0x49053b0b
 1c4:	26000013          	li	zero,608
 1c8:	012e                	slli	sp,sp,0xb
 1ca:	0e03193f 053b0b3a 	0x53b0b3a0e03193f
 1d2:	13491927          	0x13491927
 1d6:	0111                	addi	sp,sp,4
 1d8:	0612                	slli	a2,a2,0x4
 1da:	1840                	addi	s0,sp,52
 1dc:	01194297          	auipc	t0,0x1194
 1e0:	27000013          	li	zero,624
 1e4:	0005                	c.addi	zero,1
 1e6:	0b3a0803          	lb	a6,179(s4)
 1ea:	1349053b          	0x1349053b
 1ee:	1702                	slli	a4,a4,0x20
 1f0:	0000                	unimp
 1f2:	3428                	fld	fa0,104(s0)
 1f4:	0300                	addi	s0,sp,384
 1f6:	3a08                	fld	fa0,48(a2)
 1f8:	49053b0b          	0x49053b0b
 1fc:	00170213          	addi	tp,a4,1 # 31c01 <__C_STACK_TOP__+0x21c01>
 200:	2900                	fld	fs0,16(a0)
 202:	011d                	addi	sp,sp,7
 204:	1331                	addi	t1,t1,-20
 206:	0152                	slli	sp,sp,0x14
 208:	1755                	addi	a4,a4,-11
 20a:	0b58                	addi	a4,sp,404
 20c:	0559                	addi	a0,a0,22
 20e:	0000                	unimp
 210:	052a                	slli	a0,a0,0xa
 212:	3100                	fld	fs0,32(a0)
 214:	00170213          	addi	tp,a4,1
 218:	2b00                	fld	fs0,16(a4)
 21a:	0005                	c.addi	zero,1
 21c:	1331                	addi	t1,t1,-20
 21e:	0000                	unimp
 220:	0b2c                	addi	a1,sp,408
 222:	5501                	li	a0,-32
 224:	2d000017          	auipc	zero,0x2d000
 228:	0034                	addi	a3,sp,8
 22a:	1331                	addi	t1,t1,-20
 22c:	0000                	unimp
 22e:	342e                	fld	fs0,232(sp)
 230:	3100                	fld	fs0,32(a0)
 232:	00170213          	addi	tp,a4,1
 236:	2f00                	fld	fs0,24(a4)
 238:	1331010b          	0x1331010b
 23c:	1755                	addi	a4,a4,-11
 23e:	1301                	addi	t1,t1,-32
 240:	0000                	unimp
 242:	0b30                	addi	a2,sp,408
 244:	3101                	jal	fffffe44 <__C_STACK_TOP__+0xfffefe44>
 246:	12011113          	0x12011113
 24a:	0106                	slli	sp,sp,0x1
 24c:	31000013          	li	zero,784
 250:	1331010b          	0x1331010b
 254:	0111                	addi	sp,sp,4
 256:	0612                	slli	a2,a2,0x4
 258:	0000                	unimp
 25a:	3432                	fld	fs0,296(sp)
 25c:	3100                	fld	fs0,32(a0)
 25e:	00180213          	addi	tp,a6,1 # 1e92f <__C_STACK_TOP__+0xe92f>
 262:	3300                	fld	fs0,32(a4)
 264:	012e                	slli	sp,sp,0xb
 266:	0b3a0e03          	lb	t3,179(s4)
 26a:	1927053b          	0x1927053b
 26e:	1349                	addi	t1,t1,-14
 270:	0b20                	addi	s0,sp,408
 272:	1301                	addi	t1,t1,-32
 274:	0000                	unimp
 276:	0534                	addi	a3,sp,648
 278:	0300                	addi	s0,sp,384
 27a:	3a08                	fld	fa0,48(a2)
 27c:	49053b0b          	0x49053b0b
 280:	35000013          	li	zero,848
 284:	0034                	addi	a3,sp,8
 286:	0b3a0803          	lb	a6,179(s4)
 28a:	1349053b          	0x1349053b
 28e:	0000                	unimp
 290:	0b36                	slli	s6,s6,0xd
 292:	0101                	addi	sp,sp,0
 294:	37000013          	li	zero,880
 298:	0034                	addi	a3,sp,8
 29a:	0b3a0e03          	lb	t3,179(s4)
 29e:	1349053b          	0x1349053b
 2a2:	0000                	unimp
 2a4:	0b38                	addi	a4,sp,408
 2a6:	0001                	nop
 2a8:	0000                	unimp
 2aa:	1101                	addi	sp,sp,-32
 2ac:	2501                	jal	8ac <vprintfmt.constprop.1+0x470>
 2ae:	130e                	slli	t1,t1,0x23
 2b0:	1b0e030b          	0x1b0e030b
 2b4:	110e                	slli	sp,sp,0x23
 2b6:	1201                	addi	tp,tp,-32
 2b8:	1006                	0x1006
 2ba:	02000017          	auipc	zero,0x2000
 2be:	0024                	addi	s1,sp,8
 2c0:	0b3e0b0b          	0xb3e0b0b
 2c4:	00000e03          	lb	t3,0(zero) # 20002ba <__C_STACK_TOP__+0x1ff02ba>
 2c8:	0b002403          	lw	s0,176(zero) # b0 <buflen.1744+0x70>
 2cc:	030b3e0b          	0x30b3e0b
 2d0:	0008                	addi	a0,sp,0
 2d2:	0400                	addi	s0,sp,512
 2d4:	0016                	0x16
 2d6:	0b3a0e03          	lb	t3,179(s4)
 2da:	13490b3b          	0x13490b3b
 2de:	0000                	unimp
 2e0:	1605                	addi	a2,a2,-31
 2e2:	0300                	addi	s0,sp,384
 2e4:	3a0e                	fld	fs4,224(sp)
 2e6:	49053b0b          	0x49053b0b
 2ea:	06000013          	li	zero,96
 2ee:	0b0b0117          	auipc	sp,0xb0b0
 2f2:	0b3a                	slli	s6,s6,0xe
 2f4:	13010b3b          	0x13010b3b
 2f8:	0000                	unimp
 2fa:	03000d07          	0x3000d07
 2fe:	3a0e                	fld	fs4,224(sp)
 300:	490b3b0b          	0x490b3b0b
 304:	08000013          	li	zero,128
 308:	0101                	addi	sp,sp,0
 30a:	1349                	addi	t1,t1,-14
 30c:	1301                	addi	t1,t1,-32
 30e:	0000                	unimp
 310:	2109                	jal	712 <vprintfmt.constprop.1+0x2d6>
 312:	4900                	lw	s0,16(a0)
 314:	000b2f13          	slti	t5,s6,0
 318:	0a00                	addi	s0,sp,272
 31a:	0b0b0113          	addi	sp,s6,176
 31e:	0b3a                	slli	s6,s6,0xe
 320:	13010b3b          	0x13010b3b
 324:	0000                	unimp
 326:	03000d0b          	0x3000d0b
 32a:	3a0e                	fld	fs4,224(sp)
 32c:	490b3b0b          	0x490b3b0b
 330:	000b3813          	sltiu	a6,s6,0
 334:	0c00                	addi	s0,sp,528
 336:	0b0b000f          	0xb0b000f
 33a:	0000                	unimp
 33c:	130d                	addi	t1,t1,-29
 33e:	0301                	addi	t1,t1,0
 340:	0b0e                	slli	s6,s6,0x3
 342:	3b0b3a0b          	0x3b0b3a0b
 346:	0013010b          	0x13010b
 34a:	0e00                	addi	s0,sp,784
 34c:	000d                	c.addi	zero,3
 34e:	0b3a0803          	lb	a6,179(s4)
 352:	13490b3b          	0x13490b3b
 356:	0b38                	addi	a4,sp,408
 358:	0000                	unimp
 35a:	0b000f0f          	0xb000f0f
 35e:	0013490b          	0x13490b
 362:	1000                	addi	s0,sp,32
 364:	0e030113          	addi	sp,t1,224
 368:	0b3a050b          	0xb3a050b
 36c:	13010b3b          	0x13010b3b
 370:	0000                	unimp
 372:	0d11                	addi	s10,s10,4
 374:	0300                	addi	s0,sp,384
 376:	3a0e                	fld	fs4,224(sp)
 378:	490b3b0b          	0x490b3b0b
 37c:	00053813          	sltiu	a6,a0,0
 380:	1200                	addi	s0,sp,288
 382:	0015                	c.addi	zero,5
 384:	00001927          	0x1927
 388:	27011513          	0x27011513
 38c:	4919                	li	s2,6
 38e:	00130113          	addi	sp,t1,1
 392:	1400                	addi	s0,sp,544
 394:	0005                	c.addi	zero,1
 396:	1349                	addi	t1,t1,-14
 398:	0000                	unimp
 39a:	2615                	jal	6be <vprintfmt.constprop.1+0x282>
 39c:	4900                	lw	s0,16(a0)
 39e:	16000013          	li	zero,352
 3a2:	0e030113          	addi	sp,t1,224
 3a6:	0b3a050b          	0xb3a050b
 3aa:	1301053b          	0x1301053b
 3ae:	0000                	unimp
 3b0:	03000d17          	auipc	s10,0x3000
 3b4:	3a0e                	fld	fs4,224(sp)
 3b6:	49053b0b          	0x49053b0b
 3ba:	000b3813          	sltiu	a6,s6,0
 3be:	1800                	addi	s0,sp,48
 3c0:	000d                	c.addi	zero,3
 3c2:	0b3a0e03          	lb	t3,179(s4)
 3c6:	1349053b          	0x1349053b
 3ca:	0538                	addi	a4,sp,648
 3cc:	0000                	unimp
 3ce:	1319                	addi	t1,t1,-26
 3d0:	0301                	addi	t1,t1,0
 3d2:	0b0e                	slli	s6,s6,0x3
 3d4:	3b0b3a0b          	0x3b0b3a0b
 3d8:	0105                	addi	sp,sp,1
 3da:	1a000013          	li	zero,416
 3de:	0b0b0113          	addi	sp,s6,176
 3e2:	0b3a                	slli	s6,s6,0xe
 3e4:	1301053b          	0x1301053b
 3e8:	0000                	unimp
 3ea:	0b01171b          	0xb01171b
 3ee:	3b0b3a0b          	0x3b0b3a0b
 3f2:	0105                	addi	sp,sp,1
 3f4:	1c000013          	li	zero,448
 3f8:	000d                	c.addi	zero,3
 3fa:	0b3a0e03          	lb	t3,179(s4)
 3fe:	1349053b          	0x1349053b
 402:	0000                	unimp
 404:	151d                	addi	a0,a0,-25
 406:	2701                	jal	b06 <vprintfmt.constprop.1+0x6ca>
 408:	0119                	addi	sp,sp,6
 40a:	1e000013          	li	zero,480
 40e:	0034                	addi	a3,sp,8
 410:	0b3a0e03          	lb	t3,179(s4)
 414:	1349053b          	0x1349053b
 418:	193c193f 211f0000 	0x211f0000193c193f
 420:	0000                	unimp
 422:	2000                	fld	fs0,0(s0)
 424:	0034                	addi	a3,sp,8
 426:	0b3a0e03          	lb	t3,179(s4)
 42a:	13490b3b          	0x13490b3b
 42e:	193c193f 26210000 	0x26210000193c193f
 436:	0000                	unimp
 438:	2200                	fld	fs0,0(a2)
 43a:	0104                	addi	s1,sp,128
 43c:	0b3e0e03          	lb	t3,179(t3)
 440:	13490b0b          	0x13490b0b
 444:	0b3a                	slli	s6,s6,0xe
 446:	13010b3b          	0x13010b3b
 44a:	0000                	unimp
 44c:	03002823          	sw	a6,48(zero) # 30 <CL_SIZE+0x10>
 450:	1c0e                	slli	s8,s8,0x23
 452:	2400000b          	0x2400000b
 456:	000d                	c.addi	zero,3
 458:	0b3a0803          	lb	a6,179(s4)
 45c:	1349053b          	0x1349053b
 460:	0b38                	addi	a4,sp,408
 462:	0000                	unimp
 464:	0d25                	addi	s10,s10,9
 466:	0300                	addi	s0,sp,384
 468:	3a08                	fld	fa0,48(a2)
 46a:	49053b0b          	0x49053b0b
 46e:	26000013          	li	zero,608
 472:	012e                	slli	sp,sp,0xb
 474:	0e03193f 053b0b3a 	0x53b0b3a0e03193f
 47c:	13491927          	0x13491927
 480:	0111                	addi	sp,sp,4
 482:	0612                	slli	a2,a2,0x4
 484:	1840                	addi	s0,sp,52
 486:	01194297          	auipc	t0,0x1194
 48a:	27000013          	li	zero,624
 48e:	0005                	c.addi	zero,1
 490:	0b3a0803          	lb	a6,179(s4)
 494:	1349053b          	0x1349053b
 498:	1702                	slli	a4,a4,0x20
 49a:	0000                	unimp
 49c:	1d28                	addi	a0,sp,696
 49e:	3101                	jal	9e <buflen.1744+0x5e>
 4a0:	55015213          	0x55015213
 4a4:	590b5817          	auipc	a6,0x590b5
 4a8:	0005                	c.addi	zero,1
 4aa:	2900                	fld	fs0,16(a0)
 4ac:	0005                	c.addi	zero,1
 4ae:	1331                	addi	t1,t1,-20
 4b0:	1702                	slli	a4,a4,0x20
 4b2:	0000                	unimp
 4b4:	0b2a                	slli	s6,s6,0xa
 4b6:	5501                	li	a0,-32
 4b8:	2b000017          	auipc	zero,0x2b000
 4bc:	0034                	addi	a3,sp,8
 4be:	1331                	addi	t1,t1,-20
 4c0:	0000                	unimp
 4c2:	342c                	fld	fa1,104(s0)
 4c4:	3100                	fld	fs0,32(a0)
 4c6:	00170213          	addi	tp,a4,1
 4ca:	2d00                	fld	fs0,24(a0)
 4cc:	1331010b          	0x1331010b
 4d0:	1755                	addi	a4,a4,-11
 4d2:	1301                	addi	t1,t1,-32
 4d4:	0000                	unimp
 4d6:	0b2e                	slli	s6,s6,0xb
 4d8:	3101                	jal	d8 <buflen.1744+0x98>
 4da:	12011113          	0x12011113
 4de:	0106                	slli	sp,sp,0x1
 4e0:	2f000013          	li	zero,752
 4e4:	1331010b          	0x1331010b
 4e8:	1755                	addi	a4,a4,-11
 4ea:	0000                	unimp
 4ec:	2e30                	fld	fa2,88(a2)
 4ee:	0301                	addi	t1,t1,0
 4f0:	3a0e                	fld	fs4,224(sp)
 4f2:	27053b0b          	0x27053b0b
 4f6:	4919                	li	s2,6
 4f8:	010b2013          	slti	zero,s6,16
 4fc:	31000013          	li	zero,784
 500:	0005                	c.addi	zero,1
 502:	0b3a0803          	lb	a6,179(s4)
 506:	1349053b          	0x1349053b
 50a:	0000                	unimp
 50c:	3432                	fld	fs0,296(sp)
 50e:	0300                	addi	s0,sp,384
 510:	3a08                	fld	fa0,48(a2)
 512:	49053b0b          	0x49053b0b
 516:	33000013          	li	zero,816
 51a:	1301010b          	0x1301010b
 51e:	0000                	unimp
 520:	3434                	fld	fa3,104(s0)
 522:	0300                	addi	s0,sp,384
 524:	3a0e                	fld	fs4,224(sp)
 526:	49053b0b          	0x49053b0b
 52a:	35000013          	li	zero,848
 52e:	0000010b          	0x10b
 532:	0100                	addi	s0,sp,128
 534:	0111                	addi	sp,sp,4
 536:	0e25                	addi	t3,t3,9
 538:	0e030b13          	addi	s6,t1,224
 53c:	01110e1b          	0x1110e1b
 540:	0612                	slli	a2,a2,0x4
 542:	1710                	addi	a2,sp,928
 544:	0000                	unimp
 546:	2402                	fld	fs0,0(sp)
 548:	0b00                	addi	s0,sp,400
 54a:	030b3e0b          	0x30b3e0b
 54e:	000e                	0xe
 550:	0300                	addi	s0,sp,384
 552:	0024                	addi	s1,sp,8
 554:	0b3e0b0b          	0xb3e0b0b
 558:	00000803          	lb	a6,0(zero) # 2b0004b8 <__C_STACK_TOP__+0x2aff04b8>
 55c:	1604                	addi	s1,sp,800
 55e:	0300                	addi	s0,sp,384
 560:	3a0e                	fld	fs4,224(sp)
 562:	490b3b0b          	0x490b3b0b
 566:	05000013          	li	zero,80
 56a:	0016                	0x16
 56c:	0b3a0e03          	lb	t3,179(s4)
 570:	1349053b          	0x1349053b
 574:	0000                	unimp
 576:	1706                	slli	a4,a4,0x21
 578:	0b01                	addi	s6,s6,0
 57a:	3b0b3a0b          	0x3b0b3a0b
 57e:	0013010b          	0x13010b
 582:	0700                	addi	s0,sp,896
 584:	000d                	c.addi	zero,3
 586:	0b3a0e03          	lb	t3,179(s4)
 58a:	13490b3b          	0x13490b3b
 58e:	0000                	unimp
 590:	0108                	addi	a0,sp,128
 592:	4901                	li	s2,0
 594:	00130113          	addi	sp,t1,1
 598:	0900                	addi	s0,sp,144
 59a:	0021                	c.addi	zero,8
 59c:	1349                	addi	t1,t1,-14
 59e:	00000b2f          	0xb2f
 5a2:	130a                	slli	t1,t1,0x22
 5a4:	0b01                	addi	s6,s6,0
 5a6:	3b0b3a0b          	0x3b0b3a0b
 5aa:	0013010b          	0x13010b
 5ae:	0b00                	addi	s0,sp,400
 5b0:	000d                	c.addi	zero,3
 5b2:	0b3a0e03          	lb	t3,179(s4)
 5b6:	13490b3b          	0x13490b3b
 5ba:	0b38                	addi	a4,sp,408
 5bc:	0000                	unimp
 5be:	0f0c                	addi	a1,sp,912
 5c0:	0b00                	addi	s0,sp,400
 5c2:	0d00000b          	0xd00000b
 5c6:	0e030113          	addi	sp,t1,224
 5ca:	0b3a0b0b          	0xb3a0b0b
 5ce:	13010b3b          	0x13010b3b
 5d2:	0000                	unimp
 5d4:	0d0e                	slli	s10,s10,0x3
 5d6:	0300                	addi	s0,sp,384
 5d8:	3a08                	fld	fa0,48(a2)
 5da:	490b3b0b          	0x490b3b0b
 5de:	000b3813          	sltiu	a6,s6,0
 5e2:	0f00                	addi	s0,sp,912
 5e4:	0b0b000f          	0xb0b000f
 5e8:	1349                	addi	t1,t1,-14
 5ea:	0000                	unimp
 5ec:	1310                	addi	a2,sp,416
 5ee:	0301                	addi	t1,t1,0
 5f0:	0b0e                	slli	s6,s6,0x3
 5f2:	3a05                	jal	ffffff22 <__C_STACK_TOP__+0xfffeff22>
 5f4:	010b3b0b          	0x10b3b0b
 5f8:	11000013          	li	zero,272
 5fc:	000d                	c.addi	zero,3
 5fe:	0b3a0e03          	lb	t3,179(s4)
 602:	13490b3b          	0x13490b3b
 606:	0538                	addi	a4,sp,648
 608:	0000                	unimp
 60a:	1512                	slli	a0,a0,0x24
 60c:	2700                	fld	fs0,8(a4)
 60e:	0019                	c.addi	zero,6
 610:	1300                	addi	s0,sp,416
 612:	0115                	addi	sp,sp,5
 614:	13491927          	0x13491927
 618:	1301                	addi	t1,t1,-32
 61a:	0000                	unimp
 61c:	0514                	addi	a3,sp,640
 61e:	4900                	lw	s0,16(a0)
 620:	15000013          	li	zero,336
 624:	0026                	0x26
 626:	1349                	addi	t1,t1,-14
 628:	0000                	unimp
 62a:	1316                	slli	t1,t1,0x25
 62c:	0301                	addi	t1,t1,0
 62e:	0b0e                	slli	s6,s6,0x3
 630:	3a05                	jal	ffffff60 <__C_STACK_TOP__+0xfffeff60>
 632:	01053b0b          	0x1053b0b
 636:	17000013          	li	zero,368
 63a:	000d                	c.addi	zero,3
 63c:	0b3a0e03          	lb	t3,179(s4)
 640:	1349053b          	0x1349053b
 644:	0b38                	addi	a4,sp,408
 646:	0000                	unimp
 648:	0d18                	addi	a4,sp,656
 64a:	0300                	addi	s0,sp,384
 64c:	3a0e                	fld	fs4,224(sp)
 64e:	49053b0b          	0x49053b0b
 652:	00053813          	sltiu	a6,a0,0
 656:	1900                	addi	s0,sp,176
 658:	0e030113          	addi	sp,t1,224
 65c:	0b3a0b0b          	0xb3a0b0b
 660:	1301053b          	0x1301053b
 664:	0000                	unimp
 666:	131a                	slli	t1,t1,0x26
 668:	0b01                	addi	s6,s6,0
 66a:	3b0b3a0b          	0x3b0b3a0b
 66e:	0105                	addi	sp,sp,1
 670:	1b000013          	li	zero,432
 674:	0b0b0117          	auipc	sp,0xb0b0
 678:	0b3a                	slli	s6,s6,0xe
 67a:	1301053b          	0x1301053b
 67e:	0000                	unimp
 680:	0d1c                	addi	a5,sp,656
 682:	0300                	addi	s0,sp,384
 684:	3a0e                	fld	fs4,224(sp)
 686:	49053b0b          	0x49053b0b
 68a:	1d000013          	li	zero,464
 68e:	0115                	addi	sp,sp,5
 690:	13011927          	0x13011927
 694:	0000                	unimp
 696:	341e                	fld	fs0,480(sp)
 698:	0300                	addi	s0,sp,384
 69a:	3a0e                	fld	fs4,224(sp)
 69c:	49053b0b          	0x49053b0b
 6a0:	3c193f13          	sltiu	t5,s2,961
 6a4:	0019                	c.addi	zero,6
 6a6:	1f00                	addi	s0,sp,944
 6a8:	0021                	c.addi	zero,8
 6aa:	0000                	unimp
 6ac:	3420                	fld	fs0,104(s0)
 6ae:	0300                	addi	s0,sp,384
 6b0:	3a0e                	fld	fs4,224(sp)
 6b2:	490b3b0b          	0x490b3b0b
 6b6:	3c193f13          	sltiu	t5,s2,961
 6ba:	0019                	c.addi	zero,6
 6bc:	2100                	fld	fs0,0(a0)
 6be:	0026                	0x26
 6c0:	0000                	unimp
 6c2:	0422                	slli	s0,s0,0x8
 6c4:	0301                	addi	t1,t1,0
 6c6:	3e0e                	fld	ft8,224(sp)
 6c8:	490b0b0b          	0x490b0b0b
 6cc:	3b0b3a13          	sltiu	s4,s6,944
 6d0:	0013010b          	0x13010b
 6d4:	2300                	fld	fs0,0(a4)
 6d6:	0028                	addi	a0,sp,8
 6d8:	0b1c0e03          	lb	t3,177(s8) # 90b1 <_gp+0x5011>
 6dc:	0000                	unimp
 6de:	0d24                	addi	s1,sp,664
 6e0:	0300                	addi	s0,sp,384
 6e2:	3a08                	fld	fa0,48(a2)
 6e4:	49053b0b          	0x49053b0b
 6e8:	000b3813          	sltiu	a6,s6,0
 6ec:	2500                	fld	fs0,8(a0)
 6ee:	000d                	c.addi	zero,3
 6f0:	0b3a0803          	lb	a6,179(s4)
 6f4:	1349053b          	0x1349053b
 6f8:	0000                	unimp
 6fa:	2e26                	fld	ft8,72(sp)
 6fc:	3f01                	jal	60c <vprintfmt.constprop.1+0x1d0>
 6fe:	0319                	addi	t1,t1,6
 700:	3a0e                	fld	fs4,224(sp)
 702:	27053b0b          	0x27053b0b
 706:	4919                	li	s2,6
 708:	12011113          	0x12011113
 70c:	4006                	0x4006
 70e:	9718                	0x9718
 710:	1942                	slli	s2,s2,0x30
 712:	1301                	addi	t1,t1,-32
 714:	0000                	unimp
 716:	03000527          	0x3000527
 71a:	3a08                	fld	fa0,48(a2)
 71c:	49053b0b          	0x49053b0b
 720:	00170213          	addi	tp,a4,1
 724:	2800                	fld	fs0,16(s0)
 726:	0034                	addi	a3,sp,8
 728:	0b3a0803          	lb	a6,179(s4)
 72c:	1349053b          	0x1349053b
 730:	1702                	slli	a4,a4,0x20
 732:	0000                	unimp
 734:	1d29                	addi	s10,s10,-22
 736:	3101                	jal	336 <printf_putch+0x36>
 738:	55015213          	0x55015213
 73c:	590b5817          	auipc	a6,0x590b5
 740:	0005                	c.addi	zero,1
 742:	2a00                	fld	fs0,16(a2)
 744:	0005                	c.addi	zero,1
 746:	1331                	addi	t1,t1,-20
 748:	1702                	slli	a4,a4,0x20
 74a:	0000                	unimp
 74c:	55010b2b          	0x55010b2b
 750:	2c000017          	auipc	zero,0x2c000
 754:	0034                	addi	a3,sp,8
 756:	1331                	addi	t1,t1,-20
 758:	0000                	unimp
 75a:	342d                	jal	184 <SIM_STOP+0x8c>
 75c:	3100                	fld	fs0,32(a0)
 75e:	00170213          	addi	tp,a4,1
 762:	2e00                	fld	fs0,24(a2)
 764:	1331010b          	0x1331010b
 768:	1755                	addi	a4,a4,-11
 76a:	1301                	addi	t1,t1,-32
 76c:	0000                	unimp
 76e:	31010b2f          	0x31010b2f
 772:	12011113          	0x12011113
 776:	0106                	slli	sp,sp,0x1
 778:	30000013          	li	zero,768
 77c:	1331010b          	0x1331010b
 780:	0111                	addi	sp,sp,4
 782:	0612                	slli	a2,a2,0x4
 784:	0000                	unimp
 786:	3431                	jal	192 <SIM_STOP+0x9a>
 788:	3100                	fld	fs0,32(a0)
 78a:	00180213          	addi	tp,a6,1 # 590b573d <__C_STACK_TOP__+0x590a573d>
 78e:	3200                	fld	fs0,32(a2)
 790:	012e                	slli	sp,sp,0xb
 792:	0b3a0e03          	lb	t3,179(s4)
 796:	1927053b          	0x1927053b
 79a:	1349                	addi	t1,t1,-14
 79c:	0b20                	addi	s0,sp,408
 79e:	1301                	addi	t1,t1,-32
 7a0:	0000                	unimp
 7a2:	03000533          	mul	a0,zero,a6
 7a6:	3a08                	fld	fa0,48(a2)
 7a8:	49053b0b          	0x49053b0b
 7ac:	34000013          	li	zero,832
 7b0:	0034                	addi	a3,sp,8
 7b2:	0b3a0803          	lb	a6,179(s4)
 7b6:	1349053b          	0x1349053b
 7ba:	0000                	unimp
 7bc:	0b35                	addi	s6,s6,13
 7be:	0101                	addi	sp,sp,0
 7c0:	36000013          	li	zero,864
 7c4:	0034                	addi	a3,sp,8
 7c6:	0b3a0e03          	lb	t3,179(s4)
 7ca:	1349053b          	0x1349053b
 7ce:	0000                	unimp
 7d0:	00010b37          	lui	s6,0x10
 7d4:	0000                	unimp
 7d6:	1101                	addi	sp,sp,-32
 7d8:	2501                	jal	dd8 <vprintfmt.constprop.1+0x99c>
 7da:	130e                	slli	t1,t1,0x23
 7dc:	1b0e030b          	0x1b0e030b
 7e0:	100e                	0x100e
 7e2:	02000017          	auipc	zero,0x2000
 7e6:	0024                	addi	s1,sp,8
 7e8:	0b3e0b0b          	0xb3e0b0b
 7ec:	00000803          	lb	a6,0(zero) # 20007e2 <__C_STACK_TOP__+0x1ff07e2>
 7f0:	0b002403          	lw	s0,176(zero) # b0 <buflen.1744+0x70>
 7f4:	030b3e0b          	0x30b3e0b
 7f8:	000e                	0xe
 7fa:	0400                	addi	s0,sp,512
 7fc:	0016                	0x16
 7fe:	0b3a0e03          	lb	t3,179(s4)
 802:	13490b3b          	0x13490b3b
 806:	0000                	unimp
 808:	1605                	addi	a2,a2,-31
 80a:	0300                	addi	s0,sp,384
 80c:	3a0e                	fld	fs4,224(sp)
 80e:	49053b0b          	0x49053b0b
 812:	06000013          	li	zero,96
 816:	0b0b0117          	auipc	sp,0xb0b0
 81a:	0b3a                	slli	s6,s6,0xe
 81c:	13010b3b          	0x13010b3b
 820:	0000                	unimp
 822:	03000d07          	0x3000d07
 826:	3a0e                	fld	fs4,224(sp)
 828:	490b3b0b          	0x490b3b0b
 82c:	08000013          	li	zero,128
 830:	0101                	addi	sp,sp,0
 832:	1349                	addi	t1,t1,-14
 834:	1301                	addi	t1,t1,-32
 836:	0000                	unimp
 838:	2109                	jal	c3a <vprintfmt.constprop.1+0x7fe>
 83a:	4900                	lw	s0,16(a0)
 83c:	000b2f13          	slti	t5,s6,0
 840:	0a00                	addi	s0,sp,272
 842:	0b0b0113          	addi	sp,s6,176 # 100b0 <__C_STACK_TOP__+0xb0>
 846:	0b3a                	slli	s6,s6,0xe
 848:	13010b3b          	0x13010b3b
 84c:	0000                	unimp
 84e:	03000d0b          	0x3000d0b
 852:	3a0e                	fld	fs4,224(sp)
 854:	490b3b0b          	0x490b3b0b
 858:	000b3813          	sltiu	a6,s6,0
 85c:	0c00                	addi	s0,sp,528
 85e:	0b0b000f          	0xb0b000f
 862:	0000                	unimp
 864:	130d                	addi	t1,t1,-29
 866:	0301                	addi	t1,t1,0
 868:	0b0e                	slli	s6,s6,0x3
 86a:	3b0b3a0b          	0x3b0b3a0b
 86e:	0013010b          	0x13010b
 872:	0e00                	addi	s0,sp,784
 874:	000d                	c.addi	zero,3
 876:	0b3a0803          	lb	a6,179(s4)
 87a:	13490b3b          	0x13490b3b
 87e:	0b38                	addi	a4,sp,408
 880:	0000                	unimp
 882:	0b000f0f          	0xb000f0f
 886:	0013490b          	0x13490b
 88a:	1000                	addi	s0,sp,32
 88c:	0e030113          	addi	sp,t1,224
 890:	0b3a050b          	0xb3a050b
 894:	13010b3b          	0x13010b3b
 898:	0000                	unimp
 89a:	0d11                	addi	s10,s10,4
 89c:	0300                	addi	s0,sp,384
 89e:	3a0e                	fld	fs4,224(sp)
 8a0:	490b3b0b          	0x490b3b0b
 8a4:	00053813          	sltiu	a6,a0,0
 8a8:	1200                	addi	s0,sp,288
 8aa:	0015                	c.addi	zero,5
 8ac:	00001927          	0x1927
 8b0:	27011513          	0x27011513
 8b4:	4919                	li	s2,6
 8b6:	00130113          	addi	sp,t1,1
 8ba:	1400                	addi	s0,sp,544
 8bc:	0005                	c.addi	zero,1
 8be:	1349                	addi	t1,t1,-14
 8c0:	0000                	unimp
 8c2:	2615                	jal	be6 <vprintfmt.constprop.1+0x7aa>
 8c4:	4900                	lw	s0,16(a0)
 8c6:	16000013          	li	zero,352
 8ca:	0e030113          	addi	sp,t1,224
 8ce:	0b3a050b          	0xb3a050b
 8d2:	1301053b          	0x1301053b
 8d6:	0000                	unimp
 8d8:	03000d17          	auipc	s10,0x3000
 8dc:	3a0e                	fld	fs4,224(sp)
 8de:	49053b0b          	0x49053b0b
 8e2:	000b3813          	sltiu	a6,s6,0
 8e6:	1800                	addi	s0,sp,48
 8e8:	000d                	c.addi	zero,3
 8ea:	0b3a0e03          	lb	t3,179(s4)
 8ee:	1349053b          	0x1349053b
 8f2:	0538                	addi	a4,sp,648
 8f4:	0000                	unimp
 8f6:	1319                	addi	t1,t1,-26
 8f8:	0301                	addi	t1,t1,0
 8fa:	0b0e                	slli	s6,s6,0x3
 8fc:	3b0b3a0b          	0x3b0b3a0b
 900:	0105                	addi	sp,sp,1
 902:	1a000013          	li	zero,416
 906:	0b0b0113          	addi	sp,s6,176
 90a:	0b3a                	slli	s6,s6,0xe
 90c:	1301053b          	0x1301053b
 910:	0000                	unimp
 912:	0b01171b          	0xb01171b
 916:	3b0b3a0b          	0x3b0b3a0b
 91a:	0105                	addi	sp,sp,1
 91c:	1c000013          	li	zero,448
 920:	000d                	c.addi	zero,3
 922:	0b3a0e03          	lb	t3,179(s4)
 926:	1349053b          	0x1349053b
 92a:	0000                	unimp
 92c:	151d                	addi	a0,a0,-25
 92e:	2701                	jal	102e <vprintfmt.constprop.1+0xbf2>
 930:	0119                	addi	sp,sp,6
 932:	1e000013          	li	zero,480
 936:	0034                	addi	a3,sp,8
 938:	0b3a0e03          	lb	t3,179(s4)
 93c:	1349053b          	0x1349053b
 940:	193c193f 211f0000 	0x211f0000193c193f
 948:	0000                	unimp
 94a:	2000                	fld	fs0,0(s0)
 94c:	0034                	addi	a3,sp,8
 94e:	0b3a0e03          	lb	t3,179(s4)
 952:	13490b3b          	0x13490b3b
 956:	193c193f 26210000 	0x26210000193c193f
 95e:	0000                	unimp
 960:	2200                	fld	fs0,0(a2)
 962:	0104                	addi	s1,sp,128
 964:	0b3e0e03          	lb	t3,179(t3)
 968:	13490b0b          	0x13490b0b
 96c:	0b3a                	slli	s6,s6,0xe
 96e:	13010b3b          	0x13010b3b
 972:	0000                	unimp
 974:	03002823          	sw	a6,48(zero) # 30 <CL_SIZE+0x10>
 978:	1c0e                	slli	s8,s8,0x23
 97a:	2400000b          	0x2400000b
 97e:	0034                	addi	a3,sp,8
 980:	0b3a1347          	fmsub.d	ft6,fs4,fs3,ft1,rtz
 984:	1802053b          	0x1802053b
 988:	0000                	unimp
	...

Disassembly of section .debug_loc:

00000000 <.debug_loc>:
       0:	0000                	unimp
       2:	0000                	unimp
       4:	000c                	addi	a1,sp,0
       6:	0000                	unimp
       8:	0006                	0x6
       a:	935a                	add	t1,t1,s6
       c:	5b04                	lw	s1,48(a4)
       e:	000c0493          	mv	s1,s8
      12:	0000                	unimp
      14:	0458                	addi	a4,sp,516
      16:	0000                	unimp
      18:	0006                	0x6
      1a:	0af503f3          	0xaf503f3
      1e:	9f2c                	0x9f2c
	...
      2c:	0024                	addi	s1,sp,8
      2e:	0000                	unimp
      30:	0006                	0x6
      32:	935c                	0x935c
      34:	5d04                	lw	s1,56(a0)
      36:	00240493          	addi	s1,s0,2
      3a:	0000                	unimp
      3c:	0458                	addi	a4,sp,516
      3e:	0000                	unimp
      40:	0006                	0x6
      42:	0cf503f3          	0xcf503f3
      46:	9f2c                	0x9f2c
	...
      54:	0008                	addi	a0,sp,0
      56:	0000                	unimp
      58:	0002                	0x2
      5a:	9f30                	0x9f30
      5c:	0008                	addi	a0,sp,0
      5e:	0000                	unimp
      60:	001c                	addi	a5,sp,0
      62:	0000                	unimp
      64:	ff090003          	lb	zero,-16(s2) # eb9c <_gp+0xaafc>
      68:	1c9f 0000 5800      	0x580000001c9f
      6e:	0004                	addi	s1,sp,0
      70:	0100                	addi	s0,sp,128
      72:	6100                	flw	fs0,0(a0)
	...
      80:	000c                	addi	a1,sp,0
      82:	0000                	unimp
      84:	0006                	0x6
      86:	935a                	add	t1,t1,s6
      88:	5b04                	lw	s1,48(a4)
      8a:	00180493          	addi	s1,a6,1
      8e:	0000                	unimp
      90:	001c                	addi	a5,sp,0
      92:	0000                	unimp
      94:	0006                	0x6
      96:	935a                	add	t1,t1,s6
      98:	5b04                	lw	s1,48(a4)
      9a:	00000493          	li	s1,0
	...
      a6:	0000                	unimp
      a8:	0024                	addi	s1,sp,8
      aa:	0000                	unimp
      ac:	0006                	0x6
      ae:	935c                	0x935c
      b0:	5d04                	lw	s1,56(a0)
      b2:	00300493          	li	s1,3
      b6:	0000                	unimp
      b8:	0048                	addi	a0,sp,4
      ba:	0000                	unimp
      bc:	0006                	0x6
      be:	935c                	0x935c
      c0:	5d04                	lw	s1,56(a0)
      c2:	00480493          	addi	s1,a6,4
      c6:	0000                	unimp
      c8:	0064                	addi	s1,sp,12
      ca:	0000                	unimp
      cc:	0006                	0x6
      ce:	935c                	0x935c
      d0:	5604                	lw	s1,40(a2)
      d2:	01280493          	addi	s1,a6,18
      d6:	0000                	unimp
      d8:	0130                	addi	a2,sp,136
      da:	0000                	unimp
      dc:	0006                	0x6
      de:	935c                	0x935c
      e0:	5604                	lw	s1,40(a2)
      e2:	013c0493          	addi	s1,s8,19
      e6:	0000                	unimp
      e8:	015c                	addi	a5,sp,132
      ea:	0000                	unimp
      ec:	0006                	0x6
      ee:	935c                	0x935c
      f0:	5604                	lw	s1,40(a2)
      f2:	01f00493          	li	s1,31
      f6:	0000                	unimp
      f8:	01f8                	addi	a4,sp,204
      fa:	0000                	unimp
      fc:	0006                	0x6
      fe:	935c                	0x935c
     100:	5604                	lw	s1,40(a2)
     102:	02900493          	li	s1,41
     106:	0000                	unimp
     108:	02a8                	addi	a0,sp,328
     10a:	0000                	unimp
     10c:	0006                	0x6
     10e:	935c                	0x935c
     110:	5604                	lw	s1,40(a2)
     112:	02a80493          	addi	s1,a6,42
     116:	0000                	unimp
     118:	02dc                	addi	a5,sp,324
     11a:	0000                	unimp
     11c:	0006                	0x6
     11e:	935c                	0x935c
     120:	5d04                	lw	s1,56(a0)
     122:	02f00493          	li	s1,47
     126:	0000                	unimp
     128:	02f4                	addi	a3,sp,332
     12a:	0000                	unimp
     12c:	0006                	0x6
     12e:	935c                	0x935c
     130:	5604                	lw	s1,40(a2)
     132:	02f40493          	addi	s1,s0,47
     136:	0000                	unimp
     138:	030c                	addi	a1,sp,384
     13a:	0000                	unimp
     13c:	0006                	0x6
     13e:	935c                	0x935c
     140:	5d04                	lw	s1,56(a0)
     142:	00000493          	li	s1,0
     146:	0000                	unimp
     148:	0000                	unimp
     14a:	0000                	unimp
     14c:	010c                	addi	a1,sp,128
     14e:	0000                	unimp
     150:	011c                	addi	a5,sp,128
     152:	0000                	unimp
     154:	0006                	0x6
     156:	935a                	add	t1,t1,s6
     158:	5b04                	lw	s1,48(a4)
     15a:	02ec0493          	addi	s1,s8,46
     15e:	0000                	unimp
     160:	02f0                	addi	a2,sp,332
     162:	0000                	unimp
     164:	0006                	0x6
     166:	935f 5e04 0493      	0x4935e04935f
     16c:	0454                	addi	a3,sp,516
     16e:	0000                	unimp
     170:	0458                	addi	a4,sp,516
     172:	0000                	unimp
     174:	0006                	0x6
     176:	935a                	add	t1,t1,s6
     178:	5b04                	lw	s1,48(a4)
     17a:	00000493          	li	s1,0
     17e:	0000                	unimp
     180:	0000                	unimp
     182:	0000                	unimp
     184:	0030                	addi	a2,sp,8
     186:	0000                	unimp
     188:	010c                	addi	a1,sp,128
     18a:	0000                	unimp
     18c:	0006                	0x6
     18e:	71f2                	flw	ft3,60(sp)
     190:	0000000b          	0xb
     194:	0128                	addi	a0,sp,136
     196:	0000                	unimp
     198:	0458                	addi	a4,sp,516
     19a:	0000                	unimp
     19c:	0006                	0x6
     19e:	71f2                	flw	ft3,60(sp)
     1a0:	0000000b          	0xb
	...
     1ac:	0030                	addi	a2,sp,8
     1ae:	0000                	unimp
     1b0:	0048                	addi	a0,sp,4
     1b2:	0000                	unimp
     1b4:	0006                	0x6
     1b6:	935c                	0x935c
     1b8:	5d04                	lw	s1,56(a0)
     1ba:	00480493          	addi	s1,a6,4
     1be:	0000                	unimp
     1c0:	0064                	addi	s1,sp,12
     1c2:	0000                	unimp
     1c4:	0006                	0x6
     1c6:	935c                	0x935c
     1c8:	5604                	lw	s1,40(a2)
     1ca:	01280493          	addi	s1,a6,18
     1ce:	0000                	unimp
     1d0:	0130                	addi	a2,sp,136
     1d2:	0000                	unimp
     1d4:	0006                	0x6
     1d6:	935c                	0x935c
     1d8:	5604                	lw	s1,40(a2)
     1da:	013c0493          	addi	s1,s8,19
     1de:	0000                	unimp
     1e0:	015c                	addi	a5,sp,132
     1e2:	0000                	unimp
     1e4:	0006                	0x6
     1e6:	935c                	0x935c
     1e8:	5604                	lw	s1,40(a2)
     1ea:	01f00493          	li	s1,31
     1ee:	0000                	unimp
     1f0:	01f8                	addi	a4,sp,204
     1f2:	0000                	unimp
     1f4:	0006                	0x6
     1f6:	935c                	0x935c
     1f8:	5604                	lw	s1,40(a2)
     1fa:	02900493          	li	s1,41
     1fe:	0000                	unimp
     200:	02a8                	addi	a0,sp,328
     202:	0000                	unimp
     204:	0006                	0x6
     206:	935c                	0x935c
     208:	5604                	lw	s1,40(a2)
     20a:	02a80493          	addi	s1,a6,42
     20e:	0000                	unimp
     210:	02dc                	addi	a5,sp,324
     212:	0000                	unimp
     214:	0006                	0x6
     216:	935c                	0x935c
     218:	5d04                	lw	s1,56(a0)
     21a:	02f00493          	li	s1,47
     21e:	0000                	unimp
     220:	02f4                	addi	a3,sp,332
     222:	0000                	unimp
     224:	0006                	0x6
     226:	935c                	0x935c
     228:	5604                	lw	s1,40(a2)
     22a:	02f40493          	addi	s1,s0,47
     22e:	0000                	unimp
     230:	030c                	addi	a1,sp,384
     232:	0000                	unimp
     234:	0006                	0x6
     236:	935c                	0x935c
     238:	5d04                	lw	s1,56(a0)
     23a:	00000493          	li	s1,0
     23e:	0000                	unimp
     240:	0000                	unimp
     242:	0000                	unimp
     244:	0034                	addi	a3,sp,8
     246:	0000                	unimp
     248:	008c                	addi	a1,sp,64
     24a:	0000                	unimp
     24c:	0001                	nop
     24e:	8c5c                	0x8c5c
     250:	0000                	unimp
     252:	0c00                	addi	s0,sp,528
     254:	0001                	nop
     256:	0100                	addi	s0,sp,128
     258:	6000                	flw	fs0,0(s0)
     25a:	0128                	addi	a0,sp,136
     25c:	0000                	unimp
     25e:	0148                	addi	a0,sp,132
     260:	0000                	unimp
     262:	0001                	nop
     264:	485c                	lw	a5,20(s0)
     266:	0001                	nop
     268:	9000                	0x9000
     26a:	0002                	0x2
     26c:	0100                	addi	s0,sp,128
     26e:	6000                	flw	fs0,0(s0)
     270:	0290                	addi	a2,sp,320
     272:	0000                	unimp
     274:	0424                	addi	s1,sp,520
     276:	0000                	unimp
     278:	0001                	nop
     27a:	005c                	addi	a5,sp,4
     27c:	0000                	unimp
     27e:	0000                	unimp
     280:	0000                	unimp
     282:	3800                	fld	fs0,48(s0)
     284:	0000                	unimp
     286:	4800                	lw	s0,16(s0)
     288:	0000                	unimp
     28a:	0100                	addi	s0,sp,128
     28c:	5d00                	lw	s0,56(a0)
     28e:	0048                	addi	a0,sp,4
     290:	0000                	unimp
     292:	0064                	addi	s1,sp,12
     294:	0000                	unimp
     296:	0001                	nop
     298:	2856                	fld	fa6,336(sp)
     29a:	0001                	nop
     29c:	3000                	fld	fs0,32(s0)
     29e:	0001                	nop
     2a0:	0100                	addi	s0,sp,128
     2a2:	5600                	lw	s0,40(a2)
     2a4:	013c                	addi	a5,sp,136
     2a6:	0000                	unimp
     2a8:	015c                	addi	a5,sp,132
     2aa:	0000                	unimp
     2ac:	0001                	nop
     2ae:	f056                	fsw	fs5,32(sp)
     2b0:	0001                	nop
     2b2:	f800                	fsw	fs0,48(s0)
     2b4:	0001                	nop
     2b6:	0100                	addi	s0,sp,128
     2b8:	5600                	lw	s0,40(a2)
     2ba:	0290                	addi	a2,sp,320
     2bc:	0000                	unimp
     2be:	02a8                	addi	a0,sp,328
     2c0:	0000                	unimp
     2c2:	0001                	nop
     2c4:	a856                	fsd	fs5,16(sp)
     2c6:	0002                	0x2
     2c8:	dc00                	sw	s0,56(s0)
     2ca:	0002                	0x2
     2cc:	0100                	addi	s0,sp,128
     2ce:	5d00                	lw	s0,56(a0)
     2d0:	02f0                	addi	a2,sp,332
     2d2:	0000                	unimp
     2d4:	02f4                	addi	a3,sp,332
     2d6:	0000                	unimp
     2d8:	0001                	nop
     2da:	f456                	fsw	fs5,40(sp)
     2dc:	0002                	0x2
     2de:	0c00                	addi	s0,sp,528
     2e0:	01000003          	lb	zero,16(zero) # 10 <buf.1743+0x10>
     2e4:	5d00                	lw	s0,56(a0)
     2e6:	0310                	addi	a2,sp,384
     2e8:	0000                	unimp
     2ea:	0458                	addi	a4,sp,516
     2ec:	0000                	unimp
     2ee:	0001                	nop
     2f0:	005d                	c.addi	zero,23
     2f2:	0000                	unimp
     2f4:	0000                	unimp
     2f6:	0000                	unimp
     2f8:	3c00                	fld	fs0,56(s0)
     2fa:	0000                	unimp
     2fc:	9400                	0x9400
     2fe:	0000                	unimp
     300:	0100                	addi	s0,sp,128
     302:	5a00                	lw	s0,48(a2)
     304:	0094                	addi	a3,sp,64
     306:	0000                	unimp
     308:	00d8                	addi	a4,sp,68
     30a:	0000                	unimp
     30c:	0001                	nop
     30e:	045f 0001 0c00      	0xc000001045f
     314:	0001                	nop
     316:	0100                	addi	s0,sp,128
     318:	5f00                	lw	s0,56(a4)
     31a:	0128                	addi	a0,sp,136
     31c:	0000                	unimp
     31e:	017c                	addi	a5,sp,140
     320:	0000                	unimp
     322:	0001                	nop
     324:	ec5a                	fsw	fs6,24(sp)
     326:	0001                	nop
     328:	f000                	fsw	fs0,32(s0)
     32a:	0001                	nop
     32c:	0100                	addi	s0,sp,128
     32e:	5f00                	lw	s0,56(a4)
     330:	01f0                	addi	a2,sp,204
     332:	0000                	unimp
     334:	0218                	addi	a4,sp,256
     336:	0000                	unimp
     338:	0001                	nop
     33a:	905a                	0x905a
     33c:	0002                	0x2
     33e:	e000                	fsw	fs0,0(s0)
     340:	0002                	0x2
     342:	0100                	addi	s0,sp,128
     344:	5a00                	lw	s0,48(a2)
     346:	02e4                	addi	s1,sp,332
     348:	0000                	unimp
     34a:	02f0                	addi	a2,sp,332
     34c:	0000                	unimp
     34e:	0001                	nop
     350:	f05f 0002 3c00      	0x3c000002f05f
     356:	0004                	addi	s1,sp,0
     358:	0100                	addi	s0,sp,128
     35a:	5a00                	lw	s0,48(a2)
     35c:	0444                	addi	s1,sp,516
     35e:	0000                	unimp
     360:	044c                	addi	a1,sp,516
     362:	0000                	unimp
     364:	0001                	nop
     366:	005e                	0x5e
     368:	0000                	unimp
     36a:	0000                	unimp
     36c:	0000                	unimp
     36e:	9000                	0x9000
     370:	0000                	unimp
     372:	ac00                	fsd	fs0,24(s0)
     374:	0000                	unimp
     376:	0100                	addi	s0,sp,128
     378:	5e00                	lw	s0,56(a2)
     37a:	017c                	addi	a5,sp,140
     37c:	0000                	unimp
     37e:	0194                	addi	a3,sp,192
     380:	0000                	unimp
     382:	0001                	nop
     384:	0002245b          	0x2245b
     388:	6000                	flw	fs0,0(s0)
     38a:	0002                	0x2
     38c:	0100                	addi	s0,sp,128
     38e:	6c00                	flw	fs0,24(s0)
     390:	028c                	addi	a1,sp,320
     392:	0000                	unimp
     394:	0290                	addi	a2,sp,320
     396:	0000                	unimp
     398:	0001                	nop
     39a:	0002e45b          	0x2e45b
     39e:	f000                	fsw	fs0,32(s0)
     3a0:	0002                	0x2
     3a2:	0100                	addi	s0,sp,128
     3a4:	5e00                	lw	s0,56(a2)
     3a6:	0338                	addi	a4,sp,392
     3a8:	0000                	unimp
     3aa:	0390                	addi	a2,sp,448
     3ac:	0000                	unimp
     3ae:	0001                	nop
     3b0:	c45e                	sw	s7,8(sp)
     3b2:	44000003          	lb	zero,1088(zero) # 440 <vprintfmt.constprop.1+0x4>
     3b6:	0004                	addi	s1,sp,0
     3b8:	0100                	addi	s0,sp,128
     3ba:	6e00                	flw	fs0,24(a2)
     3bc:	0444                	addi	s1,sp,516
     3be:	0000                	unimp
     3c0:	0454                	addi	a3,sp,516
     3c2:	0000                	unimp
     3c4:	0001                	nop
     3c6:	0000005b          	0x5b
     3ca:	0000                	unimp
     3cc:	0000                	unimp
     3ce:	0c00                	addi	s0,sp,528
     3d0:	0002                	0x2
     3d2:	9000                	0x9000
     3d4:	0002                	0x2
     3d6:	0100                	addi	s0,sp,128
     3d8:	6d00                	flw	fs0,24(a0)
     3da:	0338                	addi	a4,sp,392
     3dc:	0000                	unimp
     3de:	0340                	addi	s0,sp,388
     3e0:	0000                	unimp
     3e2:	0001                	nop
     3e4:	005f 0000 0000      	0x5f
     3ea:	0000                	unimp
     3ec:	d400                	sw	s0,40(s0)
     3ee:	0002                	0x2
     3f0:	e400                	fsw	fs0,8(s0)
     3f2:	0002                	0x2
     3f4:	0200                	addi	s0,sp,256
     3f6:	3100                	fld	fs0,32(a0)
     3f8:	009f 0000 0000      	0x9f
     3fe:	0000                	unimp
     400:	e400                	fsw	fs0,8(s0)
     402:	0002                	0x2
     404:	f000                	fsw	fs0,32(s0)
     406:	0002                	0x2
     408:	0200                	addi	s0,sp,256
     40a:	3000                	fld	fs0,32(s0)
     40c:	349f 0004 5800      	0x58000004349f
     412:	0004                	addi	s1,sp,0
     414:	0200                	addi	s0,sp,256
     416:	3000                	fld	fs0,32(s0)
     418:	009f 0000 0000      	0x9f
     41e:	0000                	unimp
     420:	0400                	addi	s0,sp,512
     422:	0002                	0x2
     424:	1400                	addi	s0,sp,544
     426:	0002                	0x2
     428:	0100                	addi	s0,sp,128
     42a:	6c00                	flw	fs0,24(s0)
     42c:	0304                	addi	s1,sp,384
     42e:	0000                	unimp
     430:	0458                	addi	a4,sp,516
     432:	0000                	unimp
     434:	0001                	nop
     436:	006d                	c.addi	zero,27
     438:	0000                	unimp
     43a:	0000                	unimp
     43c:	0000                	unimp
     43e:	7c00                	flw	fs0,56(s0)
     440:	0000                	unimp
     442:	0c00                	addi	s0,sp,528
     444:	0001                	nop
     446:	0100                	addi	s0,sp,128
     448:	5600                	lw	s0,40(a2)
     44a:	0174                	addi	a3,sp,140
     44c:	0000                	unimp
     44e:	01f0                	addi	a2,sp,204
     450:	0000                	unimp
     452:	0001                	nop
     454:	0456                	slli	s0,s0,0x15
     456:	0002                	0x2
     458:	9000                	0x9000
     45a:	0002                	0x2
     45c:	0100                	addi	s0,sp,128
     45e:	5600                	lw	s0,40(a2)
     460:	02c8                	addi	a0,sp,324
     462:	0000                	unimp
     464:	02f0                	addi	a2,sp,332
     466:	0000                	unimp
     468:	0001                	nop
     46a:	046c                	addi	a1,sp,524
     46c:	58000003          	lb	zero,1408(zero) # 580 <vprintfmt.constprop.1+0x144>
     470:	0004                	addi	s1,sp,0
     472:	0100                	addi	s0,sp,128
     474:	6c00                	flw	fs0,24(s0)
	...
     47e:	0050                	addi	a2,sp,4
     480:	0000                	unimp
     482:	009c                	addi	a5,sp,64
     484:	0000                	unimp
     486:	0001                	nop
     488:	285c                	fld	fa5,144(s0)
     48a:	0001                	nop
     48c:	3c00                	fld	fs0,56(s0)
     48e:	0001                	nop
     490:	0100                	addi	s0,sp,128
     492:	5c00                	lw	s0,56(s0)
	...
     49c:	0064                	addi	s1,sp,12
     49e:	0000                	unimp
     4a0:	0078                	addi	a4,sp,12
     4a2:	0000                	unimp
     4a4:	0001                	nop
     4a6:	0056                	0x56
     4a8:	0000                	unimp
     4aa:	0000                	unimp
     4ac:	0000                	unimp
     4ae:	9800                	0x9800
     4b0:	0000                	unimp
     4b2:	0400                	addi	s0,sp,512
     4b4:	0001                	nop
     4b6:	0100                	addi	s0,sp,128
     4b8:	5b00                	lw	s0,48(a4)
	...
     4c2:	00a4                	addi	s1,sp,72
     4c4:	0000                	unimp
     4c6:	00e8                	addi	a0,sp,76
     4c8:	0000                	unimp
     4ca:	0001                	nop
     4cc:	e85a                	fsw	fs6,16(sp)
     4ce:	0000                	unimp
     4d0:	0400                	addi	s0,sp,512
     4d2:	0001                	nop
     4d4:	0700                	addi	s0,sp,896
     4d6:	8000                	0x8000
     4d8:	4000                	lw	s0,0(s0)
     4da:	4024                	lw	s1,64(s0)
     4dc:	9f25                	0x9f25
	...
     4e6:	00e0                	addi	s0,sp,76
     4e8:	0000                	unimp
     4ea:	00e4                	addi	s1,sp,76
     4ec:	0000                	unimp
     4ee:	0001                	nop
     4f0:	005d                	c.addi	zero,23
     4f2:	0000                	unimp
     4f4:	0000                	unimp
     4f6:	0000                	unimp
     4f8:	a400                	fsd	fs0,8(s0)
     4fa:	0000                	unimp
     4fc:	b000                	fsd	fs0,32(s0)
     4fe:	0000                	unimp
     500:	0100                	addi	s0,sp,128
     502:	5c00                	lw	s0,56(s0)
     504:	00b8                	addi	a4,sp,72
     506:	0000                	unimp
     508:	00e0                	addi	s0,sp,76
     50a:	0000                	unimp
     50c:	0001                	nop
     50e:	005d                	c.addi	zero,23
     510:	0000                	unimp
     512:	0000                	unimp
     514:	0000                	unimp
     516:	d400                	sw	s0,40(s0)
     518:	0000                	unimp
     51a:	ec00                	fsw	fs0,24(s0)
     51c:	0000                	unimp
     51e:	0100                	addi	s0,sp,128
     520:	5e00                	lw	s0,56(a2)
     522:	00ec                	addi	a1,sp,76
     524:	0000                	unimp
     526:	0104                	addi	s1,sp,128
     528:	0000                	unimp
     52a:	0001                	nop
     52c:	005f 0000 0000      	0x5f
     532:	0000                	unimp
     534:	b800                	fsd	fs0,48(s0)
     536:	0000                	unimp
     538:	d400                	sw	s0,40(s0)
     53a:	0000                	unimp
     53c:	0100                	addi	s0,sp,128
     53e:	5e00                	lw	s0,56(a2)
     540:	00e4                	addi	s1,sp,76
     542:	0000                	unimp
     544:	0104                	addi	s1,sp,128
     546:	0000                	unimp
     548:	0001                	nop
     54a:	005d                	c.addi	zero,23
     54c:	0000                	unimp
     54e:	0000                	unimp
     550:	0000                	unimp
     552:	4800                	lw	s0,16(s0)
     554:	0001                	nop
     556:	7c00                	flw	fs0,56(s0)
     558:	0001                	nop
     55a:	0100                	addi	s0,sp,128
     55c:	6000                	flw	fs0,0(s0)
     55e:	01f0                	addi	a2,sp,204
     560:	0000                	unimp
     562:	0208                	addi	a0,sp,256
     564:	0000                	unimp
     566:	0001                	nop
     568:	0060                	addi	s0,sp,12
     56a:	0000                	unimp
     56c:	0000                	unimp
     56e:	0000                	unimp
     570:	5c00                	lw	s0,56(s0)
     572:	0001                	nop
     574:	7000                	flw	fs0,32(s0)
     576:	0001                	nop
     578:	0100                	addi	s0,sp,128
     57a:	5600                	lw	s0,40(a2)
	...
     584:	0180                	addi	s0,sp,192
     586:	0000                	unimp
     588:	01f0                	addi	a2,sp,204
     58a:	0000                	unimp
     58c:	0001                	nop
     58e:	005d                	c.addi	zero,23
     590:	0000                	unimp
     592:	0000                	unimp
     594:	0000                	unimp
     596:	8800                	0x8800
     598:	0001                	nop
     59a:	d000                	sw	s0,32(s0)
     59c:	0001                	nop
     59e:	0100                	addi	s0,sp,128
     5a0:	5a00                	lw	s0,48(a2)
     5a2:	01d0                	addi	a2,sp,196
     5a4:	0000                	unimp
     5a6:	01f0                	addi	a2,sp,204
     5a8:	0000                	unimp
     5aa:	00800007          	0x800007
     5ae:	2440                	fld	fs0,136(s0)
     5b0:	2540                	fld	fs0,136(a0)
     5b2:	009f 0000 0000      	0x9f
     5b8:	0000                	unimp
     5ba:	9400                	0x9400
     5bc:	0001                	nop
     5be:	a000                	fsd	fs0,0(s0)
     5c0:	0001                	nop
     5c2:	0100                	addi	s0,sp,128
     5c4:	5b00                	lw	s0,48(a4)
	...
     5ce:	01c8                	addi	a0,sp,196
     5d0:	0000                	unimp
     5d2:	01cc                	addi	a1,sp,196
     5d4:	0000                	unimp
     5d6:	0001                	nop
     5d8:	0000005b          	0x5b
     5dc:	0000                	unimp
     5de:	0000                	unimp
     5e0:	9000                	0x9000
     5e2:	0001                	nop
     5e4:	9800                	0x9800
     5e6:	0001                	nop
     5e8:	0100                	addi	s0,sp,128
     5ea:	5e00                	lw	s0,56(a2)
     5ec:	01a0                	addi	s0,sp,200
     5ee:	0000                	unimp
     5f0:	01b8                	addi	a4,sp,200
     5f2:	0000                	unimp
     5f4:	0001                	nop
     5f6:	b85e                	fsd	fs7,48(sp)
     5f8:	0001                	nop
     5fa:	c800                	sw	s0,16(s0)
     5fc:	0001                	nop
     5fe:	0100                	addi	s0,sp,128
     600:	5b00                	lw	s0,48(a4)
	...
     60a:	01bc                	addi	a5,sp,200
     60c:	0000                	unimp
     60e:	01d4                	addi	a3,sp,196
     610:	0000                	unimp
     612:	0001                	nop
     614:	d45e                	sw	s7,40(sp)
     616:	0001                	nop
     618:	f000                	fsw	fs0,32(s0)
     61a:	0001                	nop
     61c:	0100                	addi	s0,sp,128
     61e:	5f00                	lw	s0,56(a4)
	...
     628:	01a0                	addi	s0,sp,200
     62a:	0000                	unimp
     62c:	01b8                	addi	a4,sp,200
     62e:	0000                	unimp
     630:	0001                	nop
     632:	0001cc5b          	0x1cc5b
     636:	f000                	fsw	fs0,32(s0)
     638:	0001                	nop
     63a:	0100                	addi	s0,sp,128
     63c:	5b00                	lw	s0,48(a4)
	...
     646:	0224                	addi	s1,sp,264
     648:	0000                	unimp
     64a:	0290                	addi	a2,sp,320
     64c:	0000                	unimp
     64e:	0001                	nop
     650:	005a                	0x5a
     652:	0000                	unimp
     654:	0000                	unimp
     656:	0000                	unimp
     658:	2c00                	fld	fs0,24(s0)
     65a:	0002                	0x2
     65c:	7400                	flw	fs0,40(s0)
     65e:	0002                	0x2
     660:	0100                	addi	s0,sp,128
     662:	5b00                	lw	s0,48(a4)
     664:	0274                	addi	a3,sp,268
     666:	0000                	unimp
     668:	0290                	addi	a2,sp,320
     66a:	0000                	unimp
     66c:	00800007          	0x800007
     670:	2440                	fld	fs0,136(s0)
     672:	2540                	fld	fs0,136(a0)
     674:	009f 0000 0000      	0x9f
     67a:	0000                	unimp
     67c:	3400                	fld	fs0,40(s0)
     67e:	0002                	0x2
     680:	3800                	fld	fs0,48(s0)
     682:	0002                	0x2
     684:	0100                	addi	s0,sp,128
     686:	5d00                	lw	s0,56(a0)
     688:	0238                	addi	a4,sp,264
     68a:	0000                	unimp
     68c:	0244                	addi	s1,sp,260
     68e:	0000                	unimp
     690:	000c                	addi	a1,sp,0
     692:	008d                	addi	ra,ra,3
     694:	007a25f7          	0x7a25f7
     698:	f71b25f7          	0xf71b25f7
     69c:	9f00                	0x9f00
     69e:	0244                	addi	s1,sp,260
     6a0:	0000                	unimp
     6a2:	0250                	addi	a2,sp,260
     6a4:	0000                	unimp
     6a6:	000e                	0xe
     6a8:	008d                	addi	ra,ra,3
     6aa:	007a25f7          	0x7a25f7
     6ae:	f71b25f7          	0xf71b25f7
     6b2:	3100                	fld	fs0,32(a0)
     6b4:	9f1c                	0x9f1c
     6b6:	0250                	addi	a2,sp,260
     6b8:	0000                	unimp
     6ba:	0254                	addi	a3,sp,260
     6bc:	0000                	unimp
     6be:	000e                	0xe
     6c0:	008d                	addi	ra,ra,3
     6c2:	007a25f7          	0x7a25f7
     6c6:	f71b25f7          	0xf71b25f7
     6ca:	3200                	fld	fs0,32(a2)
     6cc:	9f1c                	0x9f1c
	...
     6d6:	0268                	addi	a0,sp,268
     6d8:	0000                	unimp
     6da:	0270                	addi	a2,sp,268
     6dc:	0000                	unimp
     6de:	0001                	nop
     6e0:	005c                	addi	a5,sp,4
     6e2:	0000                	unimp
     6e4:	0000                	unimp
     6e6:	0000                	unimp
     6e8:	3400                	fld	fs0,40(s0)
     6ea:	0002                	0x2
     6ec:	3c00                	fld	fs0,56(s0)
     6ee:	0002                	0x2
     6f0:	0100                	addi	s0,sp,128
     6f2:	5e00                	lw	s0,56(a2)
     6f4:	023c                	addi	a5,sp,264
     6f6:	0000                	unimp
     6f8:	0240                	addi	s0,sp,260
     6fa:	0000                	unimp
     6fc:	0006                	0x6
     6fe:	008d                	addi	ra,ra,3
     700:	007a                	0x7a
     702:	9f1d                	0x9f1d
     704:	0240                	addi	s0,sp,260
     706:	0000                	unimp
     708:	0258                	addi	a4,sp,260
     70a:	0000                	unimp
     70c:	0001                	nop
     70e:	585e                	lw	a6,244(sp)
     710:	0002                	0x2
     712:	6800                	flw	fs0,16(s0)
     714:	0002                	0x2
     716:	0100                	addi	s0,sp,128
     718:	5c00                	lw	s0,56(s0)
	...
     722:	025c                	addi	a5,sp,260
     724:	0000                	unimp
     726:	026c                	addi	a1,sp,268
     728:	0000                	unimp
     72a:	0001                	nop
     72c:	745e                	flw	fs0,244(sp)
     72e:	0002                	0x2
     730:	9000                	0x9000
     732:	0002                	0x2
     734:	0100                	addi	s0,sp,128
     736:	5b00                	lw	s0,48(a4)
	...
     740:	0238                	addi	a4,sp,264
     742:	0000                	unimp
     744:	0270                	addi	a2,sp,268
     746:	0000                	unimp
     748:	0001                	nop
     74a:	705d                	0x705d
     74c:	0002                	0x2
     74e:	9000                	0x9000
     750:	0002                	0x2
     752:	0100                	addi	s0,sp,128
     754:	5c00                	lw	s0,56(s0)
	...
     75e:	0294                	addi	a3,sp,320
     760:	0000                	unimp
     762:	02a8                	addi	a0,sp,328
     764:	0000                	unimp
     766:	0001                	nop
     768:	a856                	fsd	fs5,16(sp)
     76a:	0002                	0x2
     76c:	dc00                	sw	s0,56(s0)
     76e:	0002                	0x2
     770:	0100                	addi	s0,sp,128
     772:	5d00                	lw	s0,56(a0)
     774:	02f0                	addi	a2,sp,332
     776:	0000                	unimp
     778:	02f4                	addi	a3,sp,332
     77a:	0000                	unimp
     77c:	0001                	nop
     77e:	f456                	fsw	fs5,40(sp)
     780:	0002                	0x2
     782:	0c00                	addi	s0,sp,528
     784:	01000003          	lb	zero,16(zero) # 10 <buf.1743+0x10>
     788:	5d00                	lw	s0,56(a0)
	...
     792:	02a8                	addi	a0,sp,328
     794:	0000                	unimp
     796:	02f0                	addi	a2,sp,332
     798:	0000                	unimp
     79a:	0001                	nop
     79c:	0460                	addi	s0,sp,524
     79e:	34000003          	lb	zero,832(zero) # 340 <printf_putch+0x40>
     7a2:	01000003          	lb	zero,16(zero) # 10 <buf.1743+0x10>
     7a6:	6000                	flw	fs0,0(s0)
	...
     7b0:	02d8                	addi	a4,sp,324
     7b2:	0000                	unimp
     7b4:	02e4                	addi	s1,sp,332
     7b6:	0000                	unimp
     7b8:	0001                	nop
     7ba:	005f 0000 0000      	0x5f
     7c0:	0000                	unimp
     7c2:	1000                	addi	s0,sp,32
     7c4:	0004                	addi	s1,sp,0
     7c6:	2c00                	fld	fs0,24(s0)
     7c8:	0004                	addi	s1,sp,0
     7ca:	0100                	addi	s0,sp,128
     7cc:	5b00                	lw	s0,48(a4)
     7ce:	0430                	addi	a2,sp,520
     7d0:	0000                	unimp
     7d2:	0440                	addi	s0,sp,516
     7d4:	0000                	unimp
     7d6:	0001                	nop
     7d8:	0000005b          	0x5b
     7dc:	0000                	unimp
     7de:	0000                	unimp
     7e0:	1400                	addi	s0,sp,544
     7e2:	0004                	addi	s1,sp,0
     7e4:	2800                	fld	fs0,16(s0)
     7e6:	0004                	addi	s1,sp,0
     7e8:	0100                	addi	s0,sp,128
     7ea:	5e00                	lw	s0,56(a2)
     7ec:	0430                	addi	a2,sp,520
     7ee:	0000                	unimp
     7f0:	0434                	addi	a3,sp,520
     7f2:	0000                	unimp
     7f4:	0001                	nop
     7f6:	345c                	fld	fa5,168(s0)
     7f8:	0004                	addi	s1,sp,0
     7fa:	3800                	fld	fs0,48(s0)
     7fc:	0004                	addi	s1,sp,0
     7fe:	0100                	addi	s0,sp,128
     800:	5e00                	lw	s0,56(a2)
	...
     80a:	033c                	addi	a5,sp,392
     80c:	0000                	unimp
     80e:	0380                	addi	s0,sp,448
     810:	0000                	unimp
     812:	0001                	nop
     814:	0003805b          	0x3805b
     818:	5800                	lw	s0,48(s0)
     81a:	0004                	addi	s1,sp,0
     81c:	0500                	addi	s0,sp,640
     81e:	7d00                	flw	fs0,56(a0)
     820:	4000                	lw	s0,0(s0)
     822:	9f25                	0x9f25
	...
     82c:	033c                	addi	a5,sp,392
     82e:	0000                	unimp
     830:	0384                	addi	s1,sp,448
     832:	0000                	unimp
     834:	0001                	nop
     836:	846e                	mv	s0,s11
     838:	58000003          	lb	zero,1408(zero) # 580 <vprintfmt.constprop.1+0x144>
     83c:	0004                	addi	s1,sp,0
     83e:	0700                	addi	s0,sp,896
     840:	7d00                	flw	fs0,56(a0)
     842:	4000                	lw	s0,0(s0)
     844:	4024                	lw	s1,64(s0)
     846:	9f25                	0x9f25
	...
     850:	0340                	addi	s0,sp,388
     852:	0000                	unimp
     854:	035c                	addi	a5,sp,388
     856:	0000                	unimp
     858:	0001                	nop
     85a:	5c5f 0003 b000      	0xb00000035c5f
     860:	01000003          	lb	zero,16(zero) # 10 <buf.1743+0x10>
     864:	5600                	lw	s0,40(a2)
	...
     86e:	0378                	addi	a4,sp,396
     870:	0000                	unimp
     872:	039c                	addi	a5,sp,448
     874:	0000                	unimp
     876:	0001                	nop
     878:	9c60                	0x9c60
     87a:	d4000003          	lb	zero,-704(zero) # fffffd40 <__C_STACK_TOP__+0xfffefd40>
     87e:	01000003          	lb	zero,16(zero) # 10 <buf.1743+0x10>
     882:	5e00                	lw	s0,56(a2)
	...
     88c:	033c                	addi	a5,sp,392
     88e:	0000                	unimp
     890:	0344                	addi	s1,sp,388
     892:	0000                	unimp
     894:	0001                	nop
     896:	4c56                	lw	s8,84(sp)
     898:	58000003          	lb	zero,1408(zero) # 580 <vprintfmt.constprop.1+0x144>
     89c:	01000003          	lb	zero,16(zero) # 10 <buf.1743+0x10>
     8a0:	6000                	flw	fs0,0(s0)
     8a2:	035c                	addi	a5,sp,388
     8a4:	0000                	unimp
     8a6:	0378                	addi	a4,sp,396
     8a8:	0000                	unimp
     8aa:	0001                	nop
     8ac:	0060                	addi	s0,sp,12
     8ae:	0000                	unimp
     8b0:	0000                	unimp
     8b2:	0000                	unimp
     8b4:	7400                	flw	fs0,40(s0)
     8b6:	7c000003          	lb	zero,1984(zero) # 7c0 <vprintfmt.constprop.1+0x384>
     8ba:	01000003          	lb	zero,16(zero) # 10 <buf.1743+0x10>
     8be:	6f00                	flw	fs0,24(a4)
     8c0:	038c                	addi	a1,sp,448
     8c2:	0000                	unimp
     8c4:	0398                	addi	a4,sp,448
     8c6:	0000                	unimp
     8c8:	0001                	nop
     8ca:	9c6e                	add	s8,s8,s11
     8cc:	58000003          	lb	zero,1408(zero) # 580 <vprintfmt.constprop.1+0x144>
     8d0:	0004                	addi	s1,sp,0
     8d2:	0100                	addi	s0,sp,128
     8d4:	6e00                	flw	fs0,24(a2)
	...
     8de:	034c                	addi	a1,sp,388
     8e0:	0000                	unimp
     8e2:	0374                	addi	a3,sp,396
     8e4:	0000                	unimp
     8e6:	0001                	nop
     8e8:	0003746f          	jal	s0,378e8 <__C_STACK_TOP__+0x278e8>
     8ec:	8000                	0x8000
     8ee:	06000003          	lb	zero,96(zero) # 60 <buflen.1744+0x20>
     8f2:	8e00                	0x8e00
     8f4:	7f00                	flw	fs0,56(a4)
     8f6:	1e00                	addi	s0,sp,816
     8f8:	809f 0003 c800      	0xc8000003809f
     8fe:	01000003          	lb	zero,16(zero) # 10 <buf.1743+0x10>
     902:	5b00                	lw	s0,48(a4)
	...
     90c:	03d4                	addi	a3,sp,452
     90e:	0000                	unimp
     910:	040c                	addi	a1,sp,512
     912:	0000                	unimp
     914:	0001                	nop
     916:	005e                	0x5e
     918:	0000                	unimp
     91a:	0000                	unimp
     91c:	0000                	unimp
     91e:	ec00                	fsw	fs0,24(s0)
     920:	04000003          	lb	zero,64(zero) # 40 <buflen.1744>
     924:	0004                	addi	s1,sp,0
     926:	0100                	addi	s0,sp,128
     928:	6000                	flw	fs0,0(s0)
	...
     932:	03d8                	addi	a4,sp,452
     934:	0000                	unimp
     936:	03f8                	addi	a4,sp,460
     938:	0000                	unimp
     93a:	0001                	nop
     93c:	005f 0000 0000      	0x5f
     942:	0000                	unimp
     944:	c800                	sw	s0,16(s0)
     946:	dc000003          	lb	zero,-576(zero) # fffffdc0 <__C_STACK_TOP__+0xfffefdc0>
     94a:	01000003          	lb	zero,16(zero) # 10 <buf.1743+0x10>
     94e:	5b00                	lw	s0,48(a4)
	...
     958:	03d0                	addi	a2,sp,452
     95a:	0000                	unimp
     95c:	03d8                	addi	a4,sp,452
     95e:	0000                	unimp
     960:	0001                	nop
     962:	d85f 0003 fc00      	0xfc000003d85f
     968:	06000003          	lb	zero,96(zero) # 60 <buflen.1744+0x20>
     96c:	8f00                	0x8f00
     96e:	7c7f                	0x7c7f
     970:	1a00                	addi	s0,sp,304
     972:	fc9f 0003 2400      	0x24000003fc9f
     978:	0004                	addi	s1,sp,0
     97a:	0600                	addi	s0,sp,768
     97c:	7c00                	flw	fs0,56(s0)
     97e:	7f00                	flw	fs0,56(a4)
     980:	1a00                	addi	s0,sp,304
     982:	009f 0000 0000      	0x9f
     988:	0000                	unimp
     98a:	cc00                	sw	s0,24(s0)
     98c:	e0000003          	lb	zero,-512(zero) # fffffe00 <__C_STACK_TOP__+0xfffefe00>
     990:	01000003          	lb	zero,16(zero) # 10 <buf.1743+0x10>
     994:	5600                	lw	s0,40(a2)
	...
     99e:	0424                	addi	s1,sp,520
     9a0:	0000                	unimp
     9a2:	0434                	addi	a3,sp,520
     9a4:	0000                	unimp
     9a6:	0001                	nop
     9a8:	005c                	addi	a5,sp,4
     9aa:	0000                	unimp
     9ac:	0000                	unimp
     9ae:	0000                	unimp
     9b0:	3800                	fld	fs0,48(s0)
     9b2:	0004                	addi	s1,sp,0
     9b4:	4c00                	lw	s0,24(s0)
     9b6:	0004                	addi	s1,sp,0
     9b8:	0100                	addi	s0,sp,128
     9ba:	5e00                	lw	s0,56(a2)
	...
     9c8:	0068                	addi	a0,sp,12
     9ca:	0000                	unimp
     9cc:	0006                	0x6
     9ce:	935a                	add	t1,t1,s6
     9d0:	5b04                	lw	s1,48(a4)
     9d2:	00680493          	addi	s1,a6,6
     9d6:	0000                	unimp
     9d8:	00f4                	addi	a3,sp,76
     9da:	0000                	unimp
     9dc:	0006                	0x6
     9de:	0af503f3          	0xaf503f3
     9e2:	9f25                	0x9f25
     9e4:	00f4                	addi	a3,sp,76
     9e6:	0000                	unimp
     9e8:	014c                	addi	a1,sp,132
     9ea:	0000                	unimp
     9ec:	0006                	0x6
     9ee:	935a                	add	t1,t1,s6
     9f0:	5b04                	lw	s1,48(a4)
     9f2:	014c0493          	addi	s1,s8,20
     9f6:	0000                	unimp
     9f8:	01dc                	addi	a5,sp,196
     9fa:	0000                	unimp
     9fc:	0006                	0x6
     9fe:	0af503f3          	0xaf503f3
     a02:	9f25                	0x9f25
     a04:	01dc                	addi	a5,sp,196
     a06:	0000                	unimp
     a08:	0204                	addi	s1,sp,256
     a0a:	0000                	unimp
     a0c:	0006                	0x6
     a0e:	935a                	add	t1,t1,s6
     a10:	5b04                	lw	s1,48(a4)
     a12:	02040493          	addi	s1,s0,32
     a16:	0000                	unimp
     a18:	029c                	addi	a5,sp,320
     a1a:	0000                	unimp
     a1c:	0006                	0x6
     a1e:	0af503f3          	0xaf503f3
     a22:	9f25                	0x9f25
     a24:	029c                	addi	a5,sp,320
     a26:	0000                	unimp
     a28:	02e4                	addi	s1,sp,332
     a2a:	0000                	unimp
     a2c:	0006                	0x6
     a2e:	935a                	add	t1,t1,s6
     a30:	5b04                	lw	s1,48(a4)
     a32:	02e40493          	addi	s1,s0,46
     a36:	0000                	unimp
     a38:	02ec                	addi	a1,sp,332
     a3a:	0000                	unimp
     a3c:	0006                	0x6
     a3e:	0af503f3          	0xaf503f3
     a42:	9f25                	0x9f25
     a44:	02ec                	addi	a1,sp,332
     a46:	0000                	unimp
     a48:	0414                	addi	a3,sp,512
     a4a:	0000                	unimp
     a4c:	0006                	0x6
     a4e:	935a                	add	t1,t1,s6
     a50:	5b04                	lw	s1,48(a4)
     a52:	04140493          	addi	s1,s0,65
     a56:	0000                	unimp
     a58:	0428                	addi	a0,sp,520
     a5a:	0000                	unimp
     a5c:	0006                	0x6
     a5e:	0af503f3          	0xaf503f3
     a62:	9f25                	0x9f25
     a64:	0428                	addi	a0,sp,520
     a66:	0000                	unimp
     a68:	0434                	addi	a3,sp,520
     a6a:	0000                	unimp
     a6c:	0006                	0x6
     a6e:	935a                	add	t1,t1,s6
     a70:	5b04                	lw	s1,48(a4)
     a72:	00000493          	li	s1,0
	...
     a7e:	0000                	unimp
     a80:	0070                	addi	a2,sp,12
     a82:	0000                	unimp
     a84:	0006                	0x6
     a86:	935c                	0x935c
     a88:	5d04                	lw	s1,56(a0)
     a8a:	00700493          	li	s1,7
     a8e:	0000                	unimp
     a90:	00f4                	addi	a3,sp,76
     a92:	0000                	unimp
     a94:	0006                	0x6
     a96:	0cf503f3          	0xcf503f3
     a9a:	9f25                	0x9f25
     a9c:	00f4                	addi	a3,sp,76
     a9e:	0000                	unimp
     aa0:	014c                	addi	a1,sp,132
     aa2:	0000                	unimp
     aa4:	0006                	0x6
     aa6:	935c                	0x935c
     aa8:	5d04                	lw	s1,56(a0)
     aaa:	014c0493          	addi	s1,s8,20
     aae:	0000                	unimp
     ab0:	01dc                	addi	a5,sp,196
     ab2:	0000                	unimp
     ab4:	0006                	0x6
     ab6:	0cf503f3          	0xcf503f3
     aba:	9f25                	0x9f25
     abc:	01dc                	addi	a5,sp,196
     abe:	0000                	unimp
     ac0:	021c                	addi	a5,sp,256
     ac2:	0000                	unimp
     ac4:	0006                	0x6
     ac6:	935c                	0x935c
     ac8:	5d04                	lw	s1,56(a0)
     aca:	021c0493          	addi	s1,s8,33
     ace:	0000                	unimp
     ad0:	029c                	addi	a5,sp,320
     ad2:	0000                	unimp
     ad4:	0006                	0x6
     ad6:	0cf503f3          	0xcf503f3
     ada:	9f25                	0x9f25
     adc:	029c                	addi	a5,sp,320
     ade:	0000                	unimp
     ae0:	0334                	addi	a3,sp,392
     ae2:	0000                	unimp
     ae4:	0006                	0x6
     ae6:	935c                	0x935c
     ae8:	5d04                	lw	s1,56(a0)
     aea:	03340493          	addi	s1,s0,51
     aee:	0000                	unimp
     af0:	0428                	addi	a0,sp,520
     af2:	0000                	unimp
     af4:	0006                	0x6
     af6:	0cf503f3          	0xcf503f3
     afa:	9f25                	0x9f25
     afc:	0428                	addi	a0,sp,520
     afe:	0000                	unimp
     b00:	0434                	addi	a3,sp,520
     b02:	0000                	unimp
     b04:	0006                	0x6
     b06:	935c                	0x935c
     b08:	5d04                	lw	s1,56(a0)
     b0a:	00000493          	li	s1,0
	...
     b16:	0000                	unimp
     b18:	01d4                	addi	a3,sp,196
     b1a:	0000                	unimp
     b1c:	0002                	0x2
     b1e:	9f30                	0x9f30
     b20:	01dc                	addi	a5,sp,196
     b22:	0000                	unimp
     b24:	0434                	addi	a3,sp,520
     b26:	0000                	unimp
     b28:	0002                	0x2
     b2a:	9f30                	0x9f30
	...
     b38:	0024                	addi	s1,sp,8
     b3a:	0000                	unimp
     b3c:	0006                	0x6
     b3e:	935c                	0x935c
     b40:	5d04                	lw	s1,56(a0)
     b42:	00240493          	addi	s1,s0,2
     b46:	0000                	unimp
     b48:	0034                	addi	a3,sp,8
     b4a:	0000                	unimp
     b4c:	0006                	0x6
     b4e:	935c                	0x935c
     b50:	6104                	flw	fs1,0(a0)
     b52:	00f40493          	addi	s1,s0,15
     b56:	0000                	unimp
     b58:	00f8                	addi	a4,sp,76
     b5a:	0000                	unimp
     b5c:	0006                	0x6
     b5e:	935c                	0x935c
     b60:	6104                	flw	fs1,0(a0)
     b62:	01080493          	addi	s1,a6,16
     b66:	0000                	unimp
     b68:	0110                	addi	a2,sp,128
     b6a:	0000                	unimp
     b6c:	0006                	0x6
     b6e:	935c                	0x935c
     b70:	5d04                	lw	s1,56(a0)
     b72:	01100493          	li	s1,17
     b76:	0000                	unimp
     b78:	0128                	addi	a0,sp,136
     b7a:	0000                	unimp
     b7c:	0006                	0x6
     b7e:	935c                	0x935c
     b80:	6104                	flw	fs1,0(a0)
     b82:	01dc0493          	addi	s1,s8,29
     b86:	0000                	unimp
     b88:	01e4                	addi	s1,sp,204
     b8a:	0000                	unimp
     b8c:	0006                	0x6
     b8e:	935c                	0x935c
     b90:	6104                	flw	fs1,0(a0)
     b92:	029c0493          	addi	s1,s8,41
     b96:	0000                	unimp
     b98:	0308                	addi	a0,sp,384
     b9a:	0000                	unimp
     b9c:	0006                	0x6
     b9e:	935c                	0x935c
     ba0:	5d04                	lw	s1,56(a0)
     ba2:	03080493          	addi	s1,a6,48
     ba6:	0000                	unimp
     ba8:	0318                	addi	a4,sp,384
     baa:	0000                	unimp
     bac:	0006                	0x6
     bae:	935c                	0x935c
     bb0:	6104                	flw	fs1,0(a0)
     bb2:	04280493          	addi	s1,a6,66
     bb6:	0000                	unimp
     bb8:	0434                	addi	a3,sp,520
     bba:	0000                	unimp
     bbc:	0006                	0x6
     bbe:	935c                	0x935c
     bc0:	5d04                	lw	s1,56(a0)
     bc2:	00000493          	li	s1,0
	...
     bce:	0000                	unimp
     bd0:	0060                	addi	s0,sp,12
     bd2:	0000                	unimp
     bd4:	0006                	0x6
     bd6:	935a                	add	t1,t1,s6
     bd8:	5b04                	lw	s1,48(a4)
     bda:	00f40493          	addi	s1,s0,15
     bde:	0000                	unimp
     be0:	014c                	addi	a1,sp,132
     be2:	0000                	unimp
     be4:	0006                	0x6
     be6:	9356                	add	t1,t1,s5
     be8:	5b04                	lw	s1,48(a4)
     bea:	01dc0493          	addi	s1,s8,29
     bee:	0000                	unimp
     bf0:	01f8                	addi	a4,sp,204
     bf2:	0000                	unimp
     bf4:	0006                	0x6
     bf6:	9356                	add	t1,t1,s5
     bf8:	5b04                	lw	s1,48(a4)
     bfa:	01f80493          	addi	s1,a6,31
     bfe:	0000                	unimp
     c00:	01fc                	addi	a5,sp,204
     c02:	0000                	unimp
     c04:	0006                	0x6
     c06:	9356                	add	t1,t1,s5
     c08:	5f04                	lw	s1,56(a4)
     c0a:	01fc0493          	addi	s1,s8,31
     c0e:	0000                	unimp
     c10:	0204                	addi	s1,sp,256
     c12:	0000                	unimp
     c14:	0006                	0x6
     c16:	935a                	add	t1,t1,s6
     c18:	5f04                	lw	s1,56(a4)
     c1a:	029c0493          	addi	s1,s8,41
     c1e:	0000                	unimp
     c20:	02b4                	addi	a3,sp,328
     c22:	0000                	unimp
     c24:	0006                	0x6
     c26:	9356                	add	t1,t1,s5
     c28:	5b04                	lw	s1,48(a4)
     c2a:	02b40493          	addi	s1,s0,43
     c2e:	0000                	unimp
     c30:	02ec                	addi	a1,sp,332
     c32:	0000                	unimp
     c34:	0006                	0x6
     c36:	9356                	add	t1,t1,s5
     c38:	5f04                	lw	s1,56(a4)
     c3a:	02ec0493          	addi	s1,s8,46
     c3e:	0000                	unimp
     c40:	02f0                	addi	a2,sp,332
     c42:	0000                	unimp
     c44:	0006                	0x6
     c46:	9356                	add	t1,t1,s5
     c48:	5b04                	lw	s1,48(a4)
     c4a:	02f00493          	li	s1,47
     c4e:	0000                	unimp
     c50:	031c                	addi	a5,sp,384
     c52:	0000                	unimp
     c54:	0006                	0x6
     c56:	9356                	add	t1,t1,s5
     c58:	5f04                	lw	s1,56(a4)
     c5a:	04280493          	addi	s1,a6,66
     c5e:	0000                	unimp
     c60:	042c                	addi	a1,sp,520
     c62:	0000                	unimp
     c64:	0006                	0x6
     c66:	9356                	add	t1,t1,s5
     c68:	5b04                	lw	s1,48(a4)
     c6a:	042c0493          	addi	s1,s8,66
     c6e:	0000                	unimp
     c70:	0434                	addi	a3,sp,520
     c72:	0000                	unimp
     c74:	0006                	0x6
     c76:	9356                	add	t1,t1,s5
     c78:	5f04                	lw	s1,56(a4)
     c7a:	00000493          	li	s1,0
     c7e:	0000                	unimp
     c80:	0000                	unimp
     c82:	0000                	unimp
     c84:	0008                	addi	a0,sp,0
     c86:	0000                	unimp
     c88:	0050                	addi	a2,sp,4
     c8a:	0000                	unimp
     c8c:	0001                	nop
     c8e:	505c                	lw	a5,36(s0)
     c90:	0000                	unimp
     c92:	5c00                	lw	s0,56(s0)
     c94:	0000                	unimp
     c96:	0600                	addi	s0,sp,768
     c98:	7c00                	flw	fs0,56(s0)
     c9a:	7e00                	flw	fs0,56(a2)
     c9c:	2400                	fld	fs0,8(s0)
     c9e:	5c9f 0000 ec00      	0xec0000005c9f
     ca4:	0000                	unimp
     ca6:	0100                	addi	s0,sp,128
     ca8:	6000                	flw	fs0,0(s0)
     caa:	00f4                	addi	a3,sp,76
     cac:	0000                	unimp
     cae:	0110                	addi	a2,sp,128
     cb0:	0000                	unimp
     cb2:	0001                	nop
     cb4:	105c                	addi	a5,sp,36
     cb6:	0001                	nop
     cb8:	1400                	addi	s0,sp,544
     cba:	0001                	nop
     cbc:	0b00                	addi	s0,sp,400
     cbe:	3100                	fld	fs0,32(a0)
     cc0:	007c2cf7          	0x7c2cf7
     cc4:	f71b2cf7          	0xf71b2cf7
     cc8:	9f00                	0x9f00
     cca:	0114                	addi	a3,sp,128
     ccc:	0000                	unimp
     cce:	01d4                	addi	a3,sp,196
     cd0:	0000                	unimp
     cd2:	0001                	nop
     cd4:	dc60                	sw	s0,124(s0)
     cd6:	0001                	nop
     cd8:	f000                	fsw	fs0,32(s0)
     cda:	0001                	nop
     cdc:	0100                	addi	s0,sp,128
     cde:	6000                	flw	fs0,0(s0)
     ce0:	01f0                	addi	a2,sp,204
     ce2:	0000                	unimp
     ce4:	01f4                	addi	a3,sp,204
     ce6:	0000                	unimp
     ce8:	0006                	0x6
     cea:	0080                	addi	s0,sp,64
     cec:	007e                	0x7e
     cee:	9f24                	0x9f24
     cf0:	01f4                	addi	a3,sp,204
     cf2:	0000                	unimp
     cf4:	029c                	addi	a5,sp,320
     cf6:	0000                	unimp
     cf8:	0001                	nop
     cfa:	9c60                	0x9c60
     cfc:	0002                	0x2
     cfe:	c800                	sw	s0,16(s0)
     d00:	01000003          	lb	zero,16(zero) # 10 <buf.1743+0x10>
     d04:	5c00                	lw	s0,56(s0)
     d06:	0428                	addi	a0,sp,520
     d08:	0000                	unimp
     d0a:	0434                	addi	a3,sp,520
     d0c:	0000                	unimp
     d0e:	0001                	nop
     d10:	005c                	addi	a5,sp,4
     d12:	0000                	unimp
     d14:	0000                	unimp
     d16:	0000                	unimp
     d18:	0c00                	addi	s0,sp,528
     d1a:	0000                	unimp
     d1c:	2400                	fld	fs0,8(s0)
     d1e:	0000                	unimp
     d20:	0100                	addi	s0,sp,128
     d22:	5d00                	lw	s0,56(a0)
     d24:	0024                	addi	s1,sp,8
     d26:	0000                	unimp
     d28:	0034                	addi	a3,sp,8
     d2a:	0000                	unimp
     d2c:	0001                	nop
     d2e:	f461                	bnez	s0,cf6 <vprintfmt.constprop.1+0x8ba>
     d30:	0000                	unimp
     d32:	f800                	fsw	fs0,48(s0)
     d34:	0000                	unimp
     d36:	0100                	addi	s0,sp,128
     d38:	6100                	flw	fs0,0(a0)
     d3a:	0108                	addi	a0,sp,128
     d3c:	0000                	unimp
     d3e:	0110                	addi	a2,sp,128
     d40:	0000                	unimp
     d42:	0001                	nop
     d44:	105d                	c.addi	zero,-9
     d46:	0001                	nop
     d48:	2800                	fld	fs0,16(s0)
     d4a:	0001                	nop
     d4c:	0100                	addi	s0,sp,128
     d4e:	6100                	flw	fs0,0(a0)
     d50:	01dc                	addi	a5,sp,196
     d52:	0000                	unimp
     d54:	01e4                	addi	s1,sp,204
     d56:	0000                	unimp
     d58:	0001                	nop
     d5a:	9c61                	0x9c61
     d5c:	0002                	0x2
     d5e:	0800                	addi	s0,sp,16
     d60:	01000003          	lb	zero,16(zero) # 10 <buf.1743+0x10>
     d64:	5d00                	lw	s0,56(a0)
     d66:	0308                	addi	a0,sp,384
     d68:	0000                	unimp
     d6a:	030c                	addi	a1,sp,384
     d6c:	0000                	unimp
     d6e:	0001                	nop
     d70:	0c61                	addi	s8,s8,24
     d72:	d4000003          	lb	zero,-704(zero) # fffffd40 <__C_STACK_TOP__+0xfffefd40>
     d76:	01000003          	lb	zero,16(zero) # 10 <buf.1743+0x10>
     d7a:	5d00                	lw	s0,56(a0)
     d7c:	0428                	addi	a0,sp,520
     d7e:	0000                	unimp
     d80:	0434                	addi	a3,sp,520
     d82:	0000                	unimp
     d84:	0001                	nop
     d86:	005d                	c.addi	zero,23
     d88:	0000                	unimp
     d8a:	0000                	unimp
     d8c:	0000                	unimp
     d8e:	1000                	addi	s0,sp,32
     d90:	0000                	unimp
     d92:	6400                	flw	fs0,8(s0)
     d94:	0000                	unimp
     d96:	0100                	addi	s0,sp,128
     d98:	5a00                	lw	s0,48(a2)
     d9a:	0064                	addi	s1,sp,12
     d9c:	0000                	unimp
     d9e:	00b4                	addi	a3,sp,72
     da0:	0000                	unimp
     da2:	0001                	nop
     da4:	f456                	fsw	fs5,40(sp)
     da6:	0000                	unimp
     da8:	9c00                	0x9c00
     daa:	0001                	nop
     dac:	0100                	addi	s0,sp,128
     dae:	5600                	lw	s0,40(a2)
     db0:	01dc                	addi	a5,sp,196
     db2:	0000                	unimp
     db4:	01fc                	addi	a5,sp,204
     db6:	0000                	unimp
     db8:	0001                	nop
     dba:	fc56                	fsw	fs5,56(sp)
     dbc:	0001                	nop
     dbe:	0400                	addi	s0,sp,512
     dc0:	0002                	0x2
     dc2:	0100                	addi	s0,sp,128
     dc4:	5a00                	lw	s0,48(a2)
     dc6:	0210                	addi	a2,sp,256
     dc8:	0000                	unimp
     dca:	0324                	addi	s1,sp,392
     dcc:	0000                	unimp
     dce:	0001                	nop
     dd0:	2456                	fld	fs0,336(sp)
     dd2:	34000003          	lb	zero,832(zero) # 340 <printf_putch+0x40>
     dd6:	01000003          	lb	zero,16(zero) # 10 <buf.1743+0x10>
     dda:	5a00                	lw	s0,48(a2)
     ddc:	0334                	addi	a3,sp,392
     dde:	0000                	unimp
     de0:	0414                	addi	a3,sp,512
     de2:	0000                	unimp
     de4:	0006                	0x6
     de6:	007a                	0x7a
     de8:	9f24007b          	0x9f24007b
     dec:	0428                	addi	a0,sp,520
     dee:	0000                	unimp
     df0:	0434                	addi	a3,sp,520
     df2:	0000                	unimp
     df4:	0001                	nop
     df6:	0056                	0x56
     df8:	0000                	unimp
     dfa:	0000                	unimp
     dfc:	0000                	unimp
     dfe:	1000                	addi	s0,sp,32
     e00:	0000                	unimp
     e02:	8000                	0x8000
     e04:	0000                	unimp
     e06:	0100                	addi	s0,sp,128
     e08:	5b00                	lw	s0,48(a4)
     e0a:	00f4                	addi	a3,sp,76
     e0c:	0000                	unimp
     e0e:	0148                	addi	a0,sp,132
     e10:	0000                	unimp
     e12:	0001                	nop
     e14:	0001485b          	0x1485b
     e18:	6400                	flw	fs0,8(s0)
     e1a:	0001                	nop
     e1c:	0100                	addi	s0,sp,128
     e1e:	5f00                	lw	s0,56(a4)
     e20:	01dc                	addi	a5,sp,196
     e22:	0000                	unimp
     e24:	01f8                	addi	a4,sp,204
     e26:	0000                	unimp
     e28:	0001                	nop
     e2a:	0001f85b          	0x1f85b
     e2e:	0800                	addi	s0,sp,16
     e30:	0002                	0x2
     e32:	0100                	addi	s0,sp,128
     e34:	5f00                	lw	s0,56(a4)
     e36:	0210                	addi	a2,sp,256
     e38:	0000                	unimp
     e3a:	0258                	addi	a4,sp,260
     e3c:	0000                	unimp
     e3e:	0001                	nop
     e40:	9861                	andi	s0,s0,-8
     e42:	0002                	0x2
     e44:	9c00                	0x9c00
     e46:	0002                	0x2
     e48:	0100                	addi	s0,sp,128
     e4a:	5f00                	lw	s0,56(a4)
     e4c:	029c                	addi	a5,sp,320
     e4e:	0000                	unimp
     e50:	02b4                	addi	a3,sp,328
     e52:	0000                	unimp
     e54:	0001                	nop
     e56:	0002b45b          	0x2b45b
     e5a:	ec00                	fsw	fs0,24(s0)
     e5c:	0002                	0x2
     e5e:	0100                	addi	s0,sp,128
     e60:	5f00                	lw	s0,56(a4)
     e62:	02ec                	addi	a1,sp,332
     e64:	0000                	unimp
     e66:	02f0                	addi	a2,sp,332
     e68:	0000                	unimp
     e6a:	0001                	nop
     e6c:	0002f05b          	0x2f05b
     e70:	1c00                	addi	s0,sp,560
     e72:	01000003          	lb	zero,16(zero) # 10 <buf.1743+0x10>
     e76:	5f00                	lw	s0,56(a4)
     e78:	0334                	addi	a3,sp,392
     e7a:	0000                	unimp
     e7c:	03b4                	addi	a3,sp,456
     e7e:	0000                	unimp
     e80:	0001                	nop
     e82:	b456                	fsd	fs5,40(sp)
     e84:	00000003          	lb	zero,0(zero) # 0 <buf.1743>
     e88:	0004                	addi	s1,sp,0
     e8a:	0100                	addi	s0,sp,128
     e8c:	5f00                	lw	s0,56(a4)
     e8e:	0428                	addi	a0,sp,520
     e90:	0000                	unimp
     e92:	042c                	addi	a1,sp,520
     e94:	0000                	unimp
     e96:	0001                	nop
     e98:	00042c5b          	0x42c5b
     e9c:	3400                	fld	fs0,40(s0)
     e9e:	0004                	addi	s1,sp,0
     ea0:	0100                	addi	s0,sp,128
     ea2:	5f00                	lw	s0,56(a4)
	...
     eac:	01f8                	addi	a4,sp,204
     eae:	0000                	unimp
     eb0:	0220                	addi	s0,sp,264
     eb2:	0000                	unimp
     eb4:	0001                	nop
     eb6:	0003345b          	0x3345b
     eba:	3800                	fld	fs0,48(s0)
     ebc:	01000003          	lb	zero,16(zero) # 10 <buf.1743+0x10>
     ec0:	5e00                	lw	s0,56(a2)
	...
     eca:	00ec                	addi	a1,sp,76
     ecc:	0000                	unimp
     ece:	00f4                	addi	a3,sp,76
     ed0:	0000                	unimp
     ed2:	0001                	nop
     ed4:	b45e                	fsd	fs7,40(sp)
     ed6:	28000003          	lb	zero,640(zero) # 280 <trap_entry+0x4a>
     eda:	0004                	addi	s1,sp,0
     edc:	0100                	addi	s0,sp,128
     ede:	5e00                	lw	s0,56(a2)
	...
     ee8:	0148                	addi	a0,sp,132
     eea:	0000                	unimp
     eec:	014c                	addi	a1,sp,132
     eee:	0000                	unimp
     ef0:	0002                	0x2
     ef2:	9f31                	0x9f31
     ef4:	014c                	addi	a1,sp,132
     ef6:	0000                	unimp
     ef8:	01d4                	addi	a3,sp,196
     efa:	0000                	unimp
     efc:	0001                	nop
     efe:	0002985b          	0x2985b
     f02:	9c00                	0x9c00
     f04:	0002                	0x2
     f06:	0100                	addi	s0,sp,128
     f08:	5b00                	lw	s0,48(a4)
	...
     f12:	01f0                	addi	a2,sp,204
     f14:	0000                	unimp
     f16:	0200                	addi	s0,sp,256
     f18:	0000                	unimp
     f1a:	0001                	nop
     f1c:	005d                	c.addi	zero,23
     f1e:	20000003          	lb	zero,512(zero) # 200 <_start>
     f22:	01000003          	lb	zero,16(zero) # 10 <buf.1743+0x10>
     f26:	6000                	flw	fs0,0(s0)
	...
     f30:	004c                	addi	a1,sp,4
     f32:	0000                	unimp
     f34:	007c                	addi	a5,sp,12
     f36:	0000                	unimp
     f38:	0001                	nop
     f3a:	405e                	0x405e
     f3c:	0001                	nop
     f3e:	4c00                	lw	s0,24(s0)
     f40:	0001                	nop
     f42:	0100                	addi	s0,sp,128
     f44:	5e00                	lw	s0,56(a2)
     f46:	01f0                	addi	a2,sp,204
     f48:	0000                	unimp
     f4a:	020c                	addi	a1,sp,256
     f4c:	0000                	unimp
     f4e:	0001                	nop
     f50:	d45e                	sw	s7,40(sp)
     f52:	0002                	0x2
     f54:	ec00                	fsw	fs0,24(s0)
     f56:	0002                	0x2
     f58:	0100                	addi	s0,sp,128
     f5a:	5b00                	lw	s0,48(a4)
     f5c:	0300                	addi	s0,sp,384
     f5e:	0000                	unimp
     f60:	041c                	addi	a5,sp,512
     f62:	0000                	unimp
     f64:	0001                	nop
     f66:	0000005b          	0x5b
     f6a:	0000                	unimp
     f6c:	0000                	unimp
     f6e:	2000                	fld	fs0,0(s0)
     f70:	0000                	unimp
     f72:	5000                	lw	s0,32(s0)
     f74:	0000                	unimp
     f76:	0100                	addi	s0,sp,128
     f78:	5c00                	lw	s0,56(s0)
     f7a:	0050                	addi	a2,sp,4
     f7c:	0000                	unimp
     f7e:	005c                	addi	a5,sp,4
     f80:	0000                	unimp
     f82:	0006                	0x6
     f84:	007c                	addi	a5,sp,12
     f86:	007e                	0x7e
     f88:	9f24                	0x9f24
     f8a:	005c                	addi	a5,sp,4
     f8c:	0000                	unimp
     f8e:	00ec                	addi	a1,sp,76
     f90:	0000                	unimp
     f92:	0001                	nop
     f94:	f460                	fsw	fs0,108(s0)
     f96:	0000                	unimp
     f98:	0800                	addi	s0,sp,16
     f9a:	0001                	nop
     f9c:	0100                	addi	s0,sp,128
     f9e:	5c00                	lw	s0,56(s0)
	...
     fa8:	0034                	addi	a3,sp,8
     faa:	0000                	unimp
     fac:	0044                	addi	s1,sp,4
     fae:	0000                	unimp
     fb0:	0001                	nop
     fb2:	005d                	c.addi	zero,23
     fb4:	0000                	unimp
     fb6:	0000                	unimp
     fb8:	0000                	unimp
     fba:	6800                	flw	fs0,16(s0)
     fbc:	0000                	unimp
     fbe:	cc00                	sw	s0,24(s0)
     fc0:	0000                	unimp
     fc2:	0100                	addi	s0,sp,128
     fc4:	5a00                	lw	s0,48(a2)
     fc6:	00cc                	addi	a1,sp,68
     fc8:	0000                	unimp
     fca:	00ec                	addi	a1,sp,76
     fcc:	0000                	unimp
     fce:	0005                	c.addi	zero,1
     fd0:	0080                	addi	s0,sp,64
     fd2:	2540                	fld	fs0,136(a0)
     fd4:	009f 0000 0000      	0x9f
     fda:	0000                	unimp
     fdc:	7400                	flw	fs0,40(s0)
     fde:	0000                	unimp
     fe0:	ec00                	fsw	fs0,24(s0)
     fe2:	0000                	unimp
     fe4:	0100                	addi	s0,sp,128
     fe6:	5c00                	lw	s0,56(s0)
	...
     ff0:	007c                	addi	a5,sp,12
     ff2:	0000                	unimp
     ff4:	0098                	addi	a4,sp,64
     ff6:	0000                	unimp
     ff8:	0001                	nop
     ffa:	985f 0000 e800      	0xe8000000985f
    1000:	0000                	unimp
    1002:	0100                	addi	s0,sp,128
    1004:	5e00                	lw	s0,56(a2)
	...
    100e:	00bc                	addi	a5,sp,72
    1010:	0000                	unimp
    1012:	00d8                	addi	a4,sp,68
    1014:	0000                	unimp
    1016:	0001                	nop
    1018:	d85d                	beqz	s0,fce <vprintfmt.constprop.1+0xb92>
    101a:	0000                	unimp
    101c:	ec00                	fsw	fs0,24(s0)
    101e:	0000                	unimp
    1020:	0100                	addi	s0,sp,128
    1022:	5a00                	lw	s0,48(a2)
	...
    102c:	007c                	addi	a5,sp,12
    102e:	0000                	unimp
    1030:	0084                	addi	s1,sp,64
    1032:	0000                	unimp
    1034:	0001                	nop
    1036:	885e                	mv	a6,s7
    1038:	0000                	unimp
    103a:	9400                	0x9400
    103c:	0000                	unimp
    103e:	0100                	addi	s0,sp,128
    1040:	5d00                	lw	s0,56(a0)
    1042:	0098                	addi	a4,sp,64
    1044:	0000                	unimp
    1046:	00bc                	addi	a5,sp,72
    1048:	0000                	unimp
    104a:	0001                	nop
    104c:	005d                	c.addi	zero,23
    104e:	0000                	unimp
    1050:	0000                	unimp
    1052:	0000                	unimp
    1054:	b000                	fsd	fs0,32(s0)
    1056:	0000                	unimp
    1058:	c000                	sw	s0,0(s0)
    105a:	0000                	unimp
    105c:	0100                	addi	s0,sp,128
    105e:	5f00                	lw	s0,56(a4)
    1060:	00c8                	addi	a0,sp,68
    1062:	0000                	unimp
    1064:	00d4                	addi	a3,sp,68
    1066:	0000                	unimp
    1068:	0001                	nop
    106a:	0056                	0x56
    106c:	0000                	unimp
    106e:	0000                	unimp
    1070:	0000                	unimp
    1072:	8000                	0x8000
    1074:	0000                	unimp
    1076:	ec00                	fsw	fs0,24(s0)
    1078:	0000                	unimp
    107a:	0100                	addi	s0,sp,128
    107c:	5b00                	lw	s0,48(a4)
	...
    1086:	03f4                	addi	a3,sp,460
    1088:	0000                	unimp
    108a:	0424                	addi	s1,sp,520
    108c:	0000                	unimp
    108e:	0001                	nop
    1090:	0061                	c.addi	zero,24
    1092:	0000                	unimp
    1094:	0000                	unimp
    1096:	0000                	unimp
    1098:	f400                	fsw	fs0,40(s0)
    109a:	08000003          	lb	zero,128(zero) # 80 <buflen.1744+0x40>
    109e:	0004                	addi	s1,sp,0
    10a0:	1000                	addi	s0,sp,32
    10a2:	8c00                	0x8c00
    10a4:	0a00                	addi	s0,sp,272
    10a6:	ffff                	0xffff
    10a8:	7d1a                	flw	fs10,164(sp)
    10aa:	0a00                	addi	s0,sp,272
    10ac:	ffff                	0xffff
    10ae:	401a                	0x401a
    10b0:	2224                	fld	fs1,64(a2)
    10b2:	089f 0004 1000      	0x10000004089f
    10b8:	0004                	addi	s1,sp,0
    10ba:	1500                	addi	s0,sp,672
    10bc:	8c00                	0x8c00
    10be:	0a00                	addi	s0,sp,272
    10c0:	ffff                	0xffff
    10c2:	8c1a                	mv	s8,t1
    10c4:	4000                	lw	s0,0(s0)
    10c6:	7625                	lui	a2,0xfffe9
    10c8:	2200                	fld	fs0,0(a2)
    10ca:	ff0a                	fsw	ft2,188(sp)
    10cc:	1aff                	0x1aff
    10ce:	2440                	fld	fs0,136(s0)
    10d0:	9f22                	add	t5,t5,s0
	...
    10da:	0334                	addi	a3,sp,392
    10dc:	0000                	unimp
    10de:	0378                	addi	a4,sp,396
    10e0:	0000                	unimp
    10e2:	0001                	nop
    10e4:	786d                	lui	a6,0xffffb
    10e6:	d4000003          	lb	zero,-704(zero) # fffffd40 <__C_STACK_TOP__+0xfffefd40>
    10ea:	05000003          	lb	zero,80(zero) # 50 <buflen.1744+0x10>
    10ee:	7d00                	flw	fs0,56(a0)
    10f0:	4000                	lw	s0,0(s0)
    10f2:	9f25                	0x9f25
	...
    10fc:	0334                	addi	a3,sp,392
    10fe:	0000                	unimp
    1100:	037c                	addi	a5,sp,396
    1102:	0000                	unimp
    1104:	0001                	nop
    1106:	7c5f 0003 d400      	0xd40000037c5f
    110c:	07000003          	lb	zero,112(zero) # 70 <buflen.1744+0x30>
    1110:	7d00                	flw	fs0,56(a0)
    1112:	4000                	lw	s0,0(s0)
    1114:	4024                	lw	s1,64(s0)
    1116:	9f25                	0x9f25
	...
    1120:	0338                	addi	a4,sp,392
    1122:	0000                	unimp
    1124:	0354                	addi	a3,sp,388
    1126:	0000                	unimp
    1128:	0001                	nop
    112a:	545e                	lw	s0,244(sp)
    112c:	a8000003          	lb	zero,-1408(zero) # fffffa80 <__C_STACK_TOP__+0xfffefa80>
    1130:	01000003          	lb	zero,16(zero) # 10 <buf.1743+0x10>
    1134:	6c00                	flw	fs0,24(s0)
	...
    113e:	0370                	addi	a2,sp,396
    1140:	0000                	unimp
    1142:	0394                	addi	a3,sp,448
    1144:	0000                	unimp
    1146:	0001                	nop
    1148:	9460                	0x9460
    114a:	b4000003          	lb	zero,-1216(zero) # fffffb40 <__C_STACK_TOP__+0xfffefb40>
    114e:	01000003          	lb	zero,16(zero) # 10 <buf.1743+0x10>
    1152:	5e00                	lw	s0,56(a2)
	...
    115c:	0334                	addi	a3,sp,392
    115e:	0000                	unimp
    1160:	033c                	addi	a5,sp,392
    1162:	0000                	unimp
    1164:	0001                	nop
    1166:	4461                	li	s0,24
    1168:	50000003          	lb	zero,1280(zero) # 500 <vprintfmt.constprop.1+0xc4>
    116c:	01000003          	lb	zero,16(zero) # 10 <buf.1743+0x10>
    1170:	6000                	flw	fs0,0(s0)
    1172:	0350                	addi	a2,sp,388
    1174:	0000                	unimp
    1176:	0354                	addi	a3,sp,388
    1178:	0000                	unimp
    117a:	0008                	addi	a0,sp,0
    117c:	0076                	0x76
    117e:	2540                	fld	fs0,136(a0)
    1180:	0081                	addi	ra,ra,0
    1182:	9f21                	0x9f21
    1184:	0354                	addi	a3,sp,388
    1186:	0000                	unimp
    1188:	0370                	addi	a2,sp,396
    118a:	0000                	unimp
    118c:	0001                	nop
    118e:	0060                	addi	s0,sp,12
    1190:	0000                	unimp
    1192:	0000                	unimp
    1194:	0000                	unimp
    1196:	6c00                	flw	fs0,24(s0)
    1198:	74000003          	lb	zero,1856(zero) # 740 <vprintfmt.constprop.1+0x304>
    119c:	01000003          	lb	zero,16(zero) # 10 <buf.1743+0x10>
    11a0:	6100                	flw	fs0,0(a0)
    11a2:	0384                	addi	s1,sp,448
    11a4:	0000                	unimp
    11a6:	0390                	addi	a2,sp,448
    11a8:	0000                	unimp
    11aa:	0001                	nop
    11ac:	905f 0003 9400      	0x94000003905f
    11b2:	0a000003          	lb	zero,160(zero) # a0 <buflen.1744+0x60>
    11b6:	7600                	flw	fs0,40(a2)
    11b8:	4000                	lw	s0,0(s0)
    11ba:	4024                	lw	s1,64(s0)
    11bc:	8125                	srli	a0,a0,0x9
    11be:	2100                	fld	fs0,0(a0)
    11c0:	949f 0003 0000      	0x3949f
    11c6:	0004                	addi	s1,sp,0
    11c8:	0100                	addi	s0,sp,128
    11ca:	5f00                	lw	s0,56(a4)
	...
    11d4:	0344                	addi	s1,sp,388
    11d6:	0000                	unimp
    11d8:	0378                	addi	a4,sp,396
    11da:	0000                	unimp
    11dc:	0001                	nop
    11de:	786e                	flw	fa6,248(sp)
    11e0:	b0000003          	lb	zero,-1280(zero) # fffffb00 <__C_STACK_TOP__+0xfffefb00>
    11e4:	01000003          	lb	zero,16(zero) # 10 <buf.1743+0x10>
    11e8:	6d00                	flw	fs0,24(a0)
    11ea:	03b0                	addi	a2,sp,456
    11ec:	0000                	unimp
    11ee:	03b8                	addi	a4,sp,456
    11f0:	0000                	unimp
    11f2:	000a                	0xa
    11f4:	007d                	c.addi	zero,31
    11f6:	2440                	fld	fs0,136(s0)
    11f8:	2540                	fld	fs0,136(a0)
    11fa:	0080                	addi	s0,sp,64
    11fc:	9f1e                	add	t5,t5,t2
	...
    1206:	03cc                	addi	a1,sp,452
    1208:	0000                	unimp
    120a:	0410                	addi	a2,sp,512
    120c:	0000                	unimp
    120e:	0001                	nop
    1210:	006c                	addi	a1,sp,12
    1212:	0000                	unimp
    1214:	0000                	unimp
    1216:	0000                	unimp
    1218:	cc00                	sw	s0,24(s0)
    121a:	d8000003          	lb	zero,-640(zero) # fffffd80 <__C_STACK_TOP__+0xfffefd80>
    121e:	06000003          	lb	zero,96(zero) # 60 <buflen.1744+0x20>
    1222:	7600                	flw	fs0,40(a2)
    1224:	7c00                	flw	fs0,56(s0)
    1226:	1e00                	addi	s0,sp,816
    1228:	d89f 0003 dc00      	0xdc000003d89f
    122e:	01000003          	lb	zero,16(zero) # 10 <buf.1743+0x10>
    1232:	5600                	lw	s0,40(a2)
    1234:	03dc                	addi	a5,sp,452
    1236:	0000                	unimp
    1238:	03e4                	addi	s1,sp,460
    123a:	0000                	unimp
    123c:	0009                	c.addi	zero,2
    123e:	7f8d                	lui	t6,0xfffe3
    1240:	007e                	0x7e
    1242:	7c1a                	flw	fs8,164(sp)
    1244:	1e00                	addi	s0,sp,816
    1246:	e49f 0003 0800      	0x8000003e49f
    124c:	0004                	addi	s1,sp,0
    124e:	0100                	addi	s0,sp,128
    1250:	5d00                	lw	s0,56(a0)
    1252:	0408                	addi	a0,sp,512
    1254:	0000                	unimp
    1256:	0410                	addi	a2,sp,512
    1258:	0000                	unimp
    125a:	0008                	addi	a0,sp,0
    125c:	008c                	addi	a1,sp,64
    125e:	2540                	fld	fs0,136(a0)
    1260:	0076                	0x76
    1262:	9f22                	add	t5,t5,s0
	...
    126c:	03d0                	addi	a2,sp,452
    126e:	0000                	unimp
    1270:	0428                	addi	a0,sp,520
    1272:	0000                	unimp
    1274:	0001                	nop
    1276:	0060                	addi	s0,sp,12
    1278:	0000                	unimp
    127a:	0000                	unimp
    127c:	0000                	unimp
    127e:	e400                	fsw	fs0,8(s0)
    1280:	f4000003          	lb	zero,-192(zero) # ffffff40 <__C_STACK_TOP__+0xfffeff40>
    1284:	01000003          	lb	zero,16(zero) # 10 <buf.1743+0x10>
    1288:	6100                	flw	fs0,0(a0)
	...
    1292:	03bc                	addi	a5,sp,456
    1294:	0000                	unimp
    1296:	03d8                	addi	a4,sp,452
    1298:	0000                	unimp
    129a:	0001                	nop
    129c:	d856                	sw	s5,48(sp)
    129e:	04000003          	lb	zero,64(zero) # 40 <buflen.1744>
    12a2:	0004                	addi	s1,sp,0
    12a4:	0600                	addi	s0,sp,768
    12a6:	8d00                	0x8d00
    12a8:	7e7f                	0x7e7f
    12aa:	1a00                	addi	s0,sp,304
    12ac:	049f 0004 2000      	0x20000004049f
    12b2:	0004                	addi	s1,sp,0
    12b4:	0600                	addi	s0,sp,768
    12b6:	7e00                	flw	fs0,56(a2)
    12b8:	7f00                	flw	fs0,56(a4)
    12ba:	1a00                	addi	s0,sp,304
    12bc:	209f 0004 2400      	0x24000004209f
    12c2:	0004                	addi	s1,sp,0
    12c4:	0600                	addi	s0,sp,768
    12c6:	8d00                	0x8d00
    12c8:	7e7f                	0x7e7f
    12ca:	1a00                	addi	s0,sp,304
    12cc:	249f 0004 2800      	0x28000004249f
    12d2:	0004                	addi	s1,sp,0
    12d4:	0600                	addi	s0,sp,768
    12d6:	7e00                	flw	fs0,56(a2)
    12d8:	8d01                	sub	a0,a0,s0
    12da:	1a7f                	0x1a7f
    12dc:	009f 0000 0000      	0x9f
    12e2:	0000                	unimp
    12e4:	c400                	sw	s0,8(s0)
    12e6:	d0000003          	lb	zero,-768(zero) # fffffd00 <__C_STACK_TOP__+0xfffefd00>
    12ea:	01000003          	lb	zero,16(zero) # 10 <buf.1743+0x10>
    12ee:	6000                	flw	fs0,0(s0)
	...
    12f8:	03c0                	addi	s0,sp,452
    12fa:	0000                	unimp
    12fc:	03e4                	addi	s1,sp,460
    12fe:	0000                	unimp
    1300:	0001                	nop
    1302:	e461                	bnez	s0,13ca <vprintfmt.constprop.1+0xf8e>
    1304:	24000003          	lb	zero,576(zero) # 240 <trap_entry+0xa>
    1308:	0004                	addi	s1,sp,0
    130a:	0500                	addi	s0,sp,640
    130c:	7e00                	flw	fs0,56(a2)
    130e:	4000                	lw	s0,0(s0)
    1310:	9f25                	0x9f25
    1312:	0424                	addi	s1,sp,520
    1314:	0000                	unimp
    1316:	0428                	addi	a0,sp,520
    1318:	0000                	unimp
    131a:	0005                	c.addi	zero,1
    131c:	017e                	slli	sp,sp,0x1f
    131e:	2540                	fld	fs0,136(a0)
    1320:	009f 0000 0000      	0x9f
    1326:	0000                	unimp
    1328:	c800                	sw	s0,16(s0)
    132a:	f0000003          	lb	zero,-256(zero) # ffffff00 <__C_STACK_TOP__+0xfffeff00>
    132e:	01000003          	lb	zero,16(zero) # 10 <buf.1743+0x10>
    1332:	5c00                	lw	s0,56(s0)
	...
    133c:	0114                	addi	a3,sp,128
    133e:	0000                	unimp
    1340:	01d4                	addi	a3,sp,196
    1342:	0000                	unimp
    1344:	0001                	nop
    1346:	dc60                	sw	s0,124(s0)
    1348:	0001                	nop
    134a:	f000                	fsw	fs0,32(s0)
    134c:	0001                	nop
    134e:	0100                	addi	s0,sp,128
    1350:	6000                	flw	fs0,0(s0)
    1352:	01f0                	addi	a2,sp,204
    1354:	0000                	unimp
    1356:	01f4                	addi	a3,sp,204
    1358:	0000                	unimp
    135a:	0006                	0x6
    135c:	0080                	addi	s0,sp,64
    135e:	007e                	0x7e
    1360:	9f24                	0x9f24
    1362:	01f4                	addi	a3,sp,204
    1364:	0000                	unimp
    1366:	029c                	addi	a5,sp,320
    1368:	0000                	unimp
    136a:	0001                	nop
    136c:	0060                	addi	s0,sp,12
    136e:	0000                	unimp
    1370:	0000                	unimp
    1372:	0000                	unimp
    1374:	2800                	fld	fs0,16(s0)
    1376:	0001                	nop
    1378:	4c00                	lw	s0,24(s0)
    137a:	0001                	nop
    137c:	0100                	addi	s0,sp,128
    137e:	6100                	flw	fs0,0(a0)
    1380:	01f0                	addi	a2,sp,204
    1382:	0000                	unimp
    1384:	0210                	addi	a2,sp,256
    1386:	0000                	unimp
    1388:	0001                	nop
    138a:	0061                	c.addi	zero,24
    138c:	0000                	unimp
    138e:	0000                	unimp
    1390:	0000                	unimp
    1392:	5000                	lw	s0,32(s0)
    1394:	0001                	nop
    1396:	d400                	sw	s0,40(s0)
    1398:	0001                	nop
    139a:	0100                	addi	s0,sp,128
    139c:	5c00                	lw	s0,56(s0)
	...
    13a6:	0158                	addi	a4,sp,132
    13a8:	0000                	unimp
    13aa:	01b0                	addi	a2,sp,200
    13ac:	0000                	unimp
    13ae:	0001                	nop
    13b0:	b061                	j	c38 <vprintfmt.constprop.1+0x7fc>
    13b2:	0001                	nop
    13b4:	d400                	sw	s0,40(s0)
    13b6:	0001                	nop
    13b8:	0700                	addi	s0,sp,896
    13ba:	8000                	0x8000
    13bc:	4000                	lw	s0,0(s0)
    13be:	4024                	lw	s1,64(s0)
    13c0:	9f25                	0x9f25
	...
    13ca:	0164                	addi	s1,sp,140
    13cc:	0000                	unimp
    13ce:	0180                	addi	s0,sp,192
    13d0:	0000                	unimp
    13d2:	0001                	nop
    13d4:	805f 0001 d000      	0xd0000001805f
    13da:	0001                	nop
    13dc:	0100                	addi	s0,sp,128
    13de:	5e00                	lw	s0,56(a2)
	...
    13e8:	01a4                	addi	s1,sp,200
    13ea:	0000                	unimp
    13ec:	01c0                	addi	s0,sp,196
    13ee:	0000                	unimp
    13f0:	0001                	nop
    13f2:	c05d                	beqz	s0,1498 <vprintfmt.constprop.1+0x105c>
    13f4:	0001                	nop
    13f6:	d400                	sw	s0,40(s0)
    13f8:	0001                	nop
    13fa:	0100                	addi	s0,sp,128
    13fc:	5a00                	lw	s0,48(a2)
	...
    1406:	0160                	addi	s0,sp,140
    1408:	0000                	unimp
    140a:	0168                	addi	a0,sp,140
    140c:	0000                	unimp
    140e:	0001                	nop
    1410:	705e                	flw	ft0,244(sp)
    1412:	0001                	nop
    1414:	7c00                	flw	fs0,56(s0)
    1416:	0001                	nop
    1418:	0100                	addi	s0,sp,128
    141a:	5d00                	lw	s0,56(a0)
    141c:	0180                	addi	s0,sp,192
    141e:	0000                	unimp
    1420:	01a4                	addi	s1,sp,200
    1422:	0000                	unimp
    1424:	0001                	nop
    1426:	005d                	c.addi	zero,23
    1428:	0000                	unimp
    142a:	0000                	unimp
    142c:	0000                	unimp
    142e:	9800                	0x9800
    1430:	0001                	nop
    1432:	a800                	fsd	fs0,16(s0)
    1434:	0001                	nop
    1436:	0100                	addi	s0,sp,128
    1438:	5f00                	lw	s0,56(a4)
    143a:	01b0                	addi	a2,sp,200
    143c:	0000                	unimp
    143e:	01bc                	addi	a5,sp,200
    1440:	0000                	unimp
    1442:	0001                	nop
    1444:	0056                	0x56
    1446:	0000                	unimp
    1448:	0000                	unimp
    144a:	0000                	unimp
    144c:	7000                	flw	fs0,32(s0)
    144e:	0001                	nop
    1450:	b000                	fsd	fs0,32(s0)
    1452:	0001                	nop
    1454:	0100                	addi	s0,sp,128
    1456:	5a00                	lw	s0,48(a2)
    1458:	01b0                	addi	a2,sp,200
    145a:	0000                	unimp
    145c:	01d4                	addi	a3,sp,196
    145e:	0000                	unimp
    1460:	0001                	nop
    1462:	0061                	c.addi	zero,24
    1464:	0000                	unimp
    1466:	0000                	unimp
    1468:	0000                	unimp
    146a:	1000                	addi	s0,sp,32
    146c:	0002                	0x2
    146e:	9c00                	0x9c00
    1470:	0002                	0x2
    1472:	0100                	addi	s0,sp,128
    1474:	5a00                	lw	s0,48(a2)
	...
    147e:	0218                	addi	a4,sp,256
    1480:	0000                	unimp
    1482:	026c                	addi	a1,sp,268
    1484:	0000                	unimp
    1486:	0001                	nop
    1488:	6c5f 0002 9c00      	0x9c0000026c5f
    148e:	0002                	0x2
    1490:	0700                	addi	s0,sp,896
    1492:	8000                	0x8000
    1494:	4000                	lw	s0,0(s0)
    1496:	4024                	lw	s1,64(s0)
    1498:	9f25                	0x9f25
	...
    14a2:	0220                	addi	s0,sp,264
    14a4:	0000                	unimp
    14a6:	023c                	addi	a5,sp,264
    14a8:	0000                	unimp
    14aa:	0001                	nop
    14ac:	00023c5b          	0x23c5b
    14b0:	9c00                	0x9c00
    14b2:	0002                	0x2
    14b4:	0100                	addi	s0,sp,128
    14b6:	5c00                	lw	s0,56(s0)
	...
    14c0:	0260                	addi	s0,sp,268
    14c2:	0000                	unimp
    14c4:	027c                	addi	a5,sp,268
    14c6:	0000                	unimp
    14c8:	0001                	nop
    14ca:	7c5d                	lui	s8,0xffff7
    14cc:	0002                	0x2
    14ce:	9c00                	0x9c00
    14d0:	0002                	0x2
    14d2:	0100                	addi	s0,sp,128
    14d4:	5e00                	lw	s0,56(a2)
	...
    14de:	0218                	addi	a4,sp,256
    14e0:	0000                	unimp
    14e2:	0224                	addi	s1,sp,264
    14e4:	0000                	unimp
    14e6:	0001                	nop
    14e8:	2c5e                	fld	fs8,464(sp)
    14ea:	0002                	0x2
    14ec:	3800                	fld	fs0,48(s0)
    14ee:	0002                	0x2
    14f0:	0100                	addi	s0,sp,128
    14f2:	5e00                	lw	s0,56(a2)
    14f4:	023c                	addi	a5,sp,264
    14f6:	0000                	unimp
    14f8:	0250                	addi	a2,sp,260
    14fa:	0000                	unimp
    14fc:	0001                	nop
    14fe:	505e                	0x505e
    1500:	0002                	0x2
    1502:	6000                	flw	fs0,0(s0)
    1504:	0002                	0x2
    1506:	0100                	addi	s0,sp,128
    1508:	5d00                	lw	s0,56(a0)
	...
    1512:	0254                	addi	a3,sp,260
    1514:	0000                	unimp
    1516:	0264                	addi	s1,sp,268
    1518:	0000                	unimp
    151a:	0001                	nop
    151c:	6c5e                	flw	fs8,212(sp)
    151e:	0002                	0x2
    1520:	7800                	flw	fs0,48(s0)
    1522:	0002                	0x2
    1524:	0100                	addi	s0,sp,128
    1526:	5f00                	lw	s0,56(a4)
    1528:	027c                	addi	a5,sp,268
    152a:	0000                	unimp
    152c:	029c                	addi	a5,sp,320
    152e:	0000                	unimp
    1530:	0001                	nop
    1532:	005f 0000 0000      	0x5f
    1538:	0000                	unimp
    153a:	2c00                	fld	fs0,24(s0)
    153c:	0002                	0x2
    153e:	5000                	lw	s0,32(s0)
    1540:	0002                	0x2
    1542:	0100                	addi	s0,sp,128
    1544:	5d00                	lw	s0,56(a0)
    1546:	0250                	addi	a2,sp,260
    1548:	0000                	unimp
    154a:	0268                	addi	a0,sp,268
    154c:	0000                	unimp
    154e:	0006                	0x6
    1550:	007f                	0x7f
    1552:	9f1e007b          	0x9f1e007b
    1556:	0268                	addi	a0,sp,268
    1558:	0000                	unimp
    155a:	0294                	addi	a3,sp,320
    155c:	0000                	unimp
    155e:	0001                	nop
    1560:	0002945b          	0x2945b
    1564:	9c00                	0x9c00
    1566:	0002                	0x2
    1568:	0a00                	addi	s0,sp,272
    156a:	8000                	0x8000
    156c:	4000                	lw	s0,0(s0)
    156e:	4024                	lw	s1,64(s0)
    1570:	7d25                	lui	s10,0xfffe9
    1572:	1e00                	addi	s0,sp,816
    1574:	009f 0000 0000      	0x9f
    157a:	0000                	unimp
    157c:	a000                	fsd	fs0,0(s0)
    157e:	0002                	0x2
    1580:	0800                	addi	s0,sp,16
    1582:	01000003          	lb	zero,16(zero) # 10 <buf.1743+0x10>
    1586:	5d00                	lw	s0,56(a0)
    1588:	0308                	addi	a0,sp,384
    158a:	0000                	unimp
    158c:	0318                	addi	a4,sp,384
    158e:	0000                	unimp
    1590:	0001                	nop
    1592:	0061                	c.addi	zero,24
    1594:	0000                	unimp
    1596:	0000                	unimp
    1598:	0000                	unimp
    159a:	b400                	fsd	fs0,40(s0)
    159c:	0002                	0x2
    159e:	dc00                	sw	s0,56(s0)
    15a0:	0002                	0x2
    15a2:	0100                	addi	s0,sp,128
    15a4:	5e00                	lw	s0,56(a2)
    15a6:	0300                	addi	s0,sp,384
    15a8:	0000                	unimp
    15aa:	0304                	addi	s1,sp,384
    15ac:	0000                	unimp
    15ae:	0001                	nop
    15b0:	005e                	0x5e
	...
    15ba:	0000                	unimp
    15bc:	7000                	flw	fs0,32(s0)
    15be:	0000                	unimp
    15c0:	0600                	addi	s0,sp,768
    15c2:	5a00                	lw	s0,48(a2)
    15c4:	935b0493          	addi	s1,s6,-1739
    15c8:	7004                	flw	fs1,32(s0)
    15ca:	0000                	unimp
    15cc:	e000                	fsw	fs0,0(s0)
    15ce:	0000                	unimp
    15d0:	0600                	addi	s0,sp,768
    15d2:	f300                	fsw	fs0,32(a4)
    15d4:	250af503          	0x250af503
    15d8:	e09f 0000 3400      	0x34000000e09f
    15de:	0001                	nop
    15e0:	0600                	addi	s0,sp,768
    15e2:	5a00                	lw	s0,48(a2)
    15e4:	935b0493          	addi	s1,s6,-1739
    15e8:	3404                	fld	fs1,40(s0)
    15ea:	0001                	nop
    15ec:	a800                	fsd	fs0,16(s0)
    15ee:	0001                	nop
    15f0:	0600                	addi	s0,sp,768
    15f2:	f300                	fsw	fs0,32(a4)
    15f4:	250af503          	0x250af503
    15f8:	a89f 0001 d000      	0xd0000001a89f
    15fe:	0001                	nop
    1600:	0600                	addi	s0,sp,768
    1602:	5a00                	lw	s0,48(a2)
    1604:	935b0493          	addi	s1,s6,-1739
    1608:	d004                	sw	s1,32(s0)
    160a:	0001                	nop
    160c:	4800                	lw	s0,16(s0)
    160e:	0002                	0x2
    1610:	0600                	addi	s0,sp,768
    1612:	f300                	fsw	fs0,32(a4)
    1614:	250af503          	0x250af503
    1618:	489f 0002 9800      	0x98000002489f
    161e:	0002                	0x2
    1620:	0600                	addi	s0,sp,768
    1622:	5a00                	lw	s0,48(a2)
    1624:	935b0493          	addi	s1,s6,-1739
    1628:	9804                	0x9804
    162a:	0002                	0x2
    162c:	a800                	fsd	fs0,16(s0)
    162e:	0002                	0x2
    1630:	0600                	addi	s0,sp,768
    1632:	f300                	fsw	fs0,32(a4)
    1634:	250af503          	0x250af503
    1638:	a89f 0002 f400      	0xf4000002a89f
    163e:	0002                	0x2
    1640:	0600                	addi	s0,sp,768
    1642:	5a00                	lw	s0,48(a2)
    1644:	935b0493          	addi	s1,s6,-1739
    1648:	f404                	fsw	fs1,40(s0)
    164a:	0002                	0x2
    164c:	1000                	addi	s0,sp,32
    164e:	0004                	addi	s1,sp,0
    1650:	0600                	addi	s0,sp,768
    1652:	f300                	fsw	fs0,32(a4)
    1654:	250af503          	0x250af503
    1658:	009f 0000 0000      	0x9f
    165e:	0000                	unimp
    1660:	0000                	unimp
    1662:	0000                	unimp
    1664:	6800                	flw	fs0,16(s0)
    1666:	0000                	unimp
    1668:	0600                	addi	s0,sp,768
    166a:	5c00                	lw	s0,56(s0)
    166c:	935d0493          	addi	s1,s10,-1739 # fffe8935 <__C_STACK_TOP__+0xfffd8935>
    1670:	6804                	flw	fs1,16(s0)
    1672:	0000                	unimp
    1674:	e000                	fsw	fs0,0(s0)
    1676:	0000                	unimp
    1678:	0600                	addi	s0,sp,768
    167a:	f300                	fsw	fs0,32(a4)
    167c:	250cf503          	0x250cf503
    1680:	e09f 0000 fc00      	0xfc000000e09f
    1686:	0000                	unimp
    1688:	0600                	addi	s0,sp,768
    168a:	5c00                	lw	s0,56(s0)
    168c:	935d0493          	addi	s1,s10,-1739
    1690:	fc04                	fsw	fs1,56(s0)
    1692:	0000                	unimp
    1694:	4800                	lw	s0,16(s0)
    1696:	0002                	0x2
    1698:	0600                	addi	s0,sp,768
    169a:	f300                	fsw	fs0,32(a4)
    169c:	250cf503          	0x250cf503
    16a0:	489f 0002 f000      	0xf0000002489f
    16a6:	0002                	0x2
    16a8:	0600                	addi	s0,sp,768
    16aa:	5c00                	lw	s0,56(s0)
    16ac:	935d0493          	addi	s1,s10,-1739
    16b0:	f004                	fsw	fs1,32(s0)
    16b2:	0002                	0x2
    16b4:	1000                	addi	s0,sp,32
    16b6:	0004                	addi	s1,sp,0
    16b8:	0600                	addi	s0,sp,768
    16ba:	f300                	fsw	fs0,32(a4)
    16bc:	250cf503          	0x250cf503
    16c0:	009f 0000 0000      	0x9f
    16c6:	0000                	unimp
    16c8:	a400                	fsd	fs0,8(s0)
    16ca:	0002                	0x2
    16cc:	a800                	fsd	fs0,16(s0)
    16ce:	0002                	0x2
    16d0:	0600                	addi	s0,sp,768
    16d2:	5f00                	lw	s0,56(a4)
    16d4:	93600493          	li	s1,-1738
    16d8:	0004                	addi	s1,sp,0
	...
    16e2:	0000                	unimp
    16e4:	dc00                	sw	s0,56(s0)
    16e6:	0000                	unimp
    16e8:	0600                	addi	s0,sp,768
    16ea:	f200                	fsw	fs0,32(a2)
    16ec:	2e06                	fld	ft8,64(sp)
    16ee:	0000                	unimp
    16f0:	e000                	fsw	fs0,0(s0)
    16f2:	0000                	unimp
    16f4:	0c00                	addi	s0,sp,528
    16f6:	0004                	addi	s1,sp,0
    16f8:	0600                	addi	s0,sp,768
    16fa:	f200                	fsw	fs0,32(a2)
    16fc:	2e06                	fld	ft8,64(sp)
	...
    170a:	0000                	unimp
    170c:	1800                	addi	s0,sp,48
    170e:	0000                	unimp
    1710:	0600                	addi	s0,sp,768
    1712:	5c00                	lw	s0,56(s0)
    1714:	935d0493          	addi	s1,s10,-1739
    1718:	1804                	addi	s1,sp,48
    171a:	0000                	unimp
    171c:	3400                	fld	fs0,40(s0)
    171e:	0000                	unimp
    1720:	0600                	addi	s0,sp,768
    1722:	5c00                	lw	s0,56(s0)
    1724:	935e0493          	addi	s1,t3,-1739
    1728:	e004                	fsw	fs1,0(s0)
    172a:	0000                	unimp
    172c:	e800                	fsw	fs0,16(s0)
    172e:	0000                	unimp
    1730:	0600                	addi	s0,sp,768
    1732:	5c00                	lw	s0,56(s0)
    1734:	935e0493          	addi	s1,t3,-1739
    1738:	f404                	fsw	fs1,40(s0)
    173a:	0000                	unimp
    173c:	fc00                	fsw	fs0,56(s0)
    173e:	0000                	unimp
    1740:	0600                	addi	s0,sp,768
    1742:	5c00                	lw	s0,56(s0)
    1744:	935e0493          	addi	s1,t3,-1739
    1748:	fc04                	fsw	fs1,56(s0)
    174a:	0000                	unimp
    174c:	0000                	unimp
    174e:	0001                	nop
    1750:	0600                	addi	s0,sp,768
    1752:	6100                	flw	fs0,0(a0)
    1754:	935e0493          	addi	s1,t3,-1739
    1758:	4804                	lw	s1,16(s0)
    175a:	0002                	0x2
    175c:	c400                	sw	s0,8(s0)
    175e:	0002                	0x2
    1760:	0600                	addi	s0,sp,768
    1762:	5c00                	lw	s0,56(s0)
    1764:	935d0493          	addi	s1,s10,-1739
    1768:	0004                	addi	s1,sp,0
	...
    1772:	0000                	unimp
    1774:	5400                	lw	s0,40(s0)
    1776:	0000                	unimp
    1778:	0600                	addi	s0,sp,768
    177a:	5a00                	lw	s0,48(a2)
    177c:	935b0493          	addi	s1,s6,-1739
    1780:	5404                	lw	s1,40(s0)
    1782:	0000                	unimp
    1784:	6000                	flw	fs0,0(s0)
    1786:	0000                	unimp
    1788:	0600                	addi	s0,sp,768
    178a:	5a00                	lw	s0,48(a2)
    178c:	93600493          	li	s1,-1738
    1790:	e004                	fsw	fs1,0(s0)
    1792:	0000                	unimp
    1794:	3400                	fld	fs0,40(s0)
    1796:	0001                	nop
    1798:	0600                	addi	s0,sp,768
    179a:	5a00                	lw	s0,48(a2)
    179c:	935b0493          	addi	s1,s6,-1739
    17a0:	a804                	fsd	fs1,16(s0)
    17a2:	0001                	nop
    17a4:	d000                	sw	s0,32(s0)
    17a6:	0001                	nop
    17a8:	0600                	addi	s0,sp,768
    17aa:	5a00                	lw	s0,48(a2)
    17ac:	935b0493          	addi	s1,s6,-1739
    17b0:	4804                	lw	s1,16(s0)
    17b2:	0002                	0x2
    17b4:	9400                	0x9400
    17b6:	0002                	0x2
    17b8:	0600                	addi	s0,sp,768
    17ba:	5a00                	lw	s0,48(a2)
    17bc:	935b0493          	addi	s1,s6,-1739
    17c0:	9404                	0x9404
    17c2:	0002                	0x2
    17c4:	9800                	0x9800
    17c6:	0002                	0x2
    17c8:	0600                	addi	s0,sp,768
    17ca:	5a00                	lw	s0,48(a2)
    17cc:	93600493          	li	s1,-1738
    17d0:	a804                	fsd	fs1,16(s0)
    17d2:	0002                	0x2
    17d4:	d400                	sw	s0,40(s0)
    17d6:	0002                	0x2
    17d8:	0600                	addi	s0,sp,768
    17da:	5a00                	lw	s0,48(a2)
    17dc:	935b0493          	addi	s1,s6,-1739
    17e0:	d404                	sw	s1,40(s0)
    17e2:	0002                	0x2
    17e4:	f400                	fsw	fs0,40(s0)
    17e6:	0002                	0x2
    17e8:	0600                	addi	s0,sp,768
    17ea:	5a00                	lw	s0,48(a2)
    17ec:	93600493          	li	s1,-1738
    17f0:	0004                	addi	s1,sp,0
    17f2:	0000                	unimp
    17f4:	0000                	unimp
    17f6:	0000                	unimp
    17f8:	0400                	addi	s0,sp,512
    17fa:	0000                	unimp
    17fc:	5c00                	lw	s0,56(s0)
    17fe:	0000                	unimp
    1800:	0100                	addi	s0,sp,128
    1802:	5c00                	lw	s0,56(s0)
    1804:	005c                	addi	a5,sp,4
    1806:	0000                	unimp
    1808:	00dc                	addi	a5,sp,68
    180a:	0000                	unimp
    180c:	0001                	nop
    180e:	e061                	bnez	s0,18ce <main+0x13a>
    1810:	0000                	unimp
    1812:	fc00                	fsw	fs0,56(s0)
    1814:	0000                	unimp
    1816:	0100                	addi	s0,sp,128
    1818:	5c00                	lw	s0,56(s0)
    181a:	00fc                	addi	a5,sp,76
    181c:	0000                	unimp
    181e:	0248                	addi	a0,sp,260
    1820:	0000                	unimp
    1822:	0001                	nop
    1824:	4861                	li	a6,24
    1826:	0002                	0x2
    1828:	dc00                	sw	s0,56(s0)
    182a:	01000003          	lb	zero,16(zero) # 10 <buf.1743+0x10>
    182e:	5c00                	lw	s0,56(s0)
	...
    1838:	0008                	addi	a0,sp,0
    183a:	0000                	unimp
    183c:	0018                	addi	a4,sp,0
    183e:	0000                	unimp
    1840:	0001                	nop
    1842:	185d                	addi	a6,a6,-9
    1844:	0000                	unimp
    1846:	3400                	fld	fs0,40(s0)
    1848:	0000                	unimp
    184a:	0100                	addi	s0,sp,128
    184c:	5e00                	lw	s0,56(a2)
    184e:	00e0                	addi	s0,sp,76
    1850:	0000                	unimp
    1852:	00e8                	addi	a0,sp,76
    1854:	0000                	unimp
    1856:	0001                	nop
    1858:	f45e                	fsw	fs7,40(sp)
    185a:	0000                	unimp
    185c:	1400                	addi	s0,sp,544
    185e:	0001                	nop
    1860:	0100                	addi	s0,sp,128
    1862:	5e00                	lw	s0,56(a2)
    1864:	01a8                	addi	a0,sp,200
    1866:	0000                	unimp
    1868:	01b0                	addi	a2,sp,200
    186a:	0000                	unimp
    186c:	0001                	nop
    186e:	485e                	lw	a6,212(sp)
    1870:	0002                	0x2
    1872:	c400                	sw	s0,8(s0)
    1874:	0002                	0x2
    1876:	0100                	addi	s0,sp,128
    1878:	5d00                	lw	s0,56(a0)
    187a:	02c8                	addi	a0,sp,324
    187c:	0000                	unimp
    187e:	040c                	addi	a1,sp,512
    1880:	0000                	unimp
    1882:	0001                	nop
    1884:	005d                	c.addi	zero,23
    1886:	0000                	unimp
    1888:	0000                	unimp
    188a:	0000                	unimp
    188c:	0c00                	addi	s0,sp,528
    188e:	0000                	unimp
    1890:	6400                	flw	fs0,8(s0)
    1892:	0000                	unimp
    1894:	0100                	addi	s0,sp,128
    1896:	5a00                	lw	s0,48(a2)
    1898:	0064                	addi	s1,sp,12
    189a:	0000                	unimp
    189c:	00a8                	addi	a0,sp,72
    189e:	0000                	unimp
    18a0:	0001                	nop
    18a2:	d45f 0000 dc00      	0xdc000000d45f
    18a8:	0000                	unimp
    18aa:	0100                	addi	s0,sp,128
    18ac:	5f00                	lw	s0,56(a4)
    18ae:	00e0                	addi	s0,sp,76
    18b0:	0000                	unimp
    18b2:	0134                	addi	a3,sp,136
    18b4:	0000                	unimp
    18b6:	0001                	nop
    18b8:	a45a                	fsd	fs6,8(sp)
    18ba:	0001                	nop
    18bc:	a800                	fsd	fs0,16(s0)
    18be:	0001                	nop
    18c0:	0100                	addi	s0,sp,128
    18c2:	5f00                	lw	s0,56(a4)
    18c4:	01a8                	addi	a0,sp,200
    18c6:	0000                	unimp
    18c8:	01d0                	addi	a2,sp,196
    18ca:	0000                	unimp
    18cc:	0001                	nop
    18ce:	485a                	lw	a6,148(sp)
    18d0:	0002                	0x2
    18d2:	9800                	0x9800
    18d4:	0002                	0x2
    18d6:	0100                	addi	s0,sp,128
    18d8:	5a00                	lw	s0,48(a2)
    18da:	029c                	addi	a5,sp,320
    18dc:	0000                	unimp
    18de:	02a8                	addi	a0,sp,328
    18e0:	0000                	unimp
    18e2:	0001                	nop
    18e4:	a85f 0002 f400      	0xf4000002a85f
    18ea:	01000003          	lb	zero,16(zero) # 10 <buf.1743+0x10>
    18ee:	5a00                	lw	s0,48(a2)
    18f0:	03fc                	addi	a5,sp,460
    18f2:	0000                	unimp
    18f4:	0404                	addi	s1,sp,512
    18f6:	0000                	unimp
    18f8:	0001                	nop
    18fa:	005e                	0x5e
    18fc:	0000                	unimp
    18fe:	0000                	unimp
    1900:	0000                	unimp
    1902:	1000                	addi	s0,sp,32
    1904:	0000                	unimp
    1906:	5400                	lw	s0,40(s0)
    1908:	0000                	unimp
    190a:	0100                	addi	s0,sp,128
    190c:	5b00                	lw	s0,48(a4)
    190e:	0054                	addi	a3,sp,4
    1910:	0000                	unimp
    1912:	007c                	addi	a5,sp,12
    1914:	0000                	unimp
    1916:	0001                	nop
    1918:	e060                	fsw	fs0,68(s0)
    191a:	0000                	unimp
    191c:	4c00                	lw	s0,24(s0)
    191e:	0001                	nop
    1920:	0100                	addi	s0,sp,128
    1922:	5b00                	lw	s0,48(a4)
    1924:	01a8                	addi	a0,sp,200
    1926:	0000                	unimp
    1928:	01d8                	addi	a4,sp,196
    192a:	0000                	unimp
    192c:	0001                	nop
    192e:	0001d85b          	0x1d85b
    1932:	dc00                	sw	s0,56(s0)
    1934:	0001                	nop
    1936:	0100                	addi	s0,sp,128
    1938:	6000                	flw	fs0,0(s0)
    193a:	01dc                	addi	a5,sp,196
    193c:	0000                	unimp
    193e:	0218                	addi	a4,sp,256
    1940:	0000                	unimp
    1942:	0001                	nop
    1944:	446c                	lw	a1,76(s0)
    1946:	0002                	0x2
    1948:	9400                	0x9400
    194a:	0002                	0x2
    194c:	0100                	addi	s0,sp,128
    194e:	5b00                	lw	s0,48(a4)
    1950:	0294                	addi	a3,sp,320
    1952:	0000                	unimp
    1954:	02a8                	addi	a0,sp,328
    1956:	0000                	unimp
    1958:	0001                	nop
    195a:	a860                	fsd	fs0,208(s0)
    195c:	0002                	0x2
    195e:	d400                	sw	s0,40(s0)
    1960:	0002                	0x2
    1962:	0100                	addi	s0,sp,128
    1964:	5b00                	lw	s0,48(a4)
    1966:	02d4                	addi	a3,sp,324
    1968:	0000                	unimp
    196a:	02f0                	addi	a2,sp,332
    196c:	0000                	unimp
    196e:	0001                	nop
    1970:	f060                	fsw	fs0,100(s0)
    1972:	0002                	0x2
    1974:	7400                	flw	fs0,40(s0)
    1976:	01000003          	lb	zero,16(zero) # 10 <buf.1743+0x10>
    197a:	5f00                	lw	s0,56(a4)
    197c:	037c                	addi	a5,sp,396
    197e:	0000                	unimp
    1980:	03fc                	addi	a5,sp,460
    1982:	0000                	unimp
    1984:	0001                	nop
    1986:	fc6e                	fsw	fs11,56(sp)
    1988:	0c000003          	lb	zero,192(zero) # c0 <buflen.1744+0x80>
    198c:	0004                	addi	s1,sp,0
    198e:	0100                	addi	s0,sp,128
    1990:	5b00                	lw	s0,48(a4)
	...
    199a:	01c4                	addi	s1,sp,196
    199c:	0000                	unimp
    199e:	01ec                	addi	a1,sp,204
    19a0:	0000                	unimp
    19a2:	0001                	nop
    19a4:	f05e                	fsw	fs7,32(sp)
    19a6:	0002                	0x2
    19a8:	f800                	fsw	fs0,48(s0)
    19aa:	0002                	0x2
    19ac:	0100                	addi	s0,sp,128
    19ae:	5e00                	lw	s0,56(a2)
    19b0:	02f8                	addi	a4,sp,332
    19b2:	0000                	unimp
    19b4:	0304                	addi	s1,sp,384
    19b6:	0000                	unimp
    19b8:	0006                	0x6
    19ba:	0080                	addi	s0,sp,64
    19bc:	008d                	addi	ra,ra,3
    19be:	9f25                	0x9f25
	...
    19c8:	028c                	addi	a1,sp,320
    19ca:	0000                	unimp
    19cc:	029c                	addi	a5,sp,320
    19ce:	0000                	unimp
    19d0:	0002                	0x2
    19d2:	9f31                	0x9f31
	...
    19dc:	029c                	addi	a5,sp,320
    19de:	0000                	unimp
    19e0:	02a8                	addi	a0,sp,328
    19e2:	0000                	unimp
    19e4:	0002                	0x2
    19e6:	9f30                	0x9f30
    19e8:	03ec                	addi	a1,sp,460
    19ea:	0000                	unimp
    19ec:	040c                	addi	a1,sp,512
    19ee:	0000                	unimp
    19f0:	0002                	0x2
    19f2:	9f30                	0x9f30
	...
    19fc:	01bc                	addi	a5,sp,200
    19fe:	0000                	unimp
    1a00:	01cc                	addi	a1,sp,196
    1a02:	0000                	unimp
    1a04:	0001                	nop
    1a06:	bc6c                	fsd	fa1,248(s0)
    1a08:	0002                	0x2
    1a0a:	1000                	addi	s0,sp,32
    1a0c:	0004                	addi	s1,sp,0
    1a0e:	0100                	addi	s0,sp,128
    1a10:	6d00                	flw	fs0,24(a0)
	...
    1a1a:	004c                	addi	a1,sp,4
    1a1c:	0000                	unimp
    1a1e:	00dc                	addi	a5,sp,68
    1a20:	0000                	unimp
    1a22:	0001                	nop
    1a24:	2c56                	fld	fs8,336(sp)
    1a26:	0001                	nop
    1a28:	a800                	fsd	fs0,16(s0)
    1a2a:	0001                	nop
    1a2c:	0100                	addi	s0,sp,128
    1a2e:	5600                	lw	s0,40(a2)
    1a30:	01bc                	addi	a5,sp,200
    1a32:	0000                	unimp
    1a34:	0248                	addi	a0,sp,260
    1a36:	0000                	unimp
    1a38:	0001                	nop
    1a3a:	8056                	0x8056
    1a3c:	0002                	0x2
    1a3e:	a800                	fsd	fs0,16(s0)
    1a40:	0002                	0x2
    1a42:	0100                	addi	s0,sp,128
    1a44:	6c00                	flw	fs0,24(s0)
    1a46:	02bc                	addi	a5,sp,328
    1a48:	0000                	unimp
    1a4a:	040c                	addi	a1,sp,512
    1a4c:	0000                	unimp
    1a4e:	0001                	nop
    1a50:	006c                	addi	a1,sp,12
    1a52:	0000                	unimp
    1a54:	0000                	unimp
    1a56:	0000                	unimp
    1a58:	2000                	fld	fs0,0(s0)
    1a5a:	0000                	unimp
    1a5c:	6800                	flw	fs0,16(s0)
    1a5e:	0000                	unimp
    1a60:	0100                	addi	s0,sp,128
    1a62:	5c00                	lw	s0,56(s0)
    1a64:	00e0                	addi	s0,sp,76
    1a66:	0000                	unimp
    1a68:	00f4                	addi	a3,sp,76
    1a6a:	0000                	unimp
    1a6c:	0001                	nop
    1a6e:	005c                	addi	a5,sp,4
    1a70:	0000                	unimp
    1a72:	0000                	unimp
    1a74:	0000                	unimp
    1a76:	3400                	fld	fs0,40(s0)
    1a78:	0000                	unimp
    1a7a:	6c00                	flw	fs0,24(s0)
    1a7c:	0000                	unimp
    1a7e:	0100                	addi	s0,sp,128
    1a80:	5e00                	lw	s0,56(a2)
	...
    1a8a:	0068                	addi	a0,sp,12
    1a8c:	0000                	unimp
    1a8e:	00d4                	addi	a3,sp,68
    1a90:	0000                	unimp
    1a92:	0001                	nop
    1a94:	005c                	addi	a5,sp,4
    1a96:	0000                	unimp
    1a98:	0000                	unimp
    1a9a:	0000                	unimp
    1a9c:	7400                	flw	fs0,40(s0)
    1a9e:	0000                	unimp
    1aa0:	b800                	fsd	fs0,48(s0)
    1aa2:	0000                	unimp
    1aa4:	0100                	addi	s0,sp,128
    1aa6:	5a00                	lw	s0,48(a2)
    1aa8:	00b8                	addi	a4,sp,72
    1aaa:	0000                	unimp
    1aac:	00d4                	addi	a3,sp,68
    1aae:	0000                	unimp
    1ab0:	00810007          	0x810007
    1ab4:	2440                	fld	fs0,136(s0)
    1ab6:	2540                	fld	fs0,136(a0)
    1ab8:	009f 0000 0000      	0x9f
    1abe:	0000                	unimp
    1ac0:	b000                	fsd	fs0,32(s0)
    1ac2:	0000                	unimp
    1ac4:	b400                	fsd	fs0,40(s0)
    1ac6:	0000                	unimp
    1ac8:	0100                	addi	s0,sp,128
    1aca:	5d00                	lw	s0,56(a0)
	...
    1ad4:	0074                	addi	a3,sp,12
    1ad6:	0000                	unimp
    1ad8:	0080                	addi	s0,sp,64
    1ada:	0000                	unimp
    1adc:	0001                	nop
    1ade:	885e                	mv	a6,s7
    1ae0:	0000                	unimp
    1ae2:	b000                	fsd	fs0,32(s0)
    1ae4:	0000                	unimp
    1ae6:	0100                	addi	s0,sp,128
    1ae8:	5d00                	lw	s0,56(a0)
	...
    1af2:	00a4                	addi	s1,sp,72
    1af4:	0000                	unimp
    1af6:	00bc                	addi	a5,sp,72
    1af8:	0000                	unimp
    1afa:	0001                	nop
    1afc:	bc5e                	fsd	fs7,56(sp)
    1afe:	0000                	unimp
    1b00:	d400                	sw	s0,40(s0)
    1b02:	0000                	unimp
    1b04:	0100                	addi	s0,sp,128
    1b06:	5f00                	lw	s0,56(a4)
	...
    1b10:	0088                	addi	a0,sp,64
    1b12:	0000                	unimp
    1b14:	00b4                	addi	a3,sp,72
    1b16:	0000                	unimp
    1b18:	0001                	nop
    1b1a:	b460                	fsd	fs0,232(s0)
    1b1c:	0000                	unimp
    1b1e:	d400                	sw	s0,40(s0)
    1b20:	0000                	unimp
    1b22:	0100                	addi	s0,sp,128
    1b24:	5d00                	lw	s0,56(a0)
	...
    1b2e:	0100                	addi	s0,sp,128
    1b30:	0000                	unimp
    1b32:	0134                	addi	a3,sp,136
    1b34:	0000                	unimp
    1b36:	0001                	nop
    1b38:	a861                	j	1bd0 <main+0x43c>
    1b3a:	0001                	nop
    1b3c:	c000                	sw	s0,0(s0)
    1b3e:	0001                	nop
    1b40:	0100                	addi	s0,sp,128
    1b42:	6100                	flw	fs0,0(a0)
	...
    1b4c:	0114                	addi	a3,sp,128
    1b4e:	0000                	unimp
    1b50:	0134                	addi	a3,sp,136
    1b52:	0000                	unimp
    1b54:	0001                	nop
    1b56:	bc5e                	fsd	fs7,56(sp)
    1b58:	0001                	nop
    1b5a:	c400                	sw	s0,8(s0)
    1b5c:	0001                	nop
    1b5e:	0100                	addi	s0,sp,128
    1b60:	5e00                	lw	s0,56(a2)
	...
    1b6a:	0138                	addi	a4,sp,136
    1b6c:	0000                	unimp
    1b6e:	01a8                	addi	a0,sp,200
    1b70:	0000                	unimp
    1b72:	0001                	nop
    1b74:	005e                	0x5e
    1b76:	0000                	unimp
    1b78:	0000                	unimp
    1b7a:	0000                	unimp
    1b7c:	4000                	lw	s0,0(s0)
    1b7e:	0001                	nop
    1b80:	8800                	0x8800
    1b82:	0001                	nop
    1b84:	0100                	addi	s0,sp,128
    1b86:	5a00                	lw	s0,48(a2)
    1b88:	0188                	addi	a0,sp,192
    1b8a:	0000                	unimp
    1b8c:	01a8                	addi	a0,sp,200
    1b8e:	0000                	unimp
    1b90:	00810007          	0x810007
    1b94:	2440                	fld	fs0,136(s0)
    1b96:	2540                	fld	fs0,136(a0)
    1b98:	009f 0000 0000      	0x9f
    1b9e:	0000                	unimp
    1ba0:	4c00                	lw	s0,24(s0)
    1ba2:	0001                	nop
    1ba4:	5800                	lw	s0,48(s0)
    1ba6:	0001                	nop
    1ba8:	0100                	addi	s0,sp,128
    1baa:	5b00                	lw	s0,48(a4)
	...
    1bb4:	0180                	addi	s0,sp,192
    1bb6:	0000                	unimp
    1bb8:	0184                	addi	s1,sp,192
    1bba:	0000                	unimp
    1bbc:	0001                	nop
    1bbe:	0000005b          	0x5b
    1bc2:	0000                	unimp
    1bc4:	0000                	unimp
    1bc6:	4800                	lw	s0,16(s0)
    1bc8:	0001                	nop
    1bca:	5000                	lw	s0,32(s0)
    1bcc:	0001                	nop
    1bce:	0100                	addi	s0,sp,128
    1bd0:	5d00                	lw	s0,56(a0)
    1bd2:	0158                	addi	a4,sp,132
    1bd4:	0000                	unimp
    1bd6:	0170                	addi	a2,sp,140
    1bd8:	0000                	unimp
    1bda:	0001                	nop
    1bdc:	705d                	0x705d
    1bde:	0001                	nop
    1be0:	8000                	0x8000
    1be2:	0001                	nop
    1be4:	0100                	addi	s0,sp,128
    1be6:	5b00                	lw	s0,48(a4)
	...
    1bf0:	0174                	addi	a3,sp,140
    1bf2:	0000                	unimp
    1bf4:	018c                	addi	a1,sp,192
    1bf6:	0000                	unimp
    1bf8:	0001                	nop
    1bfa:	8c5d                	or	s0,s0,a5
    1bfc:	0001                	nop
    1bfe:	a800                	fsd	fs0,16(s0)
    1c00:	0001                	nop
    1c02:	0100                	addi	s0,sp,128
    1c04:	5f00                	lw	s0,56(a4)
	...
    1c0e:	0158                	addi	a4,sp,132
    1c10:	0000                	unimp
    1c12:	0170                	addi	a2,sp,140
    1c14:	0000                	unimp
    1c16:	0001                	nop
    1c18:	0001845b          	0x1845b
    1c1c:	a800                	fsd	fs0,16(s0)
    1c1e:	0001                	nop
    1c20:	0100                	addi	s0,sp,128
    1c22:	5b00                	lw	s0,48(a4)
	...
    1c2c:	01dc                	addi	a5,sp,196
    1c2e:	0000                	unimp
    1c30:	0248                	addi	a0,sp,260
    1c32:	0000                	unimp
    1c34:	0001                	nop
    1c36:	005a                	0x5a
    1c38:	0000                	unimp
    1c3a:	0000                	unimp
    1c3c:	0000                	unimp
    1c3e:	e400                	fsw	fs0,8(s0)
    1c40:	0001                	nop
    1c42:	2c00                	fld	fs0,24(s0)
    1c44:	0002                	0x2
    1c46:	0100                	addi	s0,sp,128
    1c48:	5b00                	lw	s0,48(a4)
    1c4a:	022c                	addi	a1,sp,264
    1c4c:	0000                	unimp
    1c4e:	0248                	addi	a0,sp,260
    1c50:	0000                	unimp
    1c52:	00810007          	0x810007
    1c56:	2440                	fld	fs0,136(s0)
    1c58:	2540                	fld	fs0,136(a0)
    1c5a:	009f 0000 0000      	0x9f
    1c60:	0000                	unimp
    1c62:	ec00                	fsw	fs0,24(s0)
    1c64:	0001                	nop
    1c66:	f800                	fsw	fs0,48(s0)
    1c68:	0001                	nop
    1c6a:	0100                	addi	s0,sp,128
    1c6c:	5e00                	lw	s0,56(a2)
	...
    1c76:	0220                	addi	s0,sp,264
    1c78:	0000                	unimp
    1c7a:	0228                	addi	a0,sp,264
    1c7c:	0000                	unimp
    1c7e:	0001                	nop
    1c80:	005c                	addi	a5,sp,4
    1c82:	0000                	unimp
    1c84:	0000                	unimp
    1c86:	0000                	unimp
    1c88:	e400                	fsw	fs0,8(s0)
    1c8a:	0001                	nop
    1c8c:	f000                	fsw	fs0,32(s0)
    1c8e:	0001                	nop
    1c90:	0100                	addi	s0,sp,128
    1c92:	5d00                	lw	s0,56(a0)
    1c94:	01f8                	addi	a4,sp,204
    1c96:	0000                	unimp
    1c98:	0210                	addi	a2,sp,256
    1c9a:	0000                	unimp
    1c9c:	0001                	nop
    1c9e:	105d                	c.addi	zero,-9
    1ca0:	0002                	0x2
    1ca2:	2000                	fld	fs0,0(s0)
    1ca4:	0002                	0x2
    1ca6:	0100                	addi	s0,sp,128
    1ca8:	5c00                	lw	s0,56(s0)
	...
    1cb2:	0214                	addi	a3,sp,256
    1cb4:	0000                	unimp
    1cb6:	0224                	addi	s1,sp,264
    1cb8:	0000                	unimp
    1cba:	0001                	nop
    1cbc:	2c5d                	jal	1f72 <main+0x7de>
    1cbe:	0002                	0x2
    1cc0:	4800                	lw	s0,16(s0)
    1cc2:	0002                	0x2
    1cc4:	0100                	addi	s0,sp,128
    1cc6:	5b00                	lw	s0,48(a4)
	...
    1cd0:	01f8                	addi	a4,sp,204
    1cd2:	0000                	unimp
    1cd4:	0228                	addi	a0,sp,264
    1cd6:	0000                	unimp
    1cd8:	0001                	nop
    1cda:	285e                	fld	fa6,464(sp)
    1cdc:	0002                	0x2
    1cde:	4800                	lw	s0,16(s0)
    1ce0:	0002                	0x2
    1ce2:	0100                	addi	s0,sp,128
    1ce4:	5c00                	lw	s0,56(s0)
	...
    1cee:	024c                	addi	a1,sp,260
    1cf0:	0000                	unimp
    1cf2:	02c4                	addi	s1,sp,324
    1cf4:	0000                	unimp
    1cf6:	0001                	nop
    1cf8:	005d                	c.addi	zero,23
    1cfa:	0000                	unimp
    1cfc:	0000                	unimp
    1cfe:	0000                	unimp
    1d00:	6000                	flw	fs0,0(s0)
    1d02:	0002                	0x2
    1d04:	a800                	fsd	fs0,16(s0)
    1d06:	0002                	0x2
    1d08:	0100                	addi	s0,sp,128
    1d0a:	5e00                	lw	s0,56(a2)
    1d0c:	02bc                	addi	a5,sp,328
    1d0e:	0000                	unimp
    1d10:	02c0                	addi	s0,sp,324
    1d12:	0000                	unimp
    1d14:	0001                	nop
    1d16:	005e                	0x5e
    1d18:	0000                	unimp
    1d1a:	0000                	unimp
    1d1c:	0000                	unimp
    1d1e:	9000                	0x9000
    1d20:	0002                	0x2
    1d22:	9c00                	0x9c00
    1d24:	0002                	0x2
    1d26:	0100                	addi	s0,sp,128
    1d28:	5f00                	lw	s0,56(a4)
	...
    1d32:	03c8                	addi	a0,sp,452
    1d34:	0000                	unimp
    1d36:	03e4                	addi	s1,sp,460
    1d38:	0000                	unimp
    1d3a:	0001                	nop
    1d3c:	0003e85b          	0x3e85b
    1d40:	f800                	fsw	fs0,48(s0)
    1d42:	01000003          	lb	zero,16(zero) # 10 <buf.1743+0x10>
    1d46:	5b00                	lw	s0,48(a4)
	...
    1d50:	03cc                	addi	a1,sp,452
    1d52:	0000                	unimp
    1d54:	03e0                	addi	s0,sp,460
    1d56:	0000                	unimp
    1d58:	0001                	nop
    1d5a:	e85e                	fsw	fs7,16(sp)
    1d5c:	ec000003          	lb	zero,-320(zero) # fffffec0 <__C_STACK_TOP__+0xfffefec0>
    1d60:	01000003          	lb	zero,16(zero) # 10 <buf.1743+0x10>
    1d64:	5c00                	lw	s0,56(s0)
    1d66:	03ec                	addi	a1,sp,460
    1d68:	0000                	unimp
    1d6a:	03f0                	addi	a2,sp,460
    1d6c:	0000                	unimp
    1d6e:	0001                	nop
    1d70:	005e                	0x5e
    1d72:	0000                	unimp
    1d74:	0000                	unimp
    1d76:	0000                	unimp
    1d78:	f400                	fsw	fs0,40(s0)
    1d7a:	0002                	0x2
    1d7c:	3800                	fld	fs0,48(s0)
    1d7e:	01000003          	lb	zero,16(zero) # 10 <buf.1743+0x10>
    1d82:	5b00                	lw	s0,48(a4)
    1d84:	0338                	addi	a4,sp,392
    1d86:	0000                	unimp
    1d88:	040c                	addi	a1,sp,512
    1d8a:	0000                	unimp
    1d8c:	0005                	c.addi	zero,1
    1d8e:	007d                	c.addi	zero,31
    1d90:	2540                	fld	fs0,136(a0)
    1d92:	009f 0000 0000      	0x9f
    1d98:	0000                	unimp
    1d9a:	f400                	fsw	fs0,40(s0)
    1d9c:	0002                	0x2
    1d9e:	3c00                	fld	fs0,56(s0)
    1da0:	01000003          	lb	zero,16(zero) # 10 <buf.1743+0x10>
    1da4:	6e00                	flw	fs0,24(a2)
    1da6:	033c                	addi	a5,sp,392
    1da8:	0000                	unimp
    1daa:	040c                	addi	a1,sp,512
    1dac:	0000                	unimp
    1dae:	007d0007          	0x7d0007
    1db2:	2440                	fld	fs0,136(s0)
    1db4:	2540                	fld	fs0,136(a0)
    1db6:	009f 0000 0000      	0x9f
    1dbc:	0000                	unimp
    1dbe:	f800                	fsw	fs0,48(s0)
    1dc0:	0002                	0x2
    1dc2:	1400                	addi	s0,sp,544
    1dc4:	01000003          	lb	zero,16(zero) # 10 <buf.1743+0x10>
    1dc8:	5e00                	lw	s0,56(a2)
    1dca:	0314                	addi	a3,sp,384
    1dcc:	0000                	unimp
    1dce:	0368                	addi	a0,sp,396
    1dd0:	0000                	unimp
    1dd2:	0001                	nop
    1dd4:	0056                	0x56
    1dd6:	0000                	unimp
    1dd8:	0000                	unimp
    1dda:	0000                	unimp
    1ddc:	3000                	fld	fs0,32(s0)
    1dde:	54000003          	lb	zero,1344(zero) # 540 <vprintfmt.constprop.1+0x104>
    1de2:	01000003          	lb	zero,16(zero) # 10 <buf.1743+0x10>
    1de6:	6100                	flw	fs0,0(a0)
    1de8:	0354                	addi	a3,sp,388
    1dea:	0000                	unimp
    1dec:	038c                	addi	a1,sp,448
    1dee:	0000                	unimp
    1df0:	0001                	nop
    1df2:	005e                	0x5e
    1df4:	0000                	unimp
    1df6:	0000                	unimp
    1df8:	0000                	unimp
    1dfa:	f400                	fsw	fs0,40(s0)
    1dfc:	0002                	0x2
    1dfe:	fc00                	fsw	fs0,56(s0)
    1e00:	0002                	0x2
    1e02:	0100                	addi	s0,sp,128
    1e04:	5600                	lw	s0,40(a2)
    1e06:	02fc                	addi	a5,sp,332
    1e08:	0000                	unimp
    1e0a:	0304                	addi	s1,sp,384
    1e0c:	0000                	unimp
    1e0e:	0009                	c.addi	zero,2
    1e10:	0080                	addi	s0,sp,64
    1e12:	008d                	addi	ra,ra,3
    1e14:	7b25                	lui	s6,0xfffe9
    1e16:	1d00                	addi	s0,sp,688
    1e18:	049f 0003 1000      	0x10000003049f
    1e1e:	01000003          	lb	zero,16(zero) # 10 <buf.1743+0x10>
    1e22:	6100                	flw	fs0,0(a0)
    1e24:	0314                	addi	a3,sp,384
    1e26:	0000                	unimp
    1e28:	0330                	addi	a2,sp,392
    1e2a:	0000                	unimp
    1e2c:	0001                	nop
    1e2e:	0061                	c.addi	zero,24
    1e30:	0000                	unimp
    1e32:	0000                	unimp
    1e34:	0000                	unimp
    1e36:	2c00                	fld	fs0,24(s0)
    1e38:	34000003          	lb	zero,832(zero) # 340 <printf_putch+0x40>
    1e3c:	01000003          	lb	zero,16(zero) # 10 <buf.1743+0x10>
    1e40:	6f00                	flw	fs0,24(a4)
    1e42:	0344                	addi	s1,sp,388
    1e44:	0000                	unimp
    1e46:	0350                	addi	a2,sp,388
    1e48:	0000                	unimp
    1e4a:	0001                	nop
    1e4c:	506e                	0x506e
    1e4e:	54000003          	lb	zero,1344(zero) # 540 <vprintfmt.constprop.1+0x104>
    1e52:	0a000003          	lb	zero,160(zero) # a0 <buflen.1744+0x60>
    1e56:	7f00                	flw	fs0,56(a4)
    1e58:	4000                	lw	s0,0(s0)
    1e5a:	4024                	lw	s1,64(s0)
    1e5c:	8f25                	xor	a4,a4,s1
    1e5e:	2100                	fld	fs0,0(a0)
    1e60:	549f 0003 0c00      	0xc000003549f
    1e66:	0004                	addi	s1,sp,0
    1e68:	0100                	addi	s0,sp,128
    1e6a:	6e00                	flw	fs0,24(a2)
	...
    1e74:	0304                	addi	s1,sp,384
    1e76:	0000                	unimp
    1e78:	0338                	addi	a4,sp,392
    1e7a:	0000                	unimp
    1e7c:	0001                	nop
    1e7e:	3860                	fld	fs0,240(s0)
    1e80:	80000003          	lb	zero,-2048(zero) # fffff800 <__C_STACK_TOP__+0xfffef800>
    1e84:	01000003          	lb	zero,16(zero) # 10 <buf.1743+0x10>
    1e88:	5b00                	lw	s0,48(a4)
	...
    1e92:	038c                	addi	a1,sp,448
    1e94:	0000                	unimp
    1e96:	03c4                	addi	s1,sp,452
    1e98:	0000                	unimp
    1e9a:	0001                	nop
    1e9c:	005e                	0x5e
    1e9e:	0000                	unimp
    1ea0:	0000                	unimp
    1ea2:	0000                	unimp
    1ea4:	a400                	fsd	fs0,8(s0)
    1ea6:	bc000003          	lb	zero,-1088(zero) # fffffbc0 <__C_STACK_TOP__+0xfffefbc0>
    1eaa:	01000003          	lb	zero,16(zero) # 10 <buf.1743+0x10>
    1eae:	6000                	flw	fs0,0(s0)
	...
    1eb8:	0390                	addi	a2,sp,448
    1eba:	0000                	unimp
    1ebc:	03b0                	addi	a2,sp,456
    1ebe:	0000                	unimp
    1ec0:	0001                	nop
    1ec2:	005f 0000 0000      	0x5f
    1ec8:	0000                	unimp
    1eca:	9800                	0x9800
    1ecc:	0c000003          	lb	zero,192(zero) # c0 <buflen.1744+0x80>
    1ed0:	0004                	addi	s1,sp,0
    1ed2:	0100                	addi	s0,sp,128
    1ed4:	5600                	lw	s0,40(a2)
	...
    1ede:	0380                	addi	s0,sp,448
    1ee0:	0000                	unimp
    1ee2:	0394                	addi	a3,sp,448
    1ee4:	0000                	unimp
    1ee6:	0001                	nop
    1ee8:	0000005b          	0x5b
    1eec:	0000                	unimp
    1eee:	0000                	unimp
    1ef0:	8800                	0x8800
    1ef2:	90000003          	lb	zero,-1792(zero) # fffff900 <__C_STACK_TOP__+0xfffef900>
    1ef6:	01000003          	lb	zero,16(zero) # 10 <buf.1743+0x10>
    1efa:	5f00                	lw	s0,56(a4)
    1efc:	0390                	addi	a2,sp,448
    1efe:	0000                	unimp
    1f00:	03b4                	addi	a3,sp,456
    1f02:	0000                	unimp
    1f04:	0006                	0x6
    1f06:	7f81                	lui	t6,0xfffe0
    1f08:	007c                	addi	a5,sp,12
    1f0a:	9f1a                	add	t5,t5,t1
    1f0c:	03b4                	addi	a3,sp,456
    1f0e:	0000                	unimp
    1f10:	03dc                	addi	a5,sp,452
    1f12:	0000                	unimp
    1f14:	0006                	0x6
    1f16:	007c                	addi	a5,sp,12
    1f18:	007f                	0x7f
    1f1a:	9f1a                	add	t5,t5,t1
	...
    1f24:	0384                	addi	s1,sp,448
    1f26:	0000                	unimp
    1f28:	0398                	addi	a4,sp,448
    1f2a:	0000                	unimp
    1f2c:	0001                	nop
    1f2e:	0056                	0x56
    1f30:	0000                	unimp
    1f32:	0000                	unimp
    1f34:	0000                	unimp
    1f36:	dc00                	sw	s0,56(s0)
    1f38:	ec000003          	lb	zero,-320(zero) # fffffec0 <__C_STACK_TOP__+0xfffefec0>
    1f3c:	01000003          	lb	zero,16(zero) # 10 <buf.1743+0x10>
    1f40:	5c00                	lw	s0,56(s0)
	...
    1f4a:	03f0                	addi	a2,sp,460
    1f4c:	0000                	unimp
    1f4e:	0404                	addi	s1,sp,512
    1f50:	0000                	unimp
    1f52:	0001                	nop
    1f54:	005e                	0x5e
    1f56:	0000                	unimp
    1f58:	0000                	unimp
    1f5a:	0000                	unimp
	...

Disassembly of section .debug_aranges:

00000000 <.debug_aranges>:
   0:	001c                	addi	a5,sp,0
   2:	0000                	unimp
   4:	0002                	0x2
   6:	0000                	unimp
   8:	0000                	unimp
   a:	0004                	addi	s1,sp,0
   c:	0000                	unimp
   e:	0000                	unimp
  10:	2980                	fld	fs0,16(a1)
  12:	0000                	unimp
  14:	0458                	addi	a4,sp,516
	...
  1e:	0000                	unimp
  20:	001c                	addi	a5,sp,0
  22:	0000                	unimp
  24:	0002                	0x2
  26:	11a2                	slli	gp,gp,0x28
  28:	0000                	unimp
  2a:	0004                	addi	s1,sp,0
  2c:	0000                	unimp
  2e:	0000                	unimp
  30:	2dd8                	fld	fa4,152(a1)
  32:	0000                	unimp
  34:	0434                	addi	a3,sp,520
	...
  3e:	0000                	unimp
  40:	001c                	addi	a5,sp,0
  42:	0000                	unimp
  44:	0002                	0x2
  46:	22c1                	jal	206 <_start+0x6>
  48:	0000                	unimp
  4a:	0004                	addi	s1,sp,0
  4c:	0000                	unimp
  4e:	0000                	unimp
  50:	320c                	fld	fa1,32(a2)
  52:	0000                	unimp
  54:	0410                	addi	a2,sp,512
	...
  5e:	0000                	unimp
  60:	0014                	addi	a3,sp,0
  62:	0000                	unimp
  64:	0002                	0x2
  66:	343d                	jal	fffffa94 <__C_STACK_TOP__+0xfffefa94>
  68:	0000                	unimp
  6a:	0004                	addi	s1,sp,0
	...

Disassembly of section .debug_ranges:

00000000 <.debug_ranges>:
   0:	0030                	addi	a2,sp,8
   2:	0000                	unimp
   4:	010c                	addi	a1,sp,128
   6:	0000                	unimp
   8:	0128                	addi	a0,sp,136
   a:	0000                	unimp
   c:	0458                	addi	a4,sp,516
	...
  16:	0000                	unimp
  18:	0050                	addi	a2,sp,4
  1a:	0000                	unimp
  1c:	007c                	addi	a5,sp,12
  1e:	0000                	unimp
  20:	0128                	addi	a0,sp,136
  22:	0000                	unimp
  24:	013c                	addi	a5,sp,136
	...
  2e:	0000                	unimp
  30:	0148                	addi	a0,sp,132
  32:	0000                	unimp
  34:	0174                	addi	a3,sp,140
  36:	0000                	unimp
  38:	01f0                	addi	a2,sp,204
  3a:	0000                	unimp
  3c:	0204                	addi	s1,sp,256
	...
  46:	0000                	unimp
  48:	0214                	addi	a3,sp,256
  4a:	0000                	unimp
  4c:	021c                	addi	a5,sp,256
  4e:	0000                	unimp
  50:	0224                	addi	s1,sp,264
  52:	0000                	unimp
  54:	0290                	addi	a2,sp,320
	...
  5e:	0000                	unimp
  60:	0294                	addi	a3,sp,320
  62:	0000                	unimp
  64:	02c8                	addi	a0,sp,324
  66:	0000                	unimp
  68:	02f0                	addi	a2,sp,332
  6a:	0000                	unimp
  6c:	0304                	addi	s1,sp,384
	...
  76:	0000                	unimp
  78:	0320                	addi	s0,sp,392
  7a:	0000                	unimp
  7c:	0334                	addi	a3,sp,392
  7e:	0000                	unimp
  80:	033c                	addi	a5,sp,392
  82:	0000                	unimp
  84:	03b0                	addi	a2,sp,456
  86:	0000                	unimp
  88:	03b4                	addi	a3,sp,456
  8a:	0000                	unimp
  8c:	03b8                	addi	a4,sp,456
  8e:	0000                	unimp
  90:	03c0                	addi	s0,sp,452
  92:	0000                	unimp
  94:	03c4                	addi	s1,sp,452
	...
  9e:	0000                	unimp
  a0:	03b0                	addi	a2,sp,456
  a2:	0000                	unimp
  a4:	03b4                	addi	a3,sp,456
  a6:	0000                	unimp
  a8:	03b8                	addi	a4,sp,456
  aa:	0000                	unimp
  ac:	03c0                	addi	s0,sp,452
  ae:	0000                	unimp
  b0:	03c4                	addi	s1,sp,452
  b2:	0000                	unimp
  b4:	0414                	addi	a3,sp,512
	...
  be:	0000                	unimp
  c0:	0004                	addi	s1,sp,0
  c2:	0000                	unimp
  c4:	01d4                	addi	a3,sp,196
  c6:	0000                	unimp
  c8:	01dc                	addi	a5,sp,196
  ca:	0000                	unimp
  cc:	0434                	addi	a3,sp,520
	...
  d6:	0000                	unimp
  d8:	0020                	addi	s0,sp,8
  da:	0000                	unimp
  dc:	004c                	addi	a1,sp,4
  de:	0000                	unimp
  e0:	00f4                	addi	a3,sp,76
  e2:	0000                	unimp
  e4:	0108                	addi	a0,sp,128
	...
  ee:	0000                	unimp
  f0:	00ec                	addi	a1,sp,76
  f2:	0000                	unimp
  f4:	00f4                	addi	a3,sp,76
  f6:	0000                	unimp
  f8:	0300                	addi	s0,sp,384
  fa:	0000                	unimp
  fc:	0428                	addi	a0,sp,520
	...
 106:	0000                	unimp
 108:	030c                	addi	a1,sp,384
 10a:	0000                	unimp
 10c:	0310                	addi	a2,sp,384
 10e:	0000                	unimp
 110:	0314                	addi	a3,sp,384
 112:	0000                	unimp
 114:	0318                	addi	a4,sp,384
 116:	0000                	unimp
 118:	0324                	addi	s1,sp,392
 11a:	0000                	unimp
 11c:	0330                	addi	a2,sp,392
 11e:	0000                	unimp
 120:	0334                	addi	a3,sp,392
 122:	0000                	unimp
 124:	03ac                	addi	a1,sp,456
 126:	0000                	unimp
 128:	03b0                	addi	a2,sp,456
 12a:	0000                	unimp
 12c:	03b4                	addi	a3,sp,456
	...
 136:	0000                	unimp
 138:	03ac                	addi	a1,sp,456
 13a:	0000                	unimp
 13c:	03b0                	addi	a2,sp,456
 13e:	0000                	unimp
 140:	03b4                	addi	a3,sp,456
 142:	0000                	unimp
 144:	03f4                	addi	a3,sp,460
 146:	0000                	unimp
 148:	03fc                	addi	a5,sp,460
 14a:	0000                	unimp
 14c:	0410                	addi	a2,sp,512
 14e:	0000                	unimp
 150:	0414                	addi	a3,sp,512
 152:	0000                	unimp
 154:	0418                	addi	a4,sp,512
	...
 15e:	0000                	unimp
 160:	0114                	addi	a3,sp,128
 162:	0000                	unimp
 164:	0140                	addi	s0,sp,132
 166:	0000                	unimp
 168:	01dc                	addi	a5,sp,196
 16a:	0000                	unimp
 16c:	01f0                	addi	a2,sp,204
	...
 176:	0000                	unimp
 178:	0200                	addi	s0,sp,256
 17a:	0000                	unimp
 17c:	0204                	addi	s1,sp,256
 17e:	0000                	unimp
 180:	0208                	addi	a0,sp,256
 182:	0000                	unimp
 184:	020c                	addi	a1,sp,256
 186:	0000                	unimp
 188:	0210                	addi	a2,sp,256
 18a:	0000                	unimp
 18c:	029c                	addi	a5,sp,320
	...
 196:	0000                	unimp
 198:	02a0                	addi	s0,sp,328
 19a:	0000                	unimp
 19c:	02d4                	addi	a3,sp,324
 19e:	0000                	unimp
 1a0:	02ec                	addi	a1,sp,332
 1a2:	0000                	unimp
 1a4:	0300                	addi	s0,sp,384
	...
 1b2:	0000                	unimp
 1b4:	00dc                	addi	a5,sp,68
 1b6:	0000                	unimp
 1b8:	00e0                	addi	s0,sp,76
 1ba:	0000                	unimp
 1bc:	040c                	addi	a1,sp,512
	...
 1c6:	0000                	unimp
 1c8:	0020                	addi	s0,sp,8
 1ca:	0000                	unimp
 1cc:	004c                	addi	a1,sp,4
 1ce:	0000                	unimp
 1d0:	00e0                	addi	s0,sp,76
 1d2:	0000                	unimp
 1d4:	00f4                	addi	a3,sp,76
	...
 1de:	0000                	unimp
 1e0:	0100                	addi	s0,sp,128
 1e2:	0000                	unimp
 1e4:	012c                	addi	a1,sp,136
 1e6:	0000                	unimp
 1e8:	01a8                	addi	a0,sp,200
 1ea:	0000                	unimp
 1ec:	01bc                	addi	a5,sp,200
	...
 1f6:	0000                	unimp
 1f8:	01cc                	addi	a1,sp,196
 1fa:	0000                	unimp
 1fc:	01d4                	addi	a3,sp,196
 1fe:	0000                	unimp
 200:	01dc                	addi	a5,sp,196
 202:	0000                	unimp
 204:	0248                	addi	a0,sp,260
	...
 20e:	0000                	unimp
 210:	024c                	addi	a1,sp,260
 212:	0000                	unimp
 214:	0280                	addi	s0,sp,320
 216:	0000                	unimp
 218:	02a8                	addi	a0,sp,328
 21a:	0000                	unimp
 21c:	02bc                	addi	a5,sp,328
	...
 226:	0000                	unimp
 228:	02d8                	addi	a4,sp,324
 22a:	0000                	unimp
 22c:	02ec                	addi	a1,sp,332
 22e:	0000                	unimp
 230:	02f4                	addi	a3,sp,332
 232:	0000                	unimp
 234:	0368                	addi	a0,sp,396
 236:	0000                	unimp
 238:	036c                	addi	a1,sp,396
 23a:	0000                	unimp
 23c:	0370                	addi	a2,sp,396
 23e:	0000                	unimp
 240:	0378                	addi	a4,sp,396
 242:	0000                	unimp
 244:	037c                	addi	a5,sp,396
	...
 24e:	0000                	unimp
 250:	0368                	addi	a0,sp,396
 252:	0000                	unimp
 254:	036c                	addi	a1,sp,396
 256:	0000                	unimp
 258:	0370                	addi	a2,sp,396
 25a:	0000                	unimp
 25c:	0378                	addi	a4,sp,396
 25e:	0000                	unimp
 260:	037c                	addi	a5,sp,396
 262:	0000                	unimp
 264:	03cc                	addi	a1,sp,452
	...

Disassembly of section .debug_line:

00000000 <.debug_line>:
       0:	000004a3          	sb	zero,9(zero) # 9 <buf.1743+0x9>
       4:	0002                	0x2
       6:	0000030f          	0x30f
       a:	0101                	addi	sp,sp,0
       c:	000d0efb          	0xd0efb
      10:	0101                	addi	sp,sp,0
      12:	0101                	addi	sp,sp,0
      14:	0000                	unimp
      16:	0100                	addi	s0,sp,128
      18:	0000                	unimp
      1a:	2f01                	jal	72a <vprintfmt.constprop.1+0x2ee>
      1c:	6f68                	flw	fa0,92(a4)
      1e:	656d                	lui	a0,0x1b
      20:	6170732f          	0x6170732f
      24:	6b72                	flw	fs6,28(sp)
      26:	796c6673          	csrrsi	a2,0x796,24
      2a:	7469472f          	0x7469472f
      2e:	7369722f          	0x7369722f
      32:	742d7663          	bleu	sp,s10,77e <vprintfmt.constprop.1+0x342>
      36:	736c6f6f          	jal	t5,c676c <__C_STACK_TOP__+0xb676c>
      3a:	7369722f          	0x7369722f
      3e:	672d7663          	bleu	s2,s10,6aa <vprintfmt.constprop.1+0x26e>
      42:	756e                	flw	fa0,248(sp)
      44:	742d                	lui	s0,0xfffeb
      46:	636c6f6f          	jal	t5,c667c <__C_STACK_TOP__+0xb667c>
      4a:	6168                	flw	fa0,68(a0)
      4c:	6e69                	lui	t3,0x1a
      4e:	7369722f          	0x7369722f
      52:	672d7663          	bleu	s2,s10,6be <vprintfmt.constprop.1+0x282>
      56:	6c2f6363          	bltu	t5,sp,71c <vprintfmt.constprop.1+0x2e0>
      5a:	6269                	lui	tp,0x1a
      5c:	00636367          	0x636367
      60:	6d6f682f          	0x6d6f682f
      64:	2f65                	jal	81c <vprintfmt.constprop.1+0x3e0>
      66:	72617073          	csrci	0x726,2
      6a:	6c66736b          	0x6c66736b
      6e:	2f79                	jal	80c <vprintfmt.constprop.1+0x3d0>
      70:	7270                	flw	fa2,100(a2)
      72:	6172676f          	jal	a4,26e88 <__C_STACK_TOP__+0x16e88>
      76:	2f6d                	jal	830 <vprintfmt.constprop.1+0x3f4>
      78:	4952                	lw	s2,20(sp)
      7a:	2f564353          	0x2f564353
      7e:	656e                	flw	fa0,216(sp)
      80:	62696c77          	0x62696c77
      84:	635f 6f72 7373      	0x73736f72635f
      8a:	736e692f          	0x736e692f
      8e:	6174                	flw	fa3,68(a0)
      90:	6c6c                	flw	fa1,92(s0)
      92:	7369722f          	0x7369722f
      96:	32337663          	bleu	gp,t1,3c2 <printf_putch+0xc2>
      9a:	752d                	lui	a0,0xfffeb
      9c:	6b6e                	flw	fs6,216(sp)
      9e:	6f6e                	flw	ft10,216(sp)
      a0:	652d6e77          	0x652d6e77
      a4:	666c                	flw	fa1,76(a2)
      a6:	636e692f          	0x636e692f
      aa:	756c                	flw	fa1,108(a0)
      ac:	6564                	flw	fs1,76(a0)
      ae:	63616d2f          	0x63616d2f
      b2:	6968                	flw	fa0,84(a0)
      b4:	656e                	flw	fa0,216(sp)
      b6:	2f00                	fld	fs0,24(a4)
      b8:	6f68                	flw	fa0,92(a4)
      ba:	656d                	lui	a0,0x1b
      bc:	6170732f          	0x6170732f
      c0:	6b72                	flw	fs6,28(sp)
      c2:	796c6673          	csrrsi	a2,0x796,24
      c6:	6f72702f          	0x6f72702f
      ca:	6d617267          	0x6d617267
      ce:	5349522f          	0x5349522f
      d2:	6e2f5643          	0x6e2f5643
      d6:	7765                	lui	a4,0xffff9
      d8:	696c                	flw	fa1,84(a0)
      da:	5f62                	lw	t5,56(sp)
      dc:	736f7263          	bleu	s6,t5,800 <vprintfmt.constprop.1+0x3c4>
      e0:	6e692f73          	csrrs	t5,0x6e6,s2
      e4:	6c617473          	csrrci	s0,0x6c6,2
      e8:	2f6c                	fld	fa1,216(a4)
      ea:	6972                	flw	fs2,28(sp)
      ec:	33766373          	csrrsi	t1,mhpmevent23,12
      f0:	2d32                	fld	fs10,264(sp)
      f2:	6e75                	lui	t3,0x1d
      f4:	776f6e6b          	0x776f6e6b
      f8:	2d6e                	fld	fs10,216(sp)
      fa:	6c65                	lui	s8,0x19
      fc:	2f66                	fld	ft10,88(sp)
      fe:	6e69                	lui	t3,0x1a
     100:	64756c63          	bltu	a0,t2,758 <vprintfmt.constprop.1+0x31c>
     104:	2f65                	jal	8bc <vprintfmt.constprop.1+0x480>
     106:	00737973          	csrrci	s2,0x7,6
     10a:	6d6f682f          	0x6d6f682f
     10e:	2f65                	jal	8c6 <vprintfmt.constprop.1+0x48a>
     110:	72617073          	csrci	0x726,2
     114:	6c66736b          	0x6c66736b
     118:	2f79                	jal	8b6 <vprintfmt.constprop.1+0x47a>
     11a:	2f746947          	0x2f746947
     11e:	6972                	flw	fs2,28(sp)
     120:	2d766373          	csrrsi	t1,0x2d7,12
     124:	6f74                	flw	fa3,92(a4)
     126:	2f736c6f          	jal	s8,36c1c <__C_STACK_TOP__+0x26c1c>
     12a:	6972                	flw	fs2,28(sp)
     12c:	2d766373          	csrrsi	t1,0x2d7,12
     130:	2d756e67          	0x2d756e67
     134:	6f74                	flw	fa3,92(a4)
     136:	68636c6f          	jal	s8,367bc <__C_STACK_TOP__+0x267bc>
     13a:	6961                	lui	s2,0x18
     13c:	2f6e                	fld	ft10,216(sp)
     13e:	7562                	flw	fa0,56(sp)
     140:	6c69                	lui	s8,0x1a
     142:	2d64                	fld	fs1,216(a0)
     144:	2d636367          	0x2d636367
     148:	656e                	flw	fa0,216(sp)
     14a:	62696c77          	0x62696c77
     14e:	732d                	lui	t1,0xfffeb
     150:	6174                	flw	fa3,68(a0)
     152:	2f326567          	0x2f326567
     156:	2f636367          	0x2f636367
     15a:	6e69                	lui	t3,0x1a
     15c:	64756c63          	bltu	a0,t2,7b4 <vprintfmt.constprop.1+0x378>
     160:	0065                	c.addi	zero,25
     162:	6d6f682f          	0x6d6f682f
     166:	2f65                	jal	91e <vprintfmt.constprop.1+0x4e2>
     168:	72617073          	csrci	0x726,2
     16c:	6c66736b          	0x6c66736b
     170:	2f79                	jal	90e <vprintfmt.constprop.1+0x4d2>
     172:	7270                	flw	fa2,100(a2)
     174:	6172676f          	jal	a4,26f8a <__C_STACK_TOP__+0x16f8a>
     178:	2f6d                	jal	932 <vprintfmt.constprop.1+0x4f6>
     17a:	4952                	lw	s2,20(sp)
     17c:	2f564353          	0x2f564353
     180:	656e                	flw	fa0,216(sp)
     182:	62696c77          	0x62696c77
     186:	635f 6f72 7373      	0x73736f72635f
     18c:	736e692f          	0x736e692f
     190:	6174                	flw	fa3,68(a0)
     192:	6c6c                	flw	fa1,92(s0)
     194:	7369722f          	0x7369722f
     198:	32337663          	bleu	gp,t1,4c4 <vprintfmt.constprop.1+0x88>
     19c:	752d                	lui	a0,0xfffeb
     19e:	6b6e                	flw	fs6,216(sp)
     1a0:	6f6e                	flw	ft10,216(sp)
     1a2:	652d6e77          	0x652d6e77
     1a6:	666c                	flw	fa1,76(a2)
     1a8:	636e692f          	0x636e692f
     1ac:	756c                	flw	fa1,108(a0)
     1ae:	6564                	flw	fs1,76(a0)
     1b0:	2f00                	fld	fs0,24(a4)
     1b2:	6f68                	flw	fa0,92(a4)
     1b4:	656d                	lui	a0,0x1b
     1b6:	6170732f          	0x6170732f
     1ba:	6b72                	flw	fs6,28(sp)
     1bc:	796c6673          	csrrsi	a2,0x796,24
     1c0:	7469472f          	0x7469472f
     1c4:	7369722f          	0x7369722f
     1c8:	742d7663          	bleu	sp,s10,914 <vprintfmt.constprop.1+0x4d8>
     1cc:	736c6f6f          	jal	t5,c6902 <__C_STACK_TOP__+0xb6902>
     1d0:	7369722f          	0x7369722f
     1d4:	672d7663          	bleu	s2,s10,840 <vprintfmt.constprop.1+0x404>
     1d8:	756e                	flw	fa0,248(sp)
     1da:	742d                	lui	s0,0xfffeb
     1dc:	636c6f6f          	jal	t5,c6812 <__C_STACK_TOP__+0xb6812>
     1e0:	6168                	flw	fa0,68(a0)
     1e2:	6e69                	lui	t3,0x1a
     1e4:	7369722f          	0x7369722f
     1e8:	672d7663          	bleu	s2,s10,854 <vprintfmt.constprop.1+0x418>
     1ec:	6c2f6363          	bltu	t5,sp,8b2 <vprintfmt.constprop.1+0x476>
     1f0:	6269                	lui	tp,0x1a
     1f2:	2f636367          	0x2f636367
     1f6:	2e2e                	fld	ft8,200(sp)
     1f8:	636e692f          	0x636e692f
     1fc:	756c                	flw	fa1,108(a0)
     1fe:	6564                	flw	fs1,76(a0)
     200:	2f00                	fld	fs0,24(a4)
     202:	6f68                	flw	fa0,92(a4)
     204:	656d                	lui	a0,0x1b
     206:	6170732f          	0x6170732f
     20a:	6b72                	flw	fs6,28(sp)
     20c:	796c6673          	csrrsi	a2,0x796,24
     210:	7469472f          	0x7469472f
     214:	7369722f          	0x7369722f
     218:	742d7663          	bleu	sp,s10,964 <vprintfmt.constprop.1+0x528>
     21c:	736c6f6f          	jal	t5,c6952 <__C_STACK_TOP__+0xb6952>
     220:	7369722f          	0x7369722f
     224:	672d7663          	bleu	s2,s10,890 <vprintfmt.constprop.1+0x454>
     228:	756e                	flw	fa0,248(sp)
     22a:	742d                	lui	s0,0xfffeb
     22c:	636c6f6f          	jal	t5,c6862 <__C_STACK_TOP__+0xb6862>
     230:	6168                	flw	fa0,68(a0)
     232:	6e69                	lui	t3,0x1a
     234:	7369722f          	0x7369722f
     238:	672d7663          	bleu	s2,s10,8a4 <vprintfmt.constprop.1+0x468>
     23c:	6c2f6363          	bltu	t5,sp,902 <vprintfmt.constprop.1+0x4c6>
     240:	6269                	lui	tp,0x1a
     242:	2f636367          	0x2f636367
     246:	2e2e                	fld	ft8,200(sp)
     248:	6363672f          	0x6363672f
     24c:	6e6f632f          	0x6e6f632f
     250:	6966                	flw	fs2,88(sp)
     252:	69722f67          	0x69722f67
     256:	00766373          	csrrsi	t1,0x7,12
     25a:	2e2e                	fld	ft8,200(sp)
     25c:	2f2e2e2f          	0x2f2e2e2f
     260:	2f2e                	fld	ft10,200(sp)
     262:	00636367          	0x636367
     266:	6c00                	flw	fs0,24(s0)
     268:	6269                	lui	tp,0x1a
     26a:	32636367          	0x32636367
     26e:	632e                	flw	ft6,200(sp)
     270:	0100                	addi	s0,sp,128
     272:	0000                	unimp
     274:	745f 7079 7365      	0x73657079745f
     27a:	682e                	flw	fa6,200(sp)
     27c:	0200                	addi	s0,sp,256
     27e:	0000                	unimp
     280:	6f6c                	flw	fa1,92(a4)
     282:	682e6b63          	bltu	t3,sp,918 <vprintfmt.constprop.1+0x4dc>
     286:	0300                	addi	s0,sp,384
     288:	0000                	unimp
     28a:	64647473          	csrrci	s0,0x646,8
     28e:	6665                	lui	a2,0x19
     290:	682e                	flw	fa6,200(sp)
     292:	0400                	addi	s0,sp,512
     294:	0000                	unimp
     296:	745f 7079 7365      	0x73657079745f
     29c:	682e                	flw	fa6,200(sp)
     29e:	0300                	addi	s0,sp,384
     2a0:	0000                	unimp
     2a2:	6572                	flw	fa0,28(sp)
     2a4:	6e65                	lui	t3,0x19
     2a6:	2e74                	fld	fa3,216(a2)
     2a8:	0068                	addi	a0,sp,12
     2aa:	65000003          	lb	zero,1616(zero) # 650 <vprintfmt.constprop.1+0x214>
     2ae:	7272                	flw	ft4,60(sp)
     2b0:	6f6e                	flw	ft10,216(sp)
     2b2:	682e                	flw	fa6,200(sp)
     2b4:	0300                	addi	s0,sp,384
     2b6:	0000                	unimp
     2b8:	6c647473          	csrrci	s0,0x6c6,8
     2bc:	6269                	lui	tp,0x1a
     2be:	682e                	flw	fa6,200(sp)
     2c0:	0500                	addi	s0,sp,640
     2c2:	0000                	unimp
     2c4:	6e75                	lui	t3,0x1d
     2c6:	7369                	lui	t1,0xffffa
     2c8:	6474                	flw	fa3,76(s0)
     2ca:	682e                	flw	fa6,200(sp)
     2cc:	0300                	addi	s0,sp,384
     2ce:	0000                	unimp
     2d0:	6974                	flw	fa3,84(a0)
     2d2:	656d                	lui	a0,0x1b
     2d4:	682e                	flw	fa6,200(sp)
     2d6:	0500                	addi	s0,sp,640
     2d8:	0000                	unimp
     2da:	6168                	flw	fa0,68(a0)
     2dc:	61746873          	csrrsi	a6,0x617,8
     2e0:	2e62                	fld	ft8,24(sp)
     2e2:	0068                	addi	a0,sp,12
     2e4:	0006                	0x6
     2e6:	7200                	flw	fs0,32(a2)
     2e8:	7369                	lui	t1,0xffffa
     2ea:	6f2d7663          	bleu	s2,s10,9d6 <vprintfmt.constprop.1+0x59a>
     2ee:	7470                	flw	fa2,108(s0)
     2f0:	00682e73          	csrrs	t3,0x6,a6
     2f4:	69000007          	0x69000007
     2f8:	736e                	flw	ft6,248(sp)
     2fa:	2d6e                	fld	fs10,216(sp)
     2fc:	736e6f63          	bltu	t3,s6,a3a <vprintfmt.constprop.1+0x5fe>
     300:	6174                	flw	fa3,68(a0)
     302:	746e                	flw	fs0,248(sp)
     304:	00682e73          	csrrs	t3,0x6,a6
     308:	0008                	addi	a0,sp,0
     30a:	6c00                	flw	fs0,24(s0)
     30c:	6269                	lui	tp,0x1a
     30e:	32636367          	0x32636367
     312:	682e                	flw	fa6,200(sp)
     314:	0100                	addi	s0,sp,128
     316:	0000                	unimp
     318:	0000                	unimp
     31a:	0205                	addi	tp,tp,1
     31c:	2980                	fld	fs0,16(a1)
     31e:	0000                	unimp
     320:	0109e603          	0x109e603
     324:	00090103          	lb	sp,0(s2) # 18000 <__C_STACK_TOP__+0x8000>
     328:	0100                	addi	s0,sp,128
     32a:	04090503          	lb	a0,64(s2)
     32e:	0100                	addi	s0,sp,128
     330:	04090203          	lb	tp,64(s2)
     334:	0100                	addi	s0,sp,128
     336:	10097f03          	0x10097f03
     33a:	0100                	addi	s0,sp,128
     33c:	04090203          	lb	tp,64(s2)
     340:	0100                	addi	s0,sp,128
     342:	04090103          	lb	sp,64(s2)
     346:	0100                	addi	s0,sp,128
     348:	097e8e03          	lb	t3,151(t4)
     34c:	0010                	addi	a2,sp,0
     34e:	0301                	addi	t1,t1,0
     350:	0901                	addi	s2,s2,0
     352:	0004                	addi	s1,sp,0
     354:	0301                	addi	t1,t1,0
     356:	0901                	addi	s2,s2,0
     358:	0004                	addi	s1,sp,0
     35a:	0301                	addi	t1,t1,0
     35c:	0901                	addi	s2,s2,0
     35e:	0004                	addi	s1,sp,0
     360:	0301                	addi	t1,t1,0
     362:	0925                	addi	s2,s2,9
     364:	0004                	addi	s1,sp,0
     366:	0301                	addi	t1,t1,0
     368:	0902                	slli	s2,s2,0x0
     36a:	000c                	addi	a1,sp,0
     36c:	0301                	addi	t1,t1,0
     36e:	0904                	addi	s1,sp,144
     370:	0004                	addi	s1,sp,0
     372:	0301                	addi	t1,t1,0
     374:	0902                	slli	s2,s2,0x0
     376:	002c                	addi	a1,sp,8
     378:	0301                	addi	t1,t1,0
     37a:	0906                	slli	s2,s2,0x1
     37c:	0004                	addi	s1,sp,0
     37e:	0301                	addi	t1,t1,0
     380:	097f                	0x97f
     382:	0008                	addi	a0,sp,0
     384:	0301                	addi	t1,t1,0
     386:	0901                	addi	s2,s2,0
     388:	0004                	addi	s1,sp,0
     38a:	0301                	addi	t1,t1,0
     38c:	0901                	addi	s2,s2,0
     38e:	0004                	addi	s1,sp,0
     390:	0301                	addi	t1,t1,0
     392:	00040903          	lb	s2,0(s0) # fffeb000 <__C_STACK_TOP__+0xfffdb000>
     396:	0301                	addi	t1,t1,0
     398:	0931                	addi	s2,s2,12
     39a:	0070                	addi	a2,sp,12
     39c:	0301                	addi	t1,t1,0
     39e:	0902                	slli	s2,s2,0x0
     3a0:	0004                	addi	s1,sp,0
     3a2:	0301                	addi	t1,t1,0
     3a4:	0188                	addi	a0,sp,192
     3a6:	0409                	addi	s0,s0,2
     3a8:	0100                	addi	s0,sp,128
     3aa:	04090103          	lb	sp,64(s2)
     3ae:	0100                	addi	s0,sp,128
     3b0:	14090303          	lb	t1,320(s2)
     3b4:	0100                	addi	s0,sp,128
     3b6:	097eb503          	0x97eb503
     3ba:	0004                	addi	s1,sp,0
     3bc:	0301                	addi	t1,t1,0
     3be:	0915                	addi	s2,s2,5
     3c0:	0014                	addi	a3,sp,0
     3c2:	0301                	addi	t1,t1,0
     3c4:	0901                	addi	s2,s2,0
     3c6:	0004                	addi	s1,sp,0
     3c8:	0301                	addi	t1,t1,0
     3ca:	0902                	slli	s2,s2,0x0
     3cc:	0008                	addi	a0,sp,0
     3ce:	0301                	addi	t1,t1,0
     3d0:	0902                	slli	s2,s2,0x0
     3d2:	002c                	addi	a1,sp,8
     3d4:	0301                	addi	t1,t1,0
     3d6:	0909                	addi	s2,s2,2
     3d8:	0004                	addi	s1,sp,0
     3da:	0301                	addi	t1,t1,0
     3dc:	00040913          	mv	s2,s0
     3e0:	0301                	addi	t1,t1,0
     3e2:	0962                	slli	s2,s2,0x18
     3e4:	0074                	addi	a3,sp,12
     3e6:	0301                	addi	t1,t1,0
     3e8:	0914                	addi	a3,sp,144
     3ea:	0014                	addi	a3,sp,0
     3ec:	0301                	addi	t1,t1,0
     3ee:	0901                	addi	s2,s2,0
     3f0:	0004                	addi	s1,sp,0
     3f2:	0301                	addi	t1,t1,0
     3f4:	0902                	slli	s2,s2,0x0
     3f6:	0004                	addi	s1,sp,0
     3f8:	0301                	addi	t1,t1,0
     3fa:	097f                	0x97f
     3fc:	0004                	addi	s1,sp,0
     3fe:	0301                	addi	t1,t1,0
     400:	00040903          	lb	s2,0(s0)
     404:	0301                	addi	t1,t1,0
     406:	097d                	addi	s2,s2,31
     408:	0008                	addi	a0,sp,0
     40a:	0301                	addi	t1,t1,0
     40c:	00080903          	lb	s2,0(a6) # ffffb000 <__C_STACK_TOP__+0xfffeb000>
     410:	0301                	addi	t1,t1,0
     412:	0915                	addi	s2,s2,5
     414:	006c                	addi	a1,sp,12
     416:	0301                	addi	t1,t1,0
     418:	00040913          	mv	s2,s0
     41c:	0301                	addi	t1,t1,0
     41e:	0901                	addi	s2,s2,0
     420:	0034                	addi	a3,sp,8
     422:	0301                	addi	t1,t1,0
     424:	090a                	slli	s2,s2,0x2
     426:	0004                	addi	s1,sp,0
     428:	0301                	addi	t1,t1,0
     42a:	00080903          	lb	s2,0(a6)
     42e:	0301                	addi	t1,t1,0
     430:	0010090b          	0x10090b
     434:	0301                	addi	t1,t1,0
     436:	000c0967          	jalr	s2,s8
     43a:	0301                	addi	t1,t1,0
     43c:	00140923          	sb	ra,18(s0)
     440:	0301                	addi	t1,t1,0
     442:	0902                	slli	s2,s2,0x0
     444:	000c                	addi	a1,sp,0
     446:	0301                	addi	t1,t1,0
     448:	0901                	addi	s2,s2,0
     44a:	0004                	addi	s1,sp,0
     44c:	0301                	addi	t1,t1,0
     44e:	000c0903          	lb	s2,0(s8) # 1a000 <__C_STACK_TOP__+0xa000>
     452:	0301                	addi	t1,t1,0
     454:	0014097b          	0x14097b
     458:	0301                	addi	t1,t1,0
     45a:	00040903          	lb	s2,0(s0)
     45e:	0301                	addi	t1,t1,0
     460:	0902                	slli	s2,s2,0x0
     462:	0004                	addi	s1,sp,0
     464:	0301                	addi	t1,t1,0
     466:	0901                	addi	s2,s2,0
     468:	0074                	addi	a3,sp,12
     46a:	0301                	addi	t1,t1,0
     46c:	097f                	0x97f
     46e:	0004                	addi	s1,sp,0
     470:	0301                	addi	t1,t1,0
     472:	0901                	addi	s2,s2,0
     474:	0004                	addi	s1,sp,0
     476:	0301                	addi	t1,t1,0
     478:	097f                	0x97f
     47a:	0008                	addi	a0,sp,0
     47c:	0301                	addi	t1,t1,0
     47e:	0901                	addi	s2,s2,0
     480:	0004                	addi	s1,sp,0
     482:	0301                	addi	t1,t1,0
     484:	0902                	slli	s2,s2,0x0
     486:	0050                	addi	a2,sp,4
     488:	0301                	addi	t1,t1,0
     48a:	000c0903          	lb	s2,0(s8)
     48e:	0301                	addi	t1,t1,0
     490:	0908                	addi	a0,sp,144
     492:	0014                	addi	a3,sp,0
     494:	0301                	addi	t1,t1,0
     496:	0901                	addi	s2,s2,0
     498:	0010                	addi	a2,sp,0
     49a:	0301                	addi	t1,t1,0
     49c:	0902                	slli	s2,s2,0x0
     49e:	0008                	addi	a0,sp,0
     4a0:	0901                	addi	s2,s2,0
     4a2:	000c                	addi	a1,sp,0
     4a4:	0100                	addi	s0,sp,128
     4a6:	8d01                	sub	a0,a0,s0
     4a8:	0004                	addi	s1,sp,0
     4aa:	0200                	addi	s0,sp,256
     4ac:	0f00                	addi	s0,sp,912
     4ae:	01000003          	lb	zero,16(zero) # 10 <buf.1743+0x10>
     4b2:	fb01                	bnez	a4,3c2 <printf_putch+0xc2>
     4b4:	0d0e                	slli	s10,s10,0x3
     4b6:	0100                	addi	s0,sp,128
     4b8:	0101                	addi	sp,sp,0
     4ba:	0001                	nop
     4bc:	0000                	unimp
     4be:	0001                	nop
     4c0:	0100                	addi	s0,sp,128
     4c2:	6d6f682f          	0x6d6f682f
     4c6:	2f65                	jal	c7e <vprintfmt.constprop.1+0x842>
     4c8:	72617073          	csrci	0x726,2
     4cc:	6c66736b          	0x6c66736b
     4d0:	2f79                	jal	c6e <vprintfmt.constprop.1+0x832>
     4d2:	2f746947          	0x2f746947
     4d6:	6972                	flw	fs2,28(sp)
     4d8:	2d766373          	csrrsi	t1,0x2d7,12
     4dc:	6f74                	flw	fa3,92(a4)
     4de:	2f736c6f          	jal	s8,36fd4 <__C_STACK_TOP__+0x26fd4>
     4e2:	6972                	flw	fs2,28(sp)
     4e4:	2d766373          	csrrsi	t1,0x2d7,12
     4e8:	2d756e67          	0x2d756e67
     4ec:	6f74                	flw	fa3,92(a4)
     4ee:	68636c6f          	jal	s8,36b74 <__C_STACK_TOP__+0x26b74>
     4f2:	6961                	lui	s2,0x18
     4f4:	2f6e                	fld	ft10,216(sp)
     4f6:	6972                	flw	fs2,28(sp)
     4f8:	2d766373          	csrrsi	t1,0x2d7,12
     4fc:	2f636367          	0x2f636367
     500:	696c                	flw	fa1,84(a0)
     502:	6762                	flw	fa4,24(sp)
     504:	2f006363          	bltu	zero,a6,7ea <vprintfmt.constprop.1+0x3ae>
     508:	6f68                	flw	fa0,92(a4)
     50a:	656d                	lui	a0,0x1b
     50c:	6170732f          	0x6170732f
     510:	6b72                	flw	fs6,28(sp)
     512:	796c6673          	csrrsi	a2,0x796,24
     516:	6f72702f          	0x6f72702f
     51a:	6d617267          	0x6d617267
     51e:	5349522f          	0x5349522f
     522:	6e2f5643          	0x6e2f5643
     526:	7765                	lui	a4,0xffff9
     528:	696c                	flw	fa1,84(a0)
     52a:	5f62                	lw	t5,56(sp)
     52c:	736f7263          	bleu	s6,t5,c50 <vprintfmt.constprop.1+0x814>
     530:	6e692f73          	csrrs	t5,0x6e6,s2
     534:	6c617473          	csrrci	s0,0x6c6,2
     538:	2f6c                	fld	fa1,216(a4)
     53a:	6972                	flw	fs2,28(sp)
     53c:	33766373          	csrrsi	t1,mhpmevent23,12
     540:	2d32                	fld	fs10,264(sp)
     542:	6e75                	lui	t3,0x1d
     544:	776f6e6b          	0x776f6e6b
     548:	2d6e                	fld	fs10,216(sp)
     54a:	6c65                	lui	s8,0x19
     54c:	2f66                	fld	ft10,88(sp)
     54e:	6e69                	lui	t3,0x1a
     550:	64756c63          	bltu	a0,t2,ba8 <vprintfmt.constprop.1+0x76c>
     554:	2f65                	jal	d0c <vprintfmt.constprop.1+0x8d0>
     556:	616d                	addi	sp,sp,240
     558:	6e696863          	bltu	s2,t1,c48 <vprintfmt.constprop.1+0x80c>
     55c:	0065                	c.addi	zero,25
     55e:	6d6f682f          	0x6d6f682f
     562:	2f65                	jal	d1a <vprintfmt.constprop.1+0x8de>
     564:	72617073          	csrci	0x726,2
     568:	6c66736b          	0x6c66736b
     56c:	2f79                	jal	d0a <vprintfmt.constprop.1+0x8ce>
     56e:	7270                	flw	fa2,100(a2)
     570:	6172676f          	jal	a4,27386 <__C_STACK_TOP__+0x17386>
     574:	2f6d                	jal	d2e <vprintfmt.constprop.1+0x8f2>
     576:	4952                	lw	s2,20(sp)
     578:	2f564353          	0x2f564353
     57c:	656e                	flw	fa0,216(sp)
     57e:	62696c77          	0x62696c77
     582:	635f 6f72 7373      	0x73736f72635f
     588:	736e692f          	0x736e692f
     58c:	6174                	flw	fa3,68(a0)
     58e:	6c6c                	flw	fa1,92(s0)
     590:	7369722f          	0x7369722f
     594:	32337663          	bleu	gp,t1,8c0 <vprintfmt.constprop.1+0x484>
     598:	752d                	lui	a0,0xfffeb
     59a:	6b6e                	flw	fs6,216(sp)
     59c:	6f6e                	flw	ft10,216(sp)
     59e:	652d6e77          	0x652d6e77
     5a2:	666c                	flw	fa1,76(a2)
     5a4:	636e692f          	0x636e692f
     5a8:	756c                	flw	fa1,108(a0)
     5aa:	6564                	flw	fs1,76(a0)
     5ac:	7379732f          	0x7379732f
     5b0:	2f00                	fld	fs0,24(a4)
     5b2:	6f68                	flw	fa0,92(a4)
     5b4:	656d                	lui	a0,0x1b
     5b6:	6170732f          	0x6170732f
     5ba:	6b72                	flw	fs6,28(sp)
     5bc:	796c6673          	csrrsi	a2,0x796,24
     5c0:	7469472f          	0x7469472f
     5c4:	7369722f          	0x7369722f
     5c8:	742d7663          	bleu	sp,s10,d14 <vprintfmt.constprop.1+0x8d8>
     5cc:	736c6f6f          	jal	t5,c6d02 <__C_STACK_TOP__+0xb6d02>
     5d0:	7369722f          	0x7369722f
     5d4:	672d7663          	bleu	s2,s10,c40 <vprintfmt.constprop.1+0x804>
     5d8:	756e                	flw	fa0,248(sp)
     5da:	742d                	lui	s0,0xfffeb
     5dc:	636c6f6f          	jal	t5,c6c12 <__C_STACK_TOP__+0xb6c12>
     5e0:	6168                	flw	fa0,68(a0)
     5e2:	6e69                	lui	t3,0x1a
     5e4:	6975622f          	0x6975622f
     5e8:	646c                	flw	fa1,76(s0)
     5ea:	672d                	lui	a4,0xb
     5ec:	6e2d6363          	bltu	s10,sp,cd2 <vprintfmt.constprop.1+0x896>
     5f0:	7765                	lui	a4,0xffff9
     5f2:	696c                	flw	fa1,84(a0)
     5f4:	2d62                	fld	fs10,24(sp)
     5f6:	67617473          	csrrci	s0,0x676,2
     5fa:	3265                	jal	ffffffa2 <__C_STACK_TOP__+0xfffeffa2>
     5fc:	6363672f          	0x6363672f
     600:	636e692f          	0x636e692f
     604:	756c                	flw	fa1,108(a0)
     606:	6564                	flw	fs1,76(a0)
     608:	2f00                	fld	fs0,24(a4)
     60a:	6f68                	flw	fa0,92(a4)
     60c:	656d                	lui	a0,0x1b
     60e:	6170732f          	0x6170732f
     612:	6b72                	flw	fs6,28(sp)
     614:	796c6673          	csrrsi	a2,0x796,24
     618:	6f72702f          	0x6f72702f
     61c:	6d617267          	0x6d617267
     620:	5349522f          	0x5349522f
     624:	6e2f5643          	0x6e2f5643
     628:	7765                	lui	a4,0xffff9
     62a:	696c                	flw	fa1,84(a0)
     62c:	5f62                	lw	t5,56(sp)
     62e:	736f7263          	bleu	s6,t5,d52 <vprintfmt.constprop.1+0x916>
     632:	6e692f73          	csrrs	t5,0x6e6,s2
     636:	6c617473          	csrrci	s0,0x6c6,2
     63a:	2f6c                	fld	fa1,216(a4)
     63c:	6972                	flw	fs2,28(sp)
     63e:	33766373          	csrrsi	t1,mhpmevent23,12
     642:	2d32                	fld	fs10,264(sp)
     644:	6e75                	lui	t3,0x1d
     646:	776f6e6b          	0x776f6e6b
     64a:	2d6e                	fld	fs10,216(sp)
     64c:	6c65                	lui	s8,0x19
     64e:	2f66                	fld	ft10,88(sp)
     650:	6e69                	lui	t3,0x1a
     652:	64756c63          	bltu	a0,t2,caa <vprintfmt.constprop.1+0x86e>
     656:	0065                	c.addi	zero,25
     658:	6d6f682f          	0x6d6f682f
     65c:	2f65                	jal	e14 <vprintfmt.constprop.1+0x9d8>
     65e:	72617073          	csrci	0x726,2
     662:	6c66736b          	0x6c66736b
     666:	2f79                	jal	e04 <vprintfmt.constprop.1+0x9c8>
     668:	2f746947          	0x2f746947
     66c:	6972                	flw	fs2,28(sp)
     66e:	2d766373          	csrrsi	t1,0x2d7,12
     672:	6f74                	flw	fa3,92(a4)
     674:	2f736c6f          	jal	s8,3716a <__C_STACK_TOP__+0x2716a>
     678:	6972                	flw	fs2,28(sp)
     67a:	2d766373          	csrrsi	t1,0x2d7,12
     67e:	2d756e67          	0x2d756e67
     682:	6f74                	flw	fa3,92(a4)
     684:	68636c6f          	jal	s8,36d0a <__C_STACK_TOP__+0x26d0a>
     688:	6961                	lui	s2,0x18
     68a:	2f6e                	fld	ft10,216(sp)
     68c:	6972                	flw	fs2,28(sp)
     68e:	2d766373          	csrrsi	t1,0x2d7,12
     692:	2f636367          	0x2f636367
     696:	696c                	flw	fa1,84(a0)
     698:	6762                	flw	fa4,24(sp)
     69a:	2e2f6363          	bltu	t5,sp,980 <vprintfmt.constprop.1+0x544>
     69e:	2f2e                	fld	ft10,200(sp)
     6a0:	6e69                	lui	t3,0x1a
     6a2:	64756c63          	bltu	a0,t2,cfa <vprintfmt.constprop.1+0x8be>
     6a6:	0065                	c.addi	zero,25
     6a8:	6d6f682f          	0x6d6f682f
     6ac:	2f65                	jal	e64 <vprintfmt.constprop.1+0xa28>
     6ae:	72617073          	csrci	0x726,2
     6b2:	6c66736b          	0x6c66736b
     6b6:	2f79                	jal	e54 <vprintfmt.constprop.1+0xa18>
     6b8:	2f746947          	0x2f746947
     6bc:	6972                	flw	fs2,28(sp)
     6be:	2d766373          	csrrsi	t1,0x2d7,12
     6c2:	6f74                	flw	fa3,92(a4)
     6c4:	2f736c6f          	jal	s8,371ba <__C_STACK_TOP__+0x271ba>
     6c8:	6972                	flw	fs2,28(sp)
     6ca:	2d766373          	csrrsi	t1,0x2d7,12
     6ce:	2d756e67          	0x2d756e67
     6d2:	6f74                	flw	fa3,92(a4)
     6d4:	68636c6f          	jal	s8,36d5a <__C_STACK_TOP__+0x26d5a>
     6d8:	6961                	lui	s2,0x18
     6da:	2f6e                	fld	ft10,216(sp)
     6dc:	6972                	flw	fs2,28(sp)
     6de:	2d766373          	csrrsi	t1,0x2d7,12
     6e2:	2f636367          	0x2f636367
     6e6:	696c                	flw	fa1,84(a0)
     6e8:	6762                	flw	fa4,24(sp)
     6ea:	2e2f6363          	bltu	t5,sp,9d0 <vprintfmt.constprop.1+0x594>
     6ee:	2f2e                	fld	ft10,200(sp)
     6f0:	2f636367          	0x2f636367
     6f4:	666e6f63          	bltu	t3,t1,d72 <vprintfmt.constprop.1+0x936>
     6f8:	6769                	lui	a4,0x1a
     6fa:	7369722f          	0x7369722f
     6fe:	2e007663          	bleu	zero,zero,9ea <vprintfmt.constprop.1+0x5ae>
     702:	2f2e                	fld	ft10,200(sp)
     704:	2e2e                	fld	ft8,200(sp)
     706:	672f2e2f          	amoand.w.aqrl	t3,s2,(t5)
     70a:	00006363          	bltu	zero,zero,710 <vprintfmt.constprop.1+0x2d4>
     70e:	696c                	flw	fa1,84(a0)
     710:	6762                	flw	fa4,24(sp)
     712:	2e326363          	bltu	tp,gp,9f8 <vprintfmt.constprop.1+0x5bc>
     716:	00010063          	beqz	sp,716 <vprintfmt.constprop.1+0x2da>
     71a:	5f00                	lw	s0,56(a4)
     71c:	7974                	flw	fa3,116(a0)
     71e:	6570                	flw	fa2,76(a0)
     720:	00682e73          	csrrs	t3,0x6,a6
     724:	0002                	0x2
     726:	6c00                	flw	fs0,24(s0)
     728:	2e6b636f          	jal	t1,b6a0e <__C_STACK_TOP__+0xa6a0e>
     72c:	0068                	addi	a0,sp,12
     72e:	73000003          	lb	zero,1840(zero) # 730 <vprintfmt.constprop.1+0x2f4>
     732:	6474                	flw	fa3,76(s0)
     734:	6564                	flw	fs1,76(a0)
     736:	2e66                	fld	ft8,88(sp)
     738:	0068                	addi	a0,sp,12
     73a:	0004                	addi	s1,sp,0
     73c:	5f00                	lw	s0,56(a4)
     73e:	7974                	flw	fa3,116(a0)
     740:	6570                	flw	fa2,76(a0)
     742:	00682e73          	csrrs	t3,0x6,a6
     746:	72000003          	lb	zero,1824(zero) # 720 <vprintfmt.constprop.1+0x2e4>
     74a:	6565                	lui	a0,0x19
     74c:	746e                	flw	fs0,248(sp)
     74e:	682e                	flw	fa6,200(sp)
     750:	0300                	addi	s0,sp,384
     752:	0000                	unimp
     754:	7265                	lui	tp,0xffff9
     756:	6e72                	flw	ft8,28(sp)
     758:	00682e6f          	jal	t3,8275e <__C_STACK_TOP__+0x7275e>
     75c:	73000003          	lb	zero,1840(zero) # 730 <vprintfmt.constprop.1+0x2f4>
     760:	6474                	flw	fa3,76(s0)
     762:	696c                	flw	fa1,84(a0)
     764:	2e62                	fld	ft8,24(sp)
     766:	0068                	addi	a0,sp,12
     768:	0005                	c.addi	zero,1
     76a:	7500                	flw	fs0,40(a0)
     76c:	696e                	flw	fs2,216(sp)
     76e:	2e647473          	csrrci	s0,0x2e6,8
     772:	0068                	addi	a0,sp,12
     774:	74000003          	lb	zero,1856(zero) # 740 <vprintfmt.constprop.1+0x304>
     778:	6d69                	lui	s10,0x1a
     77a:	2e65                	jal	b32 <vprintfmt.constprop.1+0x6f6>
     77c:	0068                	addi	a0,sp,12
     77e:	0005                	c.addi	zero,1
     780:	6800                	flw	fs0,16(s0)
     782:	7361                	lui	t1,0xffff8
     784:	7468                	flw	fa0,108(s0)
     786:	6261                	lui	tp,0x18
     788:	682e                	flw	fa6,200(sp)
     78a:	0600                	addi	s0,sp,768
     78c:	0000                	unimp
     78e:	6972                	flw	fs2,28(sp)
     790:	2d766373          	csrrsi	t1,0x2d7,12
     794:	7374706f          	j	486ca <__C_STACK_TOP__+0x386ca>
     798:	682e                	flw	fa6,200(sp)
     79a:	0700                	addi	s0,sp,896
     79c:	0000                	unimp
     79e:	6e69                	lui	t3,0x1a
     7a0:	632d6e73          	csrrsi	t3,0x632,26
     7a4:	74736e6f          	jal	t3,376ea <__C_STACK_TOP__+0x276ea>
     7a8:	6e61                	lui	t3,0x18
     7aa:	7374                	flw	fa3,100(a4)
     7ac:	682e                	flw	fa6,200(sp)
     7ae:	0800                	addi	s0,sp,16
     7b0:	0000                	unimp
     7b2:	696c                	flw	fa1,84(a0)
     7b4:	6762                	flw	fa4,24(sp)
     7b6:	2e326363          	bltu	tp,gp,a9c <vprintfmt.constprop.1+0x660>
     7ba:	0068                	addi	a0,sp,12
     7bc:	0001                	nop
     7be:	0000                	unimp
     7c0:	0500                	addi	s0,sp,640
     7c2:	d802                	sw	zero,48(sp)
     7c4:	002d                	c.addi	zero,11
     7c6:	0300                	addi	s0,sp,384
     7c8:	0aa5                	addi	s5,s5,9
     7ca:	0301                	addi	t1,t1,0
     7cc:	0900                	addi	s0,sp,144
     7ce:	0000                	unimp
     7d0:	0301                	addi	t1,t1,0
     7d2:	7dd9                	lui	s11,0xffff6
     7d4:	0409                	addi	s0,s0,2
     7d6:	0100                	addi	s0,sp,128
     7d8:	04090103          	lb	sp,64(s2) # 18040 <__C_STACK_TOP__+0x8040>
     7dc:	0100                	addi	s0,sp,128
     7de:	04090103          	lb	sp,64(s2)
     7e2:	0100                	addi	s0,sp,128
     7e4:	04092603          	lw	a2,64(s2)
     7e8:	0100                	addi	s0,sp,128
     7ea:	0c090203          	lb	tp,192(s2)
     7ee:	0100                	addi	s0,sp,128
     7f0:	04090403          	lb	s0,64(s2)
     7f4:	0100                	addi	s0,sp,128
     7f6:	2c090203          	lb	tp,704(s2)
     7fa:	0100                	addi	s0,sp,128
     7fc:	04090603          	lb	a2,64(s2)
     800:	0100                	addi	s0,sp,128
     802:	08097f03          	0x8097f03
     806:	0100                	addi	s0,sp,128
     808:	04090103          	lb	sp,64(s2)
     80c:	0100                	addi	s0,sp,128
     80e:	04090103          	lb	sp,64(s2)
     812:	0100                	addi	s0,sp,128
     814:	04090303          	lb	t1,64(s2)
     818:	0100                	addi	s0,sp,128
     81a:	0900ff03          	0x900ff03
     81e:	0088                	addi	a0,sp,64
     820:	0301                	addi	t1,t1,0
     822:	7ef5                	lui	t4,0xffffd
     824:	0809                	addi	a6,a6,2
     826:	0100                	addi	s0,sp,128
     828:	14091503          	lh	a0,320(s2)
     82c:	0100                	addi	s0,sp,128
     82e:	04090103          	lb	sp,64(s2)
     832:	0100                	addi	s0,sp,128
     834:	08090203          	lb	tp,128(s2)
     838:	0100                	addi	s0,sp,128
     83a:	2c090203          	lb	tp,704(s2)
     83e:	0100                	addi	s0,sp,128
     840:	04090903          	lb	s2,64(s2)
     844:	0100                	addi	s0,sp,128
     846:	04090103          	lb	sp,64(s2)
     84a:	0100                	addi	s0,sp,128
     84c:	04091203          	lh	tp,64(s2)
     850:	0100                	addi	s0,sp,128
     852:	0901c503          	lbu	a0,144(gp)
     856:	0088                	addi	a0,sp,64
     858:	0301                	addi	t1,t1,0
     85a:	7e9d                	lui	t4,0xfffe7
     85c:	0809                	addi	a6,a6,2
     85e:	0100                	addi	s0,sp,128
     860:	14091403          	lh	s0,320(s2)
     864:	0100                	addi	s0,sp,128
     866:	04090103          	lb	sp,64(s2)
     86a:	0100                	addi	s0,sp,128
     86c:	04090203          	lb	tp,64(s2)
     870:	0100                	addi	s0,sp,128
     872:	04097f03          	0x4097f03
     876:	0100                	addi	s0,sp,128
     878:	04090303          	lb	t1,64(s2)
     87c:	0100                	addi	s0,sp,128
     87e:	04097d03          	0x4097d03
     882:	0100                	addi	s0,sp,128
     884:	04090303          	lb	t1,64(s2)
     888:	0100                	addi	s0,sp,128
     88a:	04097d03          	0x4097d03
     88e:	0100                	addi	s0,sp,128
     890:	04090303          	lb	t1,64(s2)
     894:	0100                	addi	s0,sp,128
     896:	8c091503          	lh	a0,-1856(s2)
     89a:	0100                	addi	s0,sp,128
     89c:	04091303          	lh	t1,64(s2)
     8a0:	0100                	addi	s0,sp,128
     8a2:	34090103          	lb	sp,832(s2)
     8a6:	0100                	addi	s0,sp,128
     8a8:	04090c03          	lb	s8,64(s2)
     8ac:	0100                	addi	s0,sp,128
     8ae:	04097e03          	0x4097e03
     8b2:	0100                	addi	s0,sp,128
     8b4:	10097503          	0x10097503
     8b8:	0100                	addi	s0,sp,128
     8ba:	14092303          	lw	t1,320(s2)
     8be:	0100                	addi	s0,sp,128
     8c0:	0c090603          	lb	a2,192(s2)
     8c4:	0100                	addi	s0,sp,128
     8c6:	04097c03          	0x4097c03
     8ca:	0100                	addi	s0,sp,128
     8cc:	04090403          	lb	s0,64(s2)
     8d0:	0100                	addi	s0,sp,128
     8d2:	04097d03          	0x4097d03
     8d6:	0100                	addi	s0,sp,128
     8d8:	0c090303          	lb	t1,192(s2)
     8dc:	0100                	addi	s0,sp,128
     8de:	0c097b03          	0xc097b03
     8e2:	0100                	addi	s0,sp,128
     8e4:	04090503          	lb	a0,64(s2)
     8e8:	0100                	addi	s0,sp,128
     8ea:	78090103          	lb	sp,1920(s2)
     8ee:	0100                	addi	s0,sp,128
     8f0:	04097f03          	0x4097f03
     8f4:	0100                	addi	s0,sp,128
     8f6:	04090103          	lb	sp,64(s2)
     8fa:	0100                	addi	s0,sp,128
     8fc:	40090203          	lb	tp,1024(s2)
     900:	0100                	addi	s0,sp,128
     902:	08097e03          	0x8097e03
     906:	0100                	addi	s0,sp,128
     908:	14097d03          	0x14097d03
     90c:	0100                	addi	s0,sp,128
     90e:	04090303          	lb	t1,64(s2)
     912:	0100                	addi	s0,sp,128
     914:	04090803          	lb	a6,64(s2)
     918:	0100                	addi	s0,sp,128
     91a:	04097a03          	0x4097a03
     91e:	0100                	addi	s0,sp,128
     920:	04090203          	lb	tp,64(s2)
     924:	0100                	addi	s0,sp,128
     926:	08094403          	lbu	s0,128(s2)
     92a:	0100                	addi	s0,sp,128
     92c:	04097f03          	0x4097f03
     930:	0100                	addi	s0,sp,128
     932:	0809                	addi	a6,a6,2
     934:	0000                	unimp
     936:	0101                	addi	sp,sp,0
     938:	0480                	addi	s0,sp,576
     93a:	0000                	unimp
     93c:	0002                	0x2
     93e:	0000030f          	0x30f
     942:	0101                	addi	sp,sp,0
     944:	000d0efb          	0xd0efb
     948:	0101                	addi	sp,sp,0
     94a:	0101                	addi	sp,sp,0
     94c:	0000                	unimp
     94e:	0100                	addi	s0,sp,128
     950:	0000                	unimp
     952:	2f01                	jal	1062 <vprintfmt.constprop.1+0xc26>
     954:	6f68                	flw	fa0,92(a4)
     956:	656d                	lui	a0,0x1b
     958:	6170732f          	0x6170732f
     95c:	6b72                	flw	fs6,28(sp)
     95e:	796c6673          	csrrsi	a2,0x796,24
     962:	7469472f          	0x7469472f
     966:	7369722f          	0x7369722f
     96a:	742d7663          	bleu	sp,s10,10b6 <vprintfmt.constprop.1+0xc7a>
     96e:	736c6f6f          	jal	t5,c70a4 <__C_STACK_TOP__+0xb70a4>
     972:	7369722f          	0x7369722f
     976:	672d7663          	bleu	s2,s10,fe2 <vprintfmt.constprop.1+0xba6>
     97a:	756e                	flw	fa0,248(sp)
     97c:	742d                	lui	s0,0xfffeb
     97e:	636c6f6f          	jal	t5,c6fb4 <__C_STACK_TOP__+0xb6fb4>
     982:	6168                	flw	fa0,68(a0)
     984:	6e69                	lui	t3,0x1a
     986:	7369722f          	0x7369722f
     98a:	672d7663          	bleu	s2,s10,ff6 <vprintfmt.constprop.1+0xbba>
     98e:	6c2f6363          	bltu	t5,sp,1054 <vprintfmt.constprop.1+0xc18>
     992:	6269                	lui	tp,0x1a
     994:	00636367          	0x636367
     998:	6d6f682f          	0x6d6f682f
     99c:	2f65                	jal	1154 <vprintfmt.constprop.1+0xd18>
     99e:	72617073          	csrci	0x726,2
     9a2:	6c66736b          	0x6c66736b
     9a6:	2f79                	jal	1144 <vprintfmt.constprop.1+0xd08>
     9a8:	7270                	flw	fa2,100(a2)
     9aa:	6172676f          	jal	a4,277c0 <__C_STACK_TOP__+0x177c0>
     9ae:	2f6d                	jal	1168 <vprintfmt.constprop.1+0xd2c>
     9b0:	4952                	lw	s2,20(sp)
     9b2:	2f564353          	0x2f564353
     9b6:	656e                	flw	fa0,216(sp)
     9b8:	62696c77          	0x62696c77
     9bc:	635f 6f72 7373      	0x73736f72635f
     9c2:	736e692f          	0x736e692f
     9c6:	6174                	flw	fa3,68(a0)
     9c8:	6c6c                	flw	fa1,92(s0)
     9ca:	7369722f          	0x7369722f
     9ce:	32337663          	bleu	gp,t1,cfa <vprintfmt.constprop.1+0x8be>
     9d2:	752d                	lui	a0,0xfffeb
     9d4:	6b6e                	flw	fs6,216(sp)
     9d6:	6f6e                	flw	ft10,216(sp)
     9d8:	652d6e77          	0x652d6e77
     9dc:	666c                	flw	fa1,76(a2)
     9de:	636e692f          	0x636e692f
     9e2:	756c                	flw	fa1,108(a0)
     9e4:	6564                	flw	fs1,76(a0)
     9e6:	63616d2f          	0x63616d2f
     9ea:	6968                	flw	fa0,84(a0)
     9ec:	656e                	flw	fa0,216(sp)
     9ee:	2f00                	fld	fs0,24(a4)
     9f0:	6f68                	flw	fa0,92(a4)
     9f2:	656d                	lui	a0,0x1b
     9f4:	6170732f          	0x6170732f
     9f8:	6b72                	flw	fs6,28(sp)
     9fa:	796c6673          	csrrsi	a2,0x796,24
     9fe:	6f72702f          	0x6f72702f
     a02:	6d617267          	0x6d617267
     a06:	5349522f          	0x5349522f
     a0a:	6e2f5643          	0x6e2f5643
     a0e:	7765                	lui	a4,0xffff9
     a10:	696c                	flw	fa1,84(a0)
     a12:	5f62                	lw	t5,56(sp)
     a14:	736f7263          	bleu	s6,t5,1138 <vprintfmt.constprop.1+0xcfc>
     a18:	6e692f73          	csrrs	t5,0x6e6,s2
     a1c:	6c617473          	csrrci	s0,0x6c6,2
     a20:	2f6c                	fld	fa1,216(a4)
     a22:	6972                	flw	fs2,28(sp)
     a24:	33766373          	csrrsi	t1,mhpmevent23,12
     a28:	2d32                	fld	fs10,264(sp)
     a2a:	6e75                	lui	t3,0x1d
     a2c:	776f6e6b          	0x776f6e6b
     a30:	2d6e                	fld	fs10,216(sp)
     a32:	6c65                	lui	s8,0x19
     a34:	2f66                	fld	ft10,88(sp)
     a36:	6e69                	lui	t3,0x1a
     a38:	64756c63          	bltu	a0,t2,1090 <vprintfmt.constprop.1+0xc54>
     a3c:	2f65                	jal	11f4 <vprintfmt.constprop.1+0xdb8>
     a3e:	00737973          	csrrci	s2,0x7,6
     a42:	6d6f682f          	0x6d6f682f
     a46:	2f65                	jal	11fe <vprintfmt.constprop.1+0xdc2>
     a48:	72617073          	csrci	0x726,2
     a4c:	6c66736b          	0x6c66736b
     a50:	2f79                	jal	11ee <vprintfmt.constprop.1+0xdb2>
     a52:	2f746947          	0x2f746947
     a56:	6972                	flw	fs2,28(sp)
     a58:	2d766373          	csrrsi	t1,0x2d7,12
     a5c:	6f74                	flw	fa3,92(a4)
     a5e:	2f736c6f          	jal	s8,37554 <__C_STACK_TOP__+0x27554>
     a62:	6972                	flw	fs2,28(sp)
     a64:	2d766373          	csrrsi	t1,0x2d7,12
     a68:	2d756e67          	0x2d756e67
     a6c:	6f74                	flw	fa3,92(a4)
     a6e:	68636c6f          	jal	s8,370f4 <__C_STACK_TOP__+0x270f4>
     a72:	6961                	lui	s2,0x18
     a74:	2f6e                	fld	ft10,216(sp)
     a76:	7562                	flw	fa0,56(sp)
     a78:	6c69                	lui	s8,0x1a
     a7a:	2d64                	fld	fs1,216(a0)
     a7c:	2d636367          	0x2d636367
     a80:	656e                	flw	fa0,216(sp)
     a82:	62696c77          	0x62696c77
     a86:	732d                	lui	t1,0xfffeb
     a88:	6174                	flw	fa3,68(a0)
     a8a:	2f326567          	0x2f326567
     a8e:	2f636367          	0x2f636367
     a92:	6e69                	lui	t3,0x1a
     a94:	64756c63          	bltu	a0,t2,10ec <vprintfmt.constprop.1+0xcb0>
     a98:	0065                	c.addi	zero,25
     a9a:	6d6f682f          	0x6d6f682f
     a9e:	2f65                	jal	1256 <vprintfmt.constprop.1+0xe1a>
     aa0:	72617073          	csrci	0x726,2
     aa4:	6c66736b          	0x6c66736b
     aa8:	2f79                	jal	1246 <vprintfmt.constprop.1+0xe0a>
     aaa:	7270                	flw	fa2,100(a2)
     aac:	6172676f          	jal	a4,278c2 <__C_STACK_TOP__+0x178c2>
     ab0:	2f6d                	jal	126a <vprintfmt.constprop.1+0xe2e>
     ab2:	4952                	lw	s2,20(sp)
     ab4:	2f564353          	0x2f564353
     ab8:	656e                	flw	fa0,216(sp)
     aba:	62696c77          	0x62696c77
     abe:	635f 6f72 7373      	0x73736f72635f
     ac4:	736e692f          	0x736e692f
     ac8:	6174                	flw	fa3,68(a0)
     aca:	6c6c                	flw	fa1,92(s0)
     acc:	7369722f          	0x7369722f
     ad0:	32337663          	bleu	gp,t1,dfc <vprintfmt.constprop.1+0x9c0>
     ad4:	752d                	lui	a0,0xfffeb
     ad6:	6b6e                	flw	fs6,216(sp)
     ad8:	6f6e                	flw	ft10,216(sp)
     ada:	652d6e77          	0x652d6e77
     ade:	666c                	flw	fa1,76(a2)
     ae0:	636e692f          	0x636e692f
     ae4:	756c                	flw	fa1,108(a0)
     ae6:	6564                	flw	fs1,76(a0)
     ae8:	2f00                	fld	fs0,24(a4)
     aea:	6f68                	flw	fa0,92(a4)
     aec:	656d                	lui	a0,0x1b
     aee:	6170732f          	0x6170732f
     af2:	6b72                	flw	fs6,28(sp)
     af4:	796c6673          	csrrsi	a2,0x796,24
     af8:	7469472f          	0x7469472f
     afc:	7369722f          	0x7369722f
     b00:	742d7663          	bleu	sp,s10,124c <vprintfmt.constprop.1+0xe10>
     b04:	736c6f6f          	jal	t5,c723a <__C_STACK_TOP__+0xb723a>
     b08:	7369722f          	0x7369722f
     b0c:	672d7663          	bleu	s2,s10,1178 <vprintfmt.constprop.1+0xd3c>
     b10:	756e                	flw	fa0,248(sp)
     b12:	742d                	lui	s0,0xfffeb
     b14:	636c6f6f          	jal	t5,c714a <__C_STACK_TOP__+0xb714a>
     b18:	6168                	flw	fa0,68(a0)
     b1a:	6e69                	lui	t3,0x1a
     b1c:	7369722f          	0x7369722f
     b20:	672d7663          	bleu	s2,s10,118c <vprintfmt.constprop.1+0xd50>
     b24:	6c2f6363          	bltu	t5,sp,11ea <vprintfmt.constprop.1+0xdae>
     b28:	6269                	lui	tp,0x1a
     b2a:	2f636367          	0x2f636367
     b2e:	2e2e                	fld	ft8,200(sp)
     b30:	636e692f          	0x636e692f
     b34:	756c                	flw	fa1,108(a0)
     b36:	6564                	flw	fs1,76(a0)
     b38:	2f00                	fld	fs0,24(a4)
     b3a:	6f68                	flw	fa0,92(a4)
     b3c:	656d                	lui	a0,0x1b
     b3e:	6170732f          	0x6170732f
     b42:	6b72                	flw	fs6,28(sp)
     b44:	796c6673          	csrrsi	a2,0x796,24
     b48:	7469472f          	0x7469472f
     b4c:	7369722f          	0x7369722f
     b50:	742d7663          	bleu	sp,s10,129c <vprintfmt.constprop.1+0xe60>
     b54:	736c6f6f          	jal	t5,c728a <__C_STACK_TOP__+0xb728a>
     b58:	7369722f          	0x7369722f
     b5c:	672d7663          	bleu	s2,s10,11c8 <vprintfmt.constprop.1+0xd8c>
     b60:	756e                	flw	fa0,248(sp)
     b62:	742d                	lui	s0,0xfffeb
     b64:	636c6f6f          	jal	t5,c719a <__C_STACK_TOP__+0xb719a>
     b68:	6168                	flw	fa0,68(a0)
     b6a:	6e69                	lui	t3,0x1a
     b6c:	7369722f          	0x7369722f
     b70:	672d7663          	bleu	s2,s10,11dc <vprintfmt.constprop.1+0xda0>
     b74:	6c2f6363          	bltu	t5,sp,123a <vprintfmt.constprop.1+0xdfe>
     b78:	6269                	lui	tp,0x1a
     b7a:	2f636367          	0x2f636367
     b7e:	2e2e                	fld	ft8,200(sp)
     b80:	6363672f          	0x6363672f
     b84:	6e6f632f          	0x6e6f632f
     b88:	6966                	flw	fs2,88(sp)
     b8a:	69722f67          	0x69722f67
     b8e:	00766373          	csrrsi	t1,0x7,12
     b92:	2e2e                	fld	ft8,200(sp)
     b94:	2f2e2e2f          	0x2f2e2e2f
     b98:	2f2e                	fld	ft10,200(sp)
     b9a:	00636367          	0x636367
     b9e:	6c00                	flw	fs0,24(s0)
     ba0:	6269                	lui	tp,0x1a
     ba2:	32636367          	0x32636367
     ba6:	632e                	flw	ft6,200(sp)
     ba8:	0100                	addi	s0,sp,128
     baa:	0000                	unimp
     bac:	745f 7079 7365      	0x73657079745f
     bb2:	682e                	flw	fa6,200(sp)
     bb4:	0200                	addi	s0,sp,256
     bb6:	0000                	unimp
     bb8:	6f6c                	flw	fa1,92(a4)
     bba:	682e6b63          	bltu	t3,sp,1250 <vprintfmt.constprop.1+0xe14>
     bbe:	0300                	addi	s0,sp,384
     bc0:	0000                	unimp
     bc2:	64647473          	csrrci	s0,0x646,8
     bc6:	6665                	lui	a2,0x19
     bc8:	682e                	flw	fa6,200(sp)
     bca:	0400                	addi	s0,sp,512
     bcc:	0000                	unimp
     bce:	745f 7079 7365      	0x73657079745f
     bd4:	682e                	flw	fa6,200(sp)
     bd6:	0300                	addi	s0,sp,384
     bd8:	0000                	unimp
     bda:	6572                	flw	fa0,28(sp)
     bdc:	6e65                	lui	t3,0x19
     bde:	2e74                	fld	fa3,216(a2)
     be0:	0068                	addi	a0,sp,12
     be2:	65000003          	lb	zero,1616(zero) # 650 <vprintfmt.constprop.1+0x214>
     be6:	7272                	flw	ft4,60(sp)
     be8:	6f6e                	flw	ft10,216(sp)
     bea:	682e                	flw	fa6,200(sp)
     bec:	0300                	addi	s0,sp,384
     bee:	0000                	unimp
     bf0:	6c647473          	csrrci	s0,0x6c6,8
     bf4:	6269                	lui	tp,0x1a
     bf6:	682e                	flw	fa6,200(sp)
     bf8:	0500                	addi	s0,sp,640
     bfa:	0000                	unimp
     bfc:	6e75                	lui	t3,0x1d
     bfe:	7369                	lui	t1,0xffffa
     c00:	6474                	flw	fa3,76(s0)
     c02:	682e                	flw	fa6,200(sp)
     c04:	0300                	addi	s0,sp,384
     c06:	0000                	unimp
     c08:	6974                	flw	fa3,84(a0)
     c0a:	656d                	lui	a0,0x1b
     c0c:	682e                	flw	fa6,200(sp)
     c0e:	0500                	addi	s0,sp,640
     c10:	0000                	unimp
     c12:	6168                	flw	fa0,68(a0)
     c14:	61746873          	csrrsi	a6,0x617,8
     c18:	2e62                	fld	ft8,24(sp)
     c1a:	0068                	addi	a0,sp,12
     c1c:	0006                	0x6
     c1e:	7200                	flw	fs0,32(a2)
     c20:	7369                	lui	t1,0xffffa
     c22:	6f2d7663          	bleu	s2,s10,130e <vprintfmt.constprop.1+0xed2>
     c26:	7470                	flw	fa2,108(s0)
     c28:	00682e73          	csrrs	t3,0x6,a6
     c2c:	69000007          	0x69000007
     c30:	736e                	flw	ft6,248(sp)
     c32:	2d6e                	fld	fs10,216(sp)
     c34:	736e6f63          	bltu	t3,s6,1372 <vprintfmt.constprop.1+0xf36>
     c38:	6174                	flw	fa3,68(a0)
     c3a:	746e                	flw	fs0,248(sp)
     c3c:	00682e73          	csrrs	t3,0x6,a6
     c40:	0008                	addi	a0,sp,0
     c42:	6c00                	flw	fs0,24(s0)
     c44:	6269                	lui	tp,0x1a
     c46:	32636367          	0x32636367
     c4a:	682e                	flw	fa6,200(sp)
     c4c:	0100                	addi	s0,sp,128
     c4e:	0000                	unimp
     c50:	0000                	unimp
     c52:	0205                	addi	tp,tp,1
     c54:	320c                	fld	fa1,32(a2)
     c56:	0000                	unimp
     c58:	010a9903          	lh	s2,16(s5)
     c5c:	097de503          	0x97de503
     c60:	0000                	unimp
     c62:	0301                	addi	t1,t1,0
     c64:	0901                	addi	s2,s2,0
     c66:	0004                	addi	s1,sp,0
     c68:	0301                	addi	t1,t1,0
     c6a:	0901                	addi	s2,s2,0
     c6c:	0004                	addi	s1,sp,0
     c6e:	0301                	addi	t1,t1,0
     c70:	0901                	addi	s2,s2,0
     c72:	0004                	addi	s1,sp,0
     c74:	0301                	addi	t1,t1,0
     c76:	0925                	addi	s2,s2,9
     c78:	0004                	addi	s1,sp,0
     c7a:	0301                	addi	t1,t1,0
     c7c:	0902                	slli	s2,s2,0x0
     c7e:	000c                	addi	a1,sp,0
     c80:	0301                	addi	t1,t1,0
     c82:	0904                	addi	s1,sp,144
     c84:	0004                	addi	s1,sp,0
     c86:	0301                	addi	t1,t1,0
     c88:	0902                	slli	s2,s2,0x0
     c8a:	002c                	addi	a1,sp,8
     c8c:	0301                	addi	t1,t1,0
     c8e:	0906                	slli	s2,s2,0x1
     c90:	0004                	addi	s1,sp,0
     c92:	0301                	addi	t1,t1,0
     c94:	097f                	0x97f
     c96:	0008                	addi	a0,sp,0
     c98:	0301                	addi	t1,t1,0
     c9a:	0901                	addi	s2,s2,0
     c9c:	0004                	addi	s1,sp,0
     c9e:	0301                	addi	t1,t1,0
     ca0:	0901                	addi	s2,s2,0
     ca2:	0004                	addi	s1,sp,0
     ca4:	0301                	addi	t1,t1,0
     ca6:	00040903          	lb	s2,0(s0) # fffeb000 <__C_STACK_TOP__+0xfffdb000>
     caa:	0301                	addi	t1,t1,0
     cac:	0931                	addi	s2,s2,12
     cae:	0070                	addi	a2,sp,12
     cb0:	0301                	addi	t1,t1,0
     cb2:	0902                	slli	s2,s2,0x0
     cb4:	0004                	addi	s1,sp,0
     cb6:	0301                	addi	t1,t1,0
     cb8:	01b4                	addi	a3,sp,200
     cba:	0409                	addi	s0,s0,2
     cbc:	0100                	addi	s0,sp,128
     cbe:	097e8d03          	lb	s10,151(t4) # fffe7097 <__C_STACK_TOP__+0xfffd7097>
     cc2:	0004                	addi	s1,sp,0
     cc4:	0301                	addi	t1,t1,0
     cc6:	0915                	addi	s2,s2,5
     cc8:	0014                	addi	a3,sp,0
     cca:	0301                	addi	t1,t1,0
     ccc:	0901                	addi	s2,s2,0
     cce:	0004                	addi	s1,sp,0
     cd0:	0301                	addi	t1,t1,0
     cd2:	0902                	slli	s2,s2,0x0
     cd4:	0008                	addi	a0,sp,0
     cd6:	0301                	addi	t1,t1,0
     cd8:	0902                	slli	s2,s2,0x0
     cda:	002c                	addi	a1,sp,8
     cdc:	0301                	addi	t1,t1,0
     cde:	0909                	addi	s2,s2,2
     ce0:	0004                	addi	s1,sp,0
     ce2:	0301                	addi	t1,t1,0
     ce4:	00040913          	mv	s2,s0
     ce8:	0301                	addi	t1,t1,0
     cea:	0962                	slli	s2,s2,0x18
     cec:	0074                	addi	a3,sp,12
     cee:	0301                	addi	t1,t1,0
     cf0:	0914                	addi	a3,sp,144
     cf2:	0014                	addi	a3,sp,0
     cf4:	0301                	addi	t1,t1,0
     cf6:	0901                	addi	s2,s2,0
     cf8:	0004                	addi	s1,sp,0
     cfa:	0301                	addi	t1,t1,0
     cfc:	0902                	slli	s2,s2,0x0
     cfe:	0004                	addi	s1,sp,0
     d00:	0301                	addi	t1,t1,0
     d02:	097f                	0x97f
     d04:	0004                	addi	s1,sp,0
     d06:	0301                	addi	t1,t1,0
     d08:	00040903          	lb	s2,0(s0)
     d0c:	0301                	addi	t1,t1,0
     d0e:	097d                	addi	s2,s2,31
     d10:	0008                	addi	a0,sp,0
     d12:	0301                	addi	t1,t1,0
     d14:	00080903          	lb	s2,0(a6)
     d18:	0301                	addi	t1,t1,0
     d1a:	0915                	addi	s2,s2,5
     d1c:	006c                	addi	a1,sp,12
     d1e:	0301                	addi	t1,t1,0
     d20:	00040913          	mv	s2,s0
     d24:	0301                	addi	t1,t1,0
     d26:	0901                	addi	s2,s2,0
     d28:	0034                	addi	a3,sp,8
     d2a:	0301                	addi	t1,t1,0
     d2c:	090a                	slli	s2,s2,0x2
     d2e:	0004                	addi	s1,sp,0
     d30:	0301                	addi	t1,t1,0
     d32:	00080903          	lb	s2,0(a6)
     d36:	0301                	addi	t1,t1,0
     d38:	0010090b          	0x10090b
     d3c:	0301                	addi	t1,t1,0
     d3e:	000c0967          	jalr	s2,s8
     d42:	0301                	addi	t1,t1,0
     d44:	00140923          	sb	ra,18(s0)
     d48:	0301                	addi	t1,t1,0
     d4a:	000c0903          	lb	s2,0(s8) # 1a000 <__C_STACK_TOP__+0xa000>
     d4e:	0301                	addi	t1,t1,0
     d50:	097f                	0x97f
     d52:	0004                	addi	s1,sp,0
     d54:	0301                	addi	t1,t1,0
     d56:	0901                	addi	s2,s2,0
     d58:	0004                	addi	s1,sp,0
     d5a:	0301                	addi	t1,t1,0
     d5c:	00080903          	lb	s2,0(a6)
     d60:	0301                	addi	t1,t1,0
     d62:	0014097b          	0x14097b
     d66:	0301                	addi	t1,t1,0
     d68:	00040903          	lb	s2,0(s0)
     d6c:	0301                	addi	t1,t1,0
     d6e:	0902                	slli	s2,s2,0x0
     d70:	0004                	addi	s1,sp,0
     d72:	0301                	addi	t1,t1,0
     d74:	0901                	addi	s2,s2,0
     d76:	0074                	addi	a3,sp,12
     d78:	0301                	addi	t1,t1,0
     d7a:	097f                	0x97f
     d7c:	0004                	addi	s1,sp,0
     d7e:	0301                	addi	t1,t1,0
     d80:	0901                	addi	s2,s2,0
     d82:	0004                	addi	s1,sp,0
     d84:	0301                	addi	t1,t1,0
     d86:	097f                	0x97f
     d88:	0008                	addi	a0,sp,0
     d8a:	0301                	addi	t1,t1,0
     d8c:	0901                	addi	s2,s2,0
     d8e:	0004                	addi	s1,sp,0
     d90:	0301                	addi	t1,t1,0
     d92:	0902                	slli	s2,s2,0x0
     d94:	0050                	addi	a2,sp,4
     d96:	0301                	addi	t1,t1,0
     d98:	000c0903          	lb	s2,0(s8)
     d9c:	0301                	addi	t1,t1,0
     d9e:	0908                	addi	a0,sp,144
     da0:	0014                	addi	a3,sp,0
     da2:	0301                	addi	t1,t1,0
     da4:	0901                	addi	s2,s2,0
     da6:	0010                	addi	a2,sp,0
     da8:	0301                	addi	t1,t1,0
     daa:	0902                	slli	s2,s2,0x0
     dac:	0008                	addi	a0,sp,0
     dae:	0301                	addi	t1,t1,0
     db0:	00df 0809 0100      	0x100080900df
     db6:	0409                	addi	s0,s0,2
     db8:	0000                	unimp
     dba:	0101                	addi	sp,sp,0
     dbc:	0315                	addi	t1,t1,5
     dbe:	0000                	unimp
     dc0:	0002                	0x2
     dc2:	0000030f          	0x30f
     dc6:	0101                	addi	sp,sp,0
     dc8:	000d0efb          	0xd0efb
     dcc:	0101                	addi	sp,sp,0
     dce:	0101                	addi	sp,sp,0
     dd0:	0000                	unimp
     dd2:	0100                	addi	s0,sp,128
     dd4:	0000                	unimp
     dd6:	2f01                	jal	14e6 <vprintfmt.constprop.1+0x10aa>
     dd8:	6f68                	flw	fa0,92(a4)
     dda:	656d                	lui	a0,0x1b
     ddc:	6170732f          	0x6170732f
     de0:	6b72                	flw	fs6,28(sp)
     de2:	796c6673          	csrrsi	a2,0x796,24
     de6:	6f72702f          	0x6f72702f
     dea:	6d617267          	0x6d617267
     dee:	5349522f          	0x5349522f
     df2:	6e2f5643          	0x6e2f5643
     df6:	7765                	lui	a4,0xffff9
     df8:	696c                	flw	fa1,84(a0)
     dfa:	5f62                	lw	t5,56(sp)
     dfc:	736f7263          	bleu	s6,t5,1520 <vprintfmt.constprop.1+0x10e4>
     e00:	6e692f73          	csrrs	t5,0x6e6,s2
     e04:	6c617473          	csrrci	s0,0x6c6,2
     e08:	2f6c                	fld	fa1,216(a4)
     e0a:	6972                	flw	fs2,28(sp)
     e0c:	33766373          	csrrsi	t1,mhpmevent23,12
     e10:	2d32                	fld	fs10,264(sp)
     e12:	6e75                	lui	t3,0x1d
     e14:	776f6e6b          	0x776f6e6b
     e18:	2d6e                	fld	fs10,216(sp)
     e1a:	6c65                	lui	s8,0x19
     e1c:	2f66                	fld	ft10,88(sp)
     e1e:	6e69                	lui	t3,0x1a
     e20:	64756c63          	bltu	a0,t2,1478 <vprintfmt.constprop.1+0x103c>
     e24:	2f65                	jal	15dc <vprintfmt.constprop.1+0x11a0>
     e26:	616d                	addi	sp,sp,240
     e28:	6e696863          	bltu	s2,t1,1518 <vprintfmt.constprop.1+0x10dc>
     e2c:	0065                	c.addi	zero,25
     e2e:	6d6f682f          	0x6d6f682f
     e32:	2f65                	jal	15ea <vprintfmt.constprop.1+0x11ae>
     e34:	72617073          	csrci	0x726,2
     e38:	6c66736b          	0x6c66736b
     e3c:	2f79                	jal	15da <vprintfmt.constprop.1+0x119e>
     e3e:	7270                	flw	fa2,100(a2)
     e40:	6172676f          	jal	a4,27c56 <__C_STACK_TOP__+0x17c56>
     e44:	2f6d                	jal	15fe <vprintfmt.constprop.1+0x11c2>
     e46:	4952                	lw	s2,20(sp)
     e48:	2f564353          	0x2f564353
     e4c:	656e                	flw	fa0,216(sp)
     e4e:	62696c77          	0x62696c77
     e52:	635f 6f72 7373      	0x73736f72635f
     e58:	736e692f          	0x736e692f
     e5c:	6174                	flw	fa3,68(a0)
     e5e:	6c6c                	flw	fa1,92(s0)
     e60:	7369722f          	0x7369722f
     e64:	32337663          	bleu	gp,t1,1190 <vprintfmt.constprop.1+0xd54>
     e68:	752d                	lui	a0,0xfffeb
     e6a:	6b6e                	flw	fs6,216(sp)
     e6c:	6f6e                	flw	ft10,216(sp)
     e6e:	652d6e77          	0x652d6e77
     e72:	666c                	flw	fa1,76(a2)
     e74:	636e692f          	0x636e692f
     e78:	756c                	flw	fa1,108(a0)
     e7a:	6564                	flw	fs1,76(a0)
     e7c:	7379732f          	0x7379732f
     e80:	2f00                	fld	fs0,24(a4)
     e82:	6f68                	flw	fa0,92(a4)
     e84:	656d                	lui	a0,0x1b
     e86:	6170732f          	0x6170732f
     e8a:	6b72                	flw	fs6,28(sp)
     e8c:	796c6673          	csrrsi	a2,0x796,24
     e90:	7469472f          	0x7469472f
     e94:	7369722f          	0x7369722f
     e98:	742d7663          	bleu	sp,s10,15e4 <vprintfmt.constprop.1+0x11a8>
     e9c:	736c6f6f          	jal	t5,c75d2 <__C_STACK_TOP__+0xb75d2>
     ea0:	7369722f          	0x7369722f
     ea4:	672d7663          	bleu	s2,s10,1510 <vprintfmt.constprop.1+0x10d4>
     ea8:	756e                	flw	fa0,248(sp)
     eaa:	742d                	lui	s0,0xfffeb
     eac:	636c6f6f          	jal	t5,c74e2 <__C_STACK_TOP__+0xb74e2>
     eb0:	6168                	flw	fa0,68(a0)
     eb2:	6e69                	lui	t3,0x1a
     eb4:	6975622f          	0x6975622f
     eb8:	646c                	flw	fa1,76(s0)
     eba:	672d                	lui	a4,0xb
     ebc:	6e2d6363          	bltu	s10,sp,15a2 <vprintfmt.constprop.1+0x1166>
     ec0:	7765                	lui	a4,0xffff9
     ec2:	696c                	flw	fa1,84(a0)
     ec4:	2d62                	fld	fs10,24(sp)
     ec6:	67617473          	csrrci	s0,0x676,2
     eca:	3265                	jal	872 <vprintfmt.constprop.1+0x436>
     ecc:	6363672f          	0x6363672f
     ed0:	636e692f          	0x636e692f
     ed4:	756c                	flw	fa1,108(a0)
     ed6:	6564                	flw	fs1,76(a0)
     ed8:	2f00                	fld	fs0,24(a4)
     eda:	6f68                	flw	fa0,92(a4)
     edc:	656d                	lui	a0,0x1b
     ede:	6170732f          	0x6170732f
     ee2:	6b72                	flw	fs6,28(sp)
     ee4:	796c6673          	csrrsi	a2,0x796,24
     ee8:	6f72702f          	0x6f72702f
     eec:	6d617267          	0x6d617267
     ef0:	5349522f          	0x5349522f
     ef4:	6e2f5643          	0x6e2f5643
     ef8:	7765                	lui	a4,0xffff9
     efa:	696c                	flw	fa1,84(a0)
     efc:	5f62                	lw	t5,56(sp)
     efe:	736f7263          	bleu	s6,t5,1622 <sc_printf.constprop.0+0x16>
     f02:	6e692f73          	csrrs	t5,0x6e6,s2
     f06:	6c617473          	csrrci	s0,0x6c6,2
     f0a:	2f6c                	fld	fa1,216(a4)
     f0c:	6972                	flw	fs2,28(sp)
     f0e:	33766373          	csrrsi	t1,mhpmevent23,12
     f12:	2d32                	fld	fs10,264(sp)
     f14:	6e75                	lui	t3,0x1d
     f16:	776f6e6b          	0x776f6e6b
     f1a:	2d6e                	fld	fs10,216(sp)
     f1c:	6c65                	lui	s8,0x19
     f1e:	2f66                	fld	ft10,88(sp)
     f20:	6e69                	lui	t3,0x1a
     f22:	64756c63          	bltu	a0,t2,157a <vprintfmt.constprop.1+0x113e>
     f26:	0065                	c.addi	zero,25
     f28:	6d6f682f          	0x6d6f682f
     f2c:	2f65                	jal	16e4 <putchar+0x94>
     f2e:	72617073          	csrci	0x726,2
     f32:	6c66736b          	0x6c66736b
     f36:	2f79                	jal	16d4 <putchar+0x84>
     f38:	2f746947          	0x2f746947
     f3c:	6972                	flw	fs2,28(sp)
     f3e:	2d766373          	csrrsi	t1,0x2d7,12
     f42:	6f74                	flw	fa3,92(a4)
     f44:	2f736c6f          	jal	s8,37a3a <__C_STACK_TOP__+0x27a3a>
     f48:	6972                	flw	fs2,28(sp)
     f4a:	2d766373          	csrrsi	t1,0x2d7,12
     f4e:	2d756e67          	0x2d756e67
     f52:	6f74                	flw	fa3,92(a4)
     f54:	68636c6f          	jal	s8,375da <__C_STACK_TOP__+0x275da>
     f58:	6961                	lui	s2,0x18
     f5a:	2f6e                	fld	ft10,216(sp)
     f5c:	6972                	flw	fs2,28(sp)
     f5e:	2d766373          	csrrsi	t1,0x2d7,12
     f62:	2f636367          	0x2f636367
     f66:	696c                	flw	fa1,84(a0)
     f68:	6762                	flw	fa4,24(sp)
     f6a:	2e2f6363          	bltu	t5,sp,1250 <vprintfmt.constprop.1+0xe14>
     f6e:	2f2e                	fld	ft10,200(sp)
     f70:	6e69                	lui	t3,0x1a
     f72:	64756c63          	bltu	a0,t2,15ca <vprintfmt.constprop.1+0x118e>
     f76:	0065                	c.addi	zero,25
     f78:	6d6f682f          	0x6d6f682f
     f7c:	2f65                	jal	1734 <putchar+0xe4>
     f7e:	72617073          	csrci	0x726,2
     f82:	6c66736b          	0x6c66736b
     f86:	2f79                	jal	1724 <putchar+0xd4>
     f88:	2f746947          	0x2f746947
     f8c:	6972                	flw	fs2,28(sp)
     f8e:	2d766373          	csrrsi	t1,0x2d7,12
     f92:	6f74                	flw	fa3,92(a4)
     f94:	2f736c6f          	jal	s8,37a8a <__C_STACK_TOP__+0x27a8a>
     f98:	6972                	flw	fs2,28(sp)
     f9a:	2d766373          	csrrsi	t1,0x2d7,12
     f9e:	2d756e67          	0x2d756e67
     fa2:	6f74                	flw	fa3,92(a4)
     fa4:	68636c6f          	jal	s8,3762a <__C_STACK_TOP__+0x2762a>
     fa8:	6961                	lui	s2,0x18
     faa:	2f6e                	fld	ft10,216(sp)
     fac:	6972                	flw	fs2,28(sp)
     fae:	2d766373          	csrrsi	t1,0x2d7,12
     fb2:	2f636367          	0x2f636367
     fb6:	696c                	flw	fa1,84(a0)
     fb8:	6762                	flw	fa4,24(sp)
     fba:	2e2f6363          	bltu	t5,sp,12a0 <vprintfmt.constprop.1+0xe64>
     fbe:	2f2e                	fld	ft10,200(sp)
     fc0:	2f636367          	0x2f636367
     fc4:	666e6f63          	bltu	t3,t1,1642 <sc_printf.constprop.0+0x36>
     fc8:	6769                	lui	a4,0x1a
     fca:	7369722f          	0x7369722f
     fce:	2e007663          	bleu	zero,zero,12ba <vprintfmt.constprop.1+0xe7e>
     fd2:	2f2e                	fld	ft10,200(sp)
     fd4:	2e2e                	fld	ft8,200(sp)
     fd6:	672f2e2f          	amoand.w.aqrl	t3,s2,(t5)
     fda:	2f006363          	bltu	zero,a6,12c0 <vprintfmt.constprop.1+0xe84>
     fde:	6f68                	flw	fa0,92(a4)
     fe0:	656d                	lui	a0,0x1b
     fe2:	6170732f          	0x6170732f
     fe6:	6b72                	flw	fs6,28(sp)
     fe8:	796c6673          	csrrsi	a2,0x796,24
     fec:	7469472f          	0x7469472f
     ff0:	7369722f          	0x7369722f
     ff4:	742d7663          	bleu	sp,s10,1740 <putchar+0xf0>
     ff8:	736c6f6f          	jal	t5,c772e <__C_STACK_TOP__+0xb772e>
     ffc:	7369722f          	0x7369722f
    1000:	672d7663          	bleu	s2,s10,166c <putchar+0x1c>
    1004:	756e                	flw	fa0,248(sp)
    1006:	742d                	lui	s0,0xfffeb
    1008:	636c6f6f          	jal	t5,c763e <__C_STACK_TOP__+0xb763e>
    100c:	6168                	flw	fa0,68(a0)
    100e:	6e69                	lui	t3,0x1a
    1010:	7369722f          	0x7369722f
    1014:	672d7663          	bleu	s2,s10,1680 <putchar+0x30>
    1018:	6c2f6363          	bltu	t5,sp,16de <putchar+0x8e>
    101c:	6269                	lui	tp,0x1a
    101e:	00636367          	0x636367
    1022:	5f00                	lw	s0,56(a4)
    1024:	7974                	flw	fa3,116(a0)
    1026:	6570                	flw	fa2,76(a0)
    1028:	00682e73          	csrrs	t3,0x6,a6
    102c:	0001                	nop
    102e:	6c00                	flw	fs0,24(s0)
    1030:	2e6b636f          	jal	t1,b7316 <__C_STACK_TOP__+0xa7316>
    1034:	0068                	addi	a0,sp,12
    1036:	0002                	0x2
    1038:	7300                	flw	fs0,32(a4)
    103a:	6474                	flw	fa3,76(s0)
    103c:	6564                	flw	fs1,76(a0)
    103e:	2e66                	fld	ft8,88(sp)
    1040:	0068                	addi	a0,sp,12
    1042:	5f000003          	lb	zero,1520(zero) # 5f0 <vprintfmt.constprop.1+0x1b4>
    1046:	7974                	flw	fa3,116(a0)
    1048:	6570                	flw	fa2,76(a0)
    104a:	00682e73          	csrrs	t3,0x6,a6
    104e:	0002                	0x2
    1050:	7200                	flw	fs0,32(a2)
    1052:	6565                	lui	a0,0x19
    1054:	746e                	flw	fs0,248(sp)
    1056:	682e                	flw	fa6,200(sp)
    1058:	0200                	addi	s0,sp,256
    105a:	0000                	unimp
    105c:	7265                	lui	tp,0xffff9
    105e:	6e72                	flw	ft8,28(sp)
    1060:	00682e6f          	jal	t3,83066 <__C_STACK_TOP__+0x73066>
    1064:	0002                	0x2
    1066:	7300                	flw	fs0,32(a4)
    1068:	6474                	flw	fa3,76(s0)
    106a:	696c                	flw	fa1,84(a0)
    106c:	2e62                	fld	ft8,24(sp)
    106e:	0068                	addi	a0,sp,12
    1070:	0004                	addi	s1,sp,0
    1072:	7500                	flw	fs0,40(a0)
    1074:	696e                	flw	fs2,216(sp)
    1076:	2e647473          	csrrci	s0,0x2e6,8
    107a:	0068                	addi	a0,sp,12
    107c:	0002                	0x2
    107e:	7400                	flw	fs0,40(s0)
    1080:	6d69                	lui	s10,0x1a
    1082:	2e65                	jal	143a <vprintfmt.constprop.1+0xffe>
    1084:	0068                	addi	a0,sp,12
    1086:	0004                	addi	s1,sp,0
    1088:	6800                	flw	fs0,16(s0)
    108a:	7361                	lui	t1,0xffff8
    108c:	7468                	flw	fa0,108(s0)
    108e:	6261                	lui	tp,0x18
    1090:	682e                	flw	fa6,200(sp)
    1092:	0500                	addi	s0,sp,640
    1094:	0000                	unimp
    1096:	6972                	flw	fs2,28(sp)
    1098:	2d766373          	csrrsi	t1,0x2d7,12
    109c:	7374706f          	j	48fd2 <__C_STACK_TOP__+0x38fd2>
    10a0:	682e                	flw	fa6,200(sp)
    10a2:	0600                	addi	s0,sp,768
    10a4:	0000                	unimp
    10a6:	6e69                	lui	t3,0x1a
    10a8:	632d6e73          	csrrsi	t3,0x632,26
    10ac:	74736e6f          	jal	t3,37ff2 <__C_STACK_TOP__+0x27ff2>
    10b0:	6e61                	lui	t3,0x18
    10b2:	7374                	flw	fa3,100(a4)
    10b4:	682e                	flw	fa6,200(sp)
    10b6:	0700                	addi	s0,sp,896
    10b8:	0000                	unimp
    10ba:	696c                	flw	fa1,84(a0)
    10bc:	6762                	flw	fa4,24(sp)
    10be:	2e326363          	bltu	tp,gp,13a4 <vprintfmt.constprop.1+0xf68>
    10c2:	0068                	addi	a0,sp,12
    10c4:	0008                	addi	a0,sp,0
    10c6:	6c00                	flw	fs0,24(s0)
    10c8:	6269                	lui	tp,0x1a
    10ca:	32636367          	0x32636367
    10ce:	632e                	flw	ft6,200(sp)
    10d0:	0800                	addi	s0,sp,16
    10d2:	0000                	unimp
	...

Disassembly of section .debug_str:

00000000 <.debug_str>:
   0:	726f6873          	csrrsi	a6,0x726,30
   4:	2074                	fld	fa3,192(s0)
   6:	6e69                	lui	t3,0x1a
   8:	0074                	addi	a3,sp,12
   a:	7468                	flw	fa0,108(s0)
   c:	6261                	lui	tp,0x18
   e:	685f 7361 5f68      	0x5f687361685f
  14:	6f70                	flw	fa2,92(a4)
  16:	6e69                	lui	t3,0x1a
  18:	6574                	flw	fa3,76(a0)
  1a:	0072                	0x72
  1c:	6d6f682f          	0x6d6f682f
  20:	2f65                	jal	7d8 <vprintfmt.constprop.1+0x39c>
  22:	72617073          	csrci	0x726,2
  26:	6c66736b          	0x6c66736b
  2a:	2f79                	jal	7c8 <vprintfmt.constprop.1+0x38c>
  2c:	2f746947          	0x2f746947
  30:	6972                	flw	fs2,28(sp)
  32:	2d766373          	csrrsi	t1,0x2d7,12
  36:	6f74                	flw	fa3,92(a4)
  38:	2f736c6f          	jal	s8,36b2e <__C_STACK_TOP__+0x26b2e>
  3c:	6972                	flw	fs2,28(sp)
  3e:	2d766373          	csrrsi	t1,0x2d7,12
  42:	2d756e67          	0x2d756e67
  46:	6f74                	flw	fa3,92(a4)
  48:	68636c6f          	jal	s8,366ce <__C_STACK_TOP__+0x266ce>
  4c:	6961                	lui	s2,0x18
  4e:	2f6e                	fld	ft10,216(sp)
  50:	6972                	flw	fs2,28(sp)
  52:	2d766373          	csrrsi	t1,0x2d7,12
  56:	2f636367          	0x2f636367
  5a:	696c                	flw	fa1,84(a0)
  5c:	6762                	flw	fa4,24(sp)
  5e:	6c2f6363          	bltu	t5,sp,724 <vprintfmt.constprop.1+0x2e8>
  62:	6269                	lui	tp,0x1a
  64:	32636367          	0x32636367
  68:	632e                	flw	ft6,200(sp)
  6a:	5f00                	lw	s0,56(a4)
  6c:	6172                	flw	ft2,28(sp)
  6e:	646e                	flw	fs0,216(sp)
  70:	3834                	fld	fa3,112(s0)
  72:	5f00                	lw	s0,56(a4)
  74:	6d65                	lui	s10,0x19
  76:	7265                	lui	tp,0xffff9
  78:	636e6567          	0x636e6567
  7c:	0079                	c.addi	zero,30
  7e:	645f 7961 696c      	0x696c7961645f
  84:	00746867          	0x746867
  88:	706d6f63          	bltu	s10,t1,7a6 <vprintfmt.constprop.1+0x36a>
  8c:	656c                	flw	fa1,76(a0)
  8e:	2078                	fld	fa4,192(s0)
  90:	6f64                	flw	fs1,92(a4)
  92:	6275                	lui	tp,0x1d
  94:	656c                	flw	fa1,76(a0)
  96:	5f00                	lw	s0,56(a4)
  98:	64746567          	0x64746567
  9c:	7461                	lui	s0,0xffff8
  9e:	5f65                	li	t5,-7
  a0:	7265                	lui	tp,0xffff9
  a2:	0072                	0x72
  a4:	645f 7461 0061      	0x617461645f
  aa:	775f 7263 6f74      	0x6f747263775f
  b0:	626d                	lui	tp,0x1b
  b2:	735f 6174 6574      	0x65746174735f
  b8:	5f00                	lw	s0,56(a4)
  ba:	72736377          	0x72736377
  be:	6f74                	flw	fa3,92(a4)
  c0:	626d                	lui	tp,0x1b
  c2:	74735f73          	csrrwi	t5,0x747,6
  c6:	7461                	lui	s0,0xffff8
  c8:	0065                	c.addi	zero,25
  ca:	5f5f 3064 5f00      	0x5f0030645f5f
  d0:	645f 0031 6c5f      	0x6c5f0031645f
  d6:	6662                	flw	fa2,24(sp)
  d8:	657a6973          	csrrsi	s2,0x657,20
  dc:	6f00                	flw	fs0,24(a4)
  de:	7470                	flw	fa2,108(s0)
  e0:	6e69                	lui	t3,0x1a
  e2:	0064                	addi	s1,sp,12
  e4:	706d6f63          	bltu	s10,t1,802 <vprintfmt.constprop.1+0x3c6>
  e8:	656c                	flw	fa1,76(a0)
  ea:	2078                	fld	fa4,192(s0)
  ec:	6f6c                	flw	fa1,92(a4)
  ee:	676e                	flw	fa4,216(sp)
  f0:	6420                	flw	fs0,72(s0)
  f2:	6c62756f          	jal	a0,277b8 <__C_STACK_TOP__+0x177b8>
  f6:	0065                	c.addi	zero,25
  f8:	6972                	flw	fs2,28(sp)
  fa:	5f766373          	csrrsi	t1,0x5f7,12
  fe:	6261                	lui	tp,0x18
 100:	0069                	c.addi	zero,26
 102:	6d5f 7262 6f74      	0x6f7472626d5f
 108:	735f6377          	0x735f6377
 10c:	6174                	flw	fa3,68(a0)
 10e:	6574                	flw	fa3,76(a0)
 110:	5f00                	lw	s0,56(a4)
 112:	7a74                	flw	fa3,116(a2)
 114:	616e                	flw	ft2,216(sp)
 116:	656d                	lui	a0,0x1b
 118:	5f00                	lw	s0,56(a4)
 11a:	745f 5f6d 6573      	0x65735f6d745f
 120:	635f0063          	beq	t5,s5,740 <vprintfmt.constprop.1+0x304>
 124:	6f6c                	flw	fa1,92(a4)
 126:	5f006573          	csrrsi	a0,0x5f0,0
 12a:	6275                	lui	tp,0x1d
 12c:	6675                	lui	a2,0x1d
 12e:	5f00                	lw	s0,56(a4)
 130:	6162                	flw	ft2,24(sp)
 132:	5f006573          	csrrsi	a0,0x5f0,0
 136:	745f 5f6d 6f68      	0x6f685f6d745f
 13c:	7275                	lui	tp,0xffffd
 13e:	5f00                	lw	s0,56(a4)
 140:	6f746377          	0x6f746377
 144:	626d                	lui	tp,0x1b
 146:	735f 6174 6574      	0x65746174735f
 14c:	5f00                	lw	s0,56(a4)
 14e:	735f 0066 6f5f      	0x6f5f0066735f
 154:	5f6e                	lw	t5,248(sp)
 156:	7865                	lui	a6,0xffff9
 158:	7469                	lui	s0,0xffffa
 15a:	615f 6772 0073      	0x736772615f
 160:	635f 6f6f 696b      	0x696b6f6f635f
 166:	0065                	c.addi	zero,25
 168:	5f5f 6773 756c      	0x756c67735f5f
 16e:	0065                	c.addi	zero,25
 170:	665f 616c 7367      	0x7367616c665f
 176:	5f00                	lw	s0,56(a4)
 178:	7369                	lui	t1,0xffffa
 17a:	635f 6178 5f00      	0x5f006178635f
 180:	00736477          	0x736477
 184:	5f5f 4946 454c      	0x454c49465f5f
 18a:	5f00                	lw	s0,56(a4)
 18c:	6572                	flw	fa0,28(sp)
 18e:	746c7573          	csrrci	a0,0x746,24
 192:	6b5f 5500 4953      	0x495355006b5f
 198:	7974                	flw	fa3,116(a0)
 19a:	6570                	flw	fa2,76(a0)
 19c:	6c00                	flw	fs0,24(s0)
 19e:	20676e6f          	jal	t3,763a4 <__C_STACK_TOP__+0x663a4>
 1a2:	6f6c                	flw	fa1,92(a4)
 1a4:	676e                	flw	fa4,216(sp)
 1a6:	6920                	flw	fs0,80(a0)
 1a8:	746e                	flw	fs0,248(sp)
 1aa:	5f00                	lw	s0,56(a4)
 1ac:	5f737973          	csrrci	s2,0x5f7,6
 1b0:	7265                	lui	tp,0xffff9
 1b2:	6c72                	flw	fs8,28(sp)
 1b4:	7369                	lui	t1,0xffffa
 1b6:	0074                	addi	a3,sp,12
 1b8:	635f 7476 7562      	0x75627476635f
 1be:	0066                	0x66
 1c0:	6d5f 7362 7472      	0x747273626d5f
 1c6:	7363776f          	jal	a4,378fc <__C_STACK_TOP__+0x278fc>
 1ca:	735f 6174 6574      	0x65746174735f
 1d0:	5f00                	lw	s0,56(a4)
 1d2:	626d                	lui	tp,0x1b
 1d4:	6c72                	flw	fs8,28(sp)
 1d6:	6e65                	lui	t3,0x19
 1d8:	735f 6174 6574      	0x65746174735f
 1de:	7200                	flw	fs0,32(a2)
 1e0:	7369                	lui	t1,0xffffa
 1e2:	635f7663          	bleu	s5,t5,80e <vprintfmt.constprop.1+0x3d2>
 1e6:	6f6d                	lui	t5,0x1b
 1e8:	6564                	flw	fs1,76(a0)
 1ea:	006c                	addi	a1,sp,12
 1ec:	665f 616e 6772      	0x6772616e665f
 1f2:	665f0073          	0x665f0073
 1f6:	736e                	flw	ft6,248(sp)
 1f8:	5f00                	lw	s0,56(a4)
 1fa:	6e676973          	csrrsi	s2,0x6e6,14
 1fe:	5f00                	lw	s0,56(a4)
 200:	65647473          	csrrci	s0,0x656,8
 204:	7272                	flw	ft4,60(sp)
 206:	5f00                	lw	s0,56(a4)
 208:	6d6d6167          	0x6d6d6167
 20c:	5f61                	li	t5,-8
 20e:	6e676973          	csrrsi	s2,0x6e6,14
 212:	006d6167          	0x6d6167
 216:	6e5f 616d 6c6c      	0x6c6c616d6e5f
 21c:	5f00636f          	jal	t1,680c <_gp+0x276c>
 220:	745f 006d 6972      	0x6972006d745f
 226:	5f766373          	csrrsi	t1,0x5f7,12
 22a:	6261                	lui	tp,0x18
 22c:	5f69                	li	t5,-6
 22e:	7974                	flw	fa3,116(a0)
 230:	6570                	flw	fa2,76(a0)
 232:	5f00                	lw	s0,56(a4)
 234:	626d                	lui	tp,0x1b
 236:	74617473          	csrrci	s0,0x746,2
 23a:	0065                	c.addi	zero,25
 23c:	5f5f 6377 6268      	0x626863775f5f
 242:	5f00                	lw	s0,56(a4)
 244:	6c747663          	bleu	t2,s0,910 <vprintfmt.constprop.1+0x4d4>
 248:	6e65                	lui	t3,0x19
 24a:	5f00                	lw	s0,56(a4)
 24c:	6966                	flw	fs2,88(sp)
 24e:	656c                	flw	fa1,76(a0)
 250:	6800                	flw	fs0,16(s0)
 252:	7361                	lui	t1,0xffff8
 254:	7668                	flw	fa0,108(a2)
 256:	6c61                	lui	s8,0x18
 258:	745f 4400 7557      	0x75574400745f
 25e:	696e                	flw	fs2,216(sp)
 260:	5f006e6f          	jal	t3,6850 <_gp+0x27b0>
 264:	696e                	flw	fs2,216(sp)
 266:	0073626f          	jal	tp,36a6c <__C_STACK_TOP__+0x26a6c>
 26a:	6f6c                	flw	fa1,92(a4)
 26c:	676e                	flw	fa4,216(sp)
 26e:	6c20                	flw	fs0,88(s0)
 270:	20676e6f          	jal	t3,76476 <__C_STACK_TOP__+0x66476>
 274:	6e75                	lui	t3,0x1d
 276:	6e676973          	csrrsi	s2,0x6e6,14
 27a:	6465                	lui	s0,0x19
 27c:	6920                	flw	fs0,80(a0)
 27e:	746e                	flw	fs0,248(sp)
 280:	4400                	lw	s0,8(s0)
 282:	72747357          	0x72747357
 286:	6375                	lui	t1,0x1d
 288:	0074                	addi	a3,sp,12
 28a:	726f6873          	csrrsi	a6,0x726,30
 28e:	2074                	fld	fa3,192(s0)
 290:	6e75                	lui	t3,0x1d
 292:	6e676973          	csrrsi	s2,0x6e6,14
 296:	6465                	lui	s0,0x19
 298:	6920                	flw	fs0,80(a0)
 29a:	746e                	flw	fs0,248(sp)
 29c:	5f00                	lw	s0,56(a4)
 29e:	635f 7a6c 745f      	0x745f7a6c635f
 2a4:	6261                	lui	tp,0x18
 2a6:	7500                	flw	fs0,40(a0)
 2a8:	736e                	flw	ft6,248(sp)
 2aa:	6570                	flw	fa2,76(a0)
 2ac:	735f7663          	bleu	s5,t5,9d8 <vprintfmt.constprop.1+0x59c>
 2b0:	7274                	flw	fa3,100(a2)
 2b2:	6e69                	lui	t3,0x1a
 2b4:	5f007367          	0x5f007367
 2b8:	7461                	lui	s0,0xffff8
 2ba:	7865                	lui	a6,0xffff9
 2bc:	7469                	lui	s0,0xffffa
 2be:	0030                	addi	a2,sp,8
 2c0:	735f 6769 616e      	0x616e6769735f
 2c6:	5f6c                	lw	a1,124(a4)
 2c8:	7562                	flw	fa0,56(sp)
 2ca:	0066                	0x66
 2cc:	615f 6373 6974      	0x69746373615f
 2d2:	656d                	lui	a0,0x1b
 2d4:	625f 6675 5f00      	0x5f006675625f
 2da:	6572                	flw	fa0,28(sp)
 2dc:	746c7573          	csrrci	a0,0x746,24
 2e0:	5f00                	lw	s0,56(a4)
 2e2:	775f 6863 5f00      	0x5f006863775f
 2e8:	656e                	flw	fa0,216(sp)
 2ea:	7478                	flw	fa4,108(s0)
 2ec:	0066                	0x66
 2ee:	6e65                	lui	t3,0x19
 2f0:	6976                	flw	fs2,92(sp)
 2f2:	6f72                	flw	ft10,28(sp)
 2f4:	006e                	0x6e
 2f6:	746e6977          	0x746e6977
 2fa:	745f 5f00 6f6c      	0x6f6c5f00745f
 300:	5f006b63          	bltu	zero,a6,8f6 <vprintfmt.constprop.1+0x4ba>
 304:	755f 0068 6d5f      	0x6d5f0068755f
 30a:	6c75                	lui	s8,0x1d
 30c:	0074                	addi	a3,sp,12
 30e:	5f5f 6c75 7500      	0x75006c755f5f
 314:	736e                	flw	ft6,248(sp)
 316:	6570                	flw	fa2,76(a0)
 318:	74735f63          	ble	t2,t1,a76 <vprintfmt.constprop.1+0x63a>
 31c:	6972                	flw	fs2,28(sp)
 31e:	676e                	flw	fa4,216(sp)
 320:	706f0073          	0x706f0073
 324:	7274                	flw	fa3,100(a2)
 326:	7365                	lui	t1,0xffff9
 328:	7465                	lui	s0,0xffff9
 32a:	5f00                	lw	s0,56(a4)
 32c:	74697277          	0x74697277
 330:	0065                	c.addi	zero,25
 332:	5f5f 6d74 795f      	0x795f6d745f5f
 338:	6165                	addi	sp,sp,112
 33a:	0072                	0x72
 33c:	5f5f 6f63 6e75      	0x6e756f635f5f
 342:	0074                	addi	a3,sp,12
 344:	755f 756e 6573      	0x6573756e755f
 34a:	5f64                	lw	s1,124(a4)
 34c:	6172                	flw	ft2,28(sp)
 34e:	646e                	flw	fs0,216(sp)
 350:	4100                	lw	s0,0(a0)
 352:	4942                	lw	s2,16(sp)
 354:	495f 504c 3233      	0x3233504c495f
 35a:	0044                	addi	s1,sp,4
 35c:	6972                	flw	fs2,28(sp)
 35e:	5f766373          	csrrsi	t1,0x5f7,12
 362:	65646f63          	bltu	s0,s6,9c0 <vprintfmt.constprop.1+0x584>
 366:	6d5f 646f 6c65      	0x6c65646f6d5f
 36c:	5f00                	lw	s0,56(a4)
 36e:	7366666f          	jal	a2,66aa4 <__C_STACK_TOP__+0x56aa4>
 372:	7465                	lui	s0,0xffff9
 374:	5f00                	lw	s0,56(a4)
 376:	6942                	flw	fs2,16(sp)
 378:	746e6967          	0x746e6967
 37c:	5f00                	lw	s0,56(a4)
 37e:	6d5f 646f 6964      	0x6964646f6d5f
 384:	42410033          	0x42410033
 388:	5f49                	li	t5,-14
 38a:	4c49                	li	s8,18
 38c:	3350                	fld	fa2,160(a4)
 38e:	4632                	lw	a2,12(sp)
 390:	6300                	flw	fs0,0(a4)
 392:	6c706d6f          	jal	s10,7258 <_gp+0x31b8>
 396:	7865                	lui	a6,0xffff9
 398:	6620                	flw	fs0,72(a2)
 39a:	6f6c                	flw	fa1,92(a4)
 39c:	7461                	lui	s0,0xffff8
 39e:	5f00                	lw	s0,56(a4)
 3a0:	745f 5f6d 6f6d      	0x6f6d5f6d745f
 3a6:	006e                	0x6e
 3a8:	615f 6574 6978      	0x69786574615f
 3ae:	0074                	addi	a3,sp,12
 3b0:	6f627573          	csrrci	a0,0x6f6,4
 3b4:	7470                	flw	fa2,108(s0)
 3b6:	7261                	lui	tp,0xffff8
 3b8:	5f5f0067          	jr	1525(t5) # 1b5f5 <__C_STACK_TOP__+0xb5f5>
 3bc:	64696473          	csrrsi	s0,0x646,18
 3c0:	6e69                	lui	t3,0x1a
 3c2:	7469                	lui	s0,0xffffa
 3c4:	5f00                	lw	s0,56(a4)
 3c6:	5f66666f          	jal	a2,669bc <__C_STACK_TOP__+0x569bc>
 3ca:	0074                	addi	a3,sp,12
 3cc:	5f5f 6876 5f00      	0x5f0068765f5f
 3d2:	765f 006c 665f      	0x665f006c765f
 3d8:	6572                	flw	fa0,28(sp)
 3da:	6c65                	lui	s8,0x19
 3dc:	7369                	lui	t1,0xffffa
 3de:	0074                	addi	a3,sp,12
 3e0:	745f 6d69 7a65      	0x7a656d69745f
 3e6:	00656e6f          	jal	t3,563ec <__C_STACK_TOP__+0x463ec>
 3ea:	6d5f 7362 6174      	0x617473626d5f
 3f0:	6574                	flw	fa3,76(a0)
 3f2:	745f 5f00 4f4c      	0x4f4c5f00745f
 3f8:	525f4b43          	fmadd.d	fs6,ft10,ft5,fa0,rmm
 3fc:	4345                	li	t1,17
 3fe:	5255                	li	tp,-11
 400:	45564953          	0x45564953
 404:	545f 5f00 6572      	0x65725f00545f
 40a:	6461                	lui	s0,0x18
 40c:	4100                	lw	s0,0(a0)
 40e:	4942                	lw	s2,16(sp)
 410:	4c5f 3650 0034      	0x3436504c5f
 416:	4241                	li	tp,16
 418:	5f49                	li	t5,-14
 41a:	4c49                	li	s8,18
 41c:	3350                	fld	fa2,160(a4)
 41e:	0032                	0x32
 420:	645f 6f73 685f      	0x685f6f73645f
 426:	6e61                	lui	t3,0x18
 428:	6c64                	flw	fs1,92(s0)
 42a:	0065                	c.addi	zero,25
 42c:	4d5f4d43          	0x4d5f4d43
 430:	4445                	li	s0,17
 432:	4e41                	li	t3,16
 434:	0059                	c.addi	zero,22
 436:	6e5f 7765 5f00      	0x5f0077656e5f
 43c:	5f68                	lw	a0,124(a4)
 43e:	7265                	lui	tp,0xffff9
 440:	6e72                	flw	ft8,28(sp)
 442:	665f006f          	j	f12a6 <__C_STACK_TOP__+0xe12a6>
 446:	6f6c                	flw	fa1,92(a4)
 448:	745f6b63          	bltu	t5,t0,b9e <vprintfmt.constprop.1+0x762>
 44c:	5f00                	lw	s0,56(a4)
 44e:	6c66                	flw	fs8,88(sp)
 450:	6761                	lui	a4,0x18
 452:	5f003273          	csrrc	tp,0x5f0,zero
 456:	6f69                	lui	t5,0x1a
 458:	7362                	flw	ft6,56(sp)
 45a:	4300                	lw	s0,0(a4)
 45c:	5f4d                	li	t5,-13
 45e:	454d                	li	a0,19
 460:	4c44                	lw	s1,28(s0)
 462:	6800574f          	fnmadd.s	fa4,ft0,ft0,fa3,unknown
 466:	6174                	flw	fa3,68(a0)
 468:	5f62                	lw	t5,56(sp)
 46a:	6168                	flw	fa0,68(a0)
 46c:	5f006873          	csrrsi	a6,0x5f0,0
 470:	735f 4946 454c      	0x454c4946735f
 476:	5f00                	lw	s0,56(a4)
 478:	5f737973          	csrrci	s2,0x5f7,6
 47c:	656e                	flw	fa0,216(sp)
 47e:	7272                	flw	ft4,60(sp)
 480:	5f00                	lw	s0,56(a4)
 482:	626d                	lui	tp,0x1b
 484:	656c                	flw	fa1,76(a0)
 486:	5f6e                	lw	t5,248(sp)
 488:	74617473          	csrrci	s0,0x746,2
 48c:	0065                	c.addi	zero,25
 48e:	695f 636e 5f00      	0x5f00636e695f
 494:	6e69                	lui	t3,0x1a
 496:	0064                	addi	s1,sp,12
 498:	635f 7275 6572      	0x65727275635f
 49e:	746e                	flw	fs0,248(sp)
 4a0:	6c5f 636f 6c61      	0x6c61636f6c5f
 4a6:	0065                	c.addi	zero,25
 4a8:	5f5f 6c63 6165      	0x61656c635f5f
 4ae:	756e                	flw	fa0,248(sp)
 4b0:	0070                	addi	a2,sp,12
 4b2:	6d5f 7861 6477      	0x647778616d5f
 4b8:	725f0073          	0x725f0073
 4bc:	6565                	lui	a0,0x19
 4be:	746e                	flw	fs0,248(sp)
 4c0:	5f00                	lw	s0,56(a4)
 4c2:	785f 0030 5f5f      	0x5f5f0030785f
 4c8:	3178                	fld	fa4,224(a0)
 4ca:	5f00                	lw	s0,56(a4)
 4cc:	785f 0032 5f5f      	0x5f5f0032785f
 4d2:	3378                	fld	fa4,224(a4)
 4d4:	5f00                	lw	s0,56(a4)
 4d6:	765f 6c61 6575      	0x65756c61765f
 4dc:	5f00                	lw	s0,56(a4)
 4de:	6b656573          	csrrsi	a0,0x6b6,10
 4e2:	5f00                	lw	s0,56(a4)
 4e4:	7066                	flw	ft0,120(sp)
 4e6:	745f736f          	jal	t1,f842a <__C_STACK_TOP__+0xe842a>
 4ea:	5f00                	lw	s0,56(a4)
 4ec:	6c62                	flw	fs8,24(sp)
 4ee:	7a69736b          	0x7a69736b
 4f2:	0065                	c.addi	zero,25
 4f4:	735f 7a69 0065      	0x657a69735f
 4fa:	5f5f 6475 7669      	0x766964755f5f
 500:	6f6d                	lui	t5,0x1b
 502:	6464                	flw	fs1,76(s0)
 504:	3469                	jal	ffffff8e <__C_STACK_TOP__+0xfffeff8e>
 506:	2f00                	fld	fs0,24(a4)
 508:	6f68                	flw	fa0,92(a4)
 50a:	656d                	lui	a0,0x1b
 50c:	6170732f          	0x6170732f
 510:	6b72                	flw	fs6,28(sp)
 512:	796c6673          	csrrsi	a2,0x796,24
 516:	7469472f          	0x7469472f
 51a:	7369722f          	0x7369722f
 51e:	742d7663          	bleu	sp,s10,c6a <vprintfmt.constprop.1+0x82e>
 522:	736c6f6f          	jal	t5,c6c58 <__C_STACK_TOP__+0xb6c58>
 526:	7369722f          	0x7369722f
 52a:	672d7663          	bleu	s2,s10,b96 <vprintfmt.constprop.1+0x75a>
 52e:	756e                	flw	fa0,248(sp)
 530:	742d                	lui	s0,0xfffeb
 532:	636c6f6f          	jal	t5,c6b68 <__C_STACK_TOP__+0xb6b68>
 536:	6168                	flw	fa0,68(a0)
 538:	6e69                	lui	t3,0x1a
 53a:	6975622f          	0x6975622f
 53e:	646c                	flw	fa1,76(s0)
 540:	672d                	lui	a4,0xb
 542:	6e2d6363          	bltu	s10,sp,c28 <vprintfmt.constprop.1+0x7ec>
 546:	7765                	lui	a4,0xffff9
 548:	696c                	flw	fa1,84(a0)
 54a:	2d62                	fld	fs10,24(sp)
 54c:	67617473          	csrrci	s0,0x676,2
 550:	3265                	jal	fffffef8 <__C_STACK_TOP__+0xfffefef8>
 552:	7369722f          	0x7369722f
 556:	32337663          	bleu	gp,t1,882 <vprintfmt.constprop.1+0x446>
 55a:	752d                	lui	a0,0xfffeb
 55c:	6b6e                	flw	fs6,216(sp)
 55e:	6f6e                	flw	ft10,216(sp)
 560:	652d6e77          	0x652d6e77
 564:	666c                	flw	fa1,76(a2)
 566:	62696c2f          	0x62696c2f
 56a:	00636367          	0x636367
 56e:	735f 6565 0064      	0x646565735f
 574:	6574706f          	j	483ca <__C_STACK_TOP__+0x383ca>
 578:	7272                	flw	ft4,60(sp)
 57a:	6800                	flw	fs0,16(s0)
 57c:	6769                	lui	a4,0x1a
 57e:	0068                	addi	a0,sp,12
 580:	5f5f 3071 5f00      	0x5f0030715f5f
 586:	715f 0031 735f      	0x735f0031715f
 58c:	7274                	flw	fa3,100(a2)
 58e:	6f74                	flw	fa3,92(a4)
 590:	616c5f6b          	0x616c5f6b
 594:	43007473          	csrrci	s0,0x430,0
 598:	5f4d                	li	t5,-13
 59a:	4950                	lw	a2,20(a0)
 59c:	665f0043          	0x665f0043
 5a0:	746e                	flw	fs0,248(sp)
 5a2:	7079                	0x7079
 5a4:	7365                	lui	t1,0xffff9
 5a6:	7500                	flw	fs0,40(a0)
 5a8:	736e                	flw	ft6,248(sp)
 5aa:	6769                	lui	a4,0x1a
 5ac:	656e                	flw	fa0,216(sp)
 5ae:	2064                	fld	fs1,192(s0)
 5b0:	72616863          	bltu	sp,t1,ce0 <vprintfmt.constprop.1+0x8a4>
 5b4:	5f00                	lw	s0,56(a4)
 5b6:	6461                	lui	s0,0x18
 5b8:	0064                	addi	s1,sp,12
 5ba:	5f5f 4c55 6e6f      	0x6e6f4c555f5f
 5c0:	74680067          	jr	1862(a6) # ffff9746 <__C_STACK_TOP__+0xfffe9746>
 5c4:	6261                	lui	tp,0x18
 5c6:	655f 5f71 6f70      	0x6f705f71655f
 5cc:	6e69                	lui	t3,0x1a
 5ce:	6574                	flw	fa3,76(a0)
 5d0:	0072                	0x72
 5d2:	5f5f 7278 5f00      	0x5f0072785f5f
 5d8:	626f6c67          	0x626f6c67
 5dc:	6c61                	lui	s8,0x18
 5de:	695f 706d 7275      	0x7275706d695f
 5e4:	5f65                	li	t5,-7
 5e6:	7470                	flw	fa2,108(s0)
 5e8:	0072                	0x72
 5ea:	4455                	li	s0,21
 5ec:	7449                	lui	s0,0xffff2
 5ee:	7079                	0x7079
 5f0:	0065                	c.addi	zero,25
 5f2:	735f 6474 756f      	0x756f6474735f
 5f8:	0074                	addi	a3,sp,12
 5fa:	5f5f 6d74 775f      	0x775f6d745f5f
 600:	6164                	flw	fs1,68(a0)
 602:	0079                	c.addi	zero,30
 604:	675f 756c 0065      	0x65756c675f
 60a:	735f 6474 6e69      	0x6e696474735f
 610:	5f00                	lw	s0,56(a4)
 612:	72727563          	bleu	t2,tp,d3c <vprintfmt.constprop.1+0x900>
 616:	6e65                	lui	t3,0x19
 618:	5f74                	lw	a3,124(a4)
 61a:	65746163          	bltu	s0,s7,c5c <vprintfmt.constprop.1+0x820>
 61e:	79726f67          	0x79726f67
 622:	5f00                	lw	s0,56(a4)
 624:	7a697373          	csrrci	t1,0x7a6,18
 628:	5f65                	li	t5,-7
 62a:	0074                	addi	a3,sp,12
 62c:	6c5f 3436 5f61      	0x5f6134366c5f
 632:	7562                	flw	fa0,56(sp)
 634:	0066                	0x66
 636:	735f 6769 665f      	0x665f6769735f
 63c:	6e75                	lui	t3,0x1d
 63e:	5f5f0063          	beq	t5,s5,c1e <vprintfmt.constprop.1+0x7e2>
 642:	6f70                	flw	fa2,92(a4)
 644:	6370                	flw	fa2,68(a4)
 646:	746e756f          	jal	a0,e7d8c <__C_STACK_TOP__+0xd7d8c>
 64a:	745f 6261 4700      	0x47006261745f
 650:	554e                	lw	a0,240(sp)
 652:	4320                	lw	s0,64(a4)
 654:	3131                	jal	260 <trap_entry+0x2a>
 656:	3720                	fld	fs0,104(a4)
 658:	312e                	fld	ft2,232(sp)
 65a:	312e                	fld	ft2,232(sp)
 65c:	3220                	fld	fs0,96(a2)
 65e:	3130                	fld	fa2,96(a0)
 660:	30353037          	lui	zero,0x30353
 664:	2039                	jal	672 <vprintfmt.constprop.1+0x236>
 666:	6d2d                	lui	s10,0xb
 668:	646f6d63          	bltu	t5,t1,cc2 <vprintfmt.constprop.1+0x886>
 66c:	6c65                	lui	s8,0x19
 66e:	6d3d                	lui	s10,0xf
 670:	6465                	lui	s0,0x19
 672:	6f6c                	flw	fa1,92(a4)
 674:	6d2d2077          	0x6d2d2077
 678:	646f6d63          	bltu	t5,t1,cd2 <vprintfmt.constprop.1+0x896>
 67c:	6c65                	lui	s8,0x19
 67e:	6d3d                	lui	s10,0xf
 680:	6465                	lui	s0,0x19
 682:	6f6c                	flw	fa1,92(a4)
 684:	6d2d2077          	0x6d2d2077
 688:	7261                	lui	tp,0xffff8
 68a:	723d6863          	bltu	s10,gp,dba <vprintfmt.constprop.1+0x97e>
 68e:	3376                	fld	ft6,376(sp)
 690:	6932                	flw	fs2,12(sp)
 692:	206d                	jal	73c <vprintfmt.constprop.1+0x300>
 694:	6d2d                	lui	s10,0xb
 696:	6261                	lui	tp,0x18
 698:	3d69                	jal	532 <vprintfmt.constprop.1+0xf6>
 69a:	6c69                	lui	s8,0x1a
 69c:	3370                	fld	fa2,224(a4)
 69e:	2032                	fld	ft0,264(sp)
 6a0:	672d                	lui	a4,0xb
 6a2:	2d20                	fld	fs0,88(a0)
 6a4:	2d20734f          	0x2d20734f
 6a8:	2d20324f          	0x2d20324f
 6ac:	2d20734f          	0x2d20734f
 6b0:	6266                	flw	ft4,88(sp)
 6b2:	6975                	lui	s2,0x1d
 6b4:	646c                	flw	fa1,76(s0)
 6b6:	6e69                	lui	t3,0x1a
 6b8:	696c2d67          	0x696c2d67
 6bc:	6762                	flw	fa4,24(sp)
 6be:	2d206363          	bltu	zero,s2,984 <vprintfmt.constprop.1+0x548>
 6c2:	6e66                	flw	ft8,88(sp)
 6c4:	74732d6f          	jal	s10,3360a <__C_STACK_TOP__+0x2360a>
 6c8:	6361                	lui	t1,0x18
 6ca:	72702d6b          	0x72702d6b
 6ce:	6365746f          	jal	s0,57d04 <__C_STACK_TOP__+0x47d04>
 6d2:	6f74                	flw	fa3,92(a4)
 6d4:	2072                	fld	ft0,280(sp)
 6d6:	662d                	lui	a2,0xb
 6d8:	7865                	lui	a6,0xffff9
 6da:	74706563          	bltu	zero,t2,e24 <vprintfmt.constprop.1+0x9e8>
 6de:	6f69                	lui	t5,0x1a
 6e0:	736e                	flw	ft6,248(sp)
 6e2:	2d20                	fld	fs0,88(a0)
 6e4:	6e66                	flw	ft8,88(sp)
 6e6:	632d6e6f          	jal	t3,d6d18 <__C_STACK_TOP__+0xc6d18>
 6ea:	6c61                	lui	s8,0x18
 6ec:	2d6c                	fld	fa1,216(a0)
 6ee:	7865                	lui	a6,0xffff9
 6f0:	74706563          	bltu	zero,t2,e3a <vprintfmt.constprop.1+0x9fe>
 6f4:	6f69                	lui	t5,0x1a
 6f6:	736e                	flw	ft6,248(sp)
 6f8:	2d20                	fld	fs0,88(a0)
 6fa:	7666                	flw	fa2,120(sp)
 6fc:	7369                	lui	t1,0xffffa
 6fe:	6269                	lui	tp,0x1a
 700:	6c69                	lui	s8,0x1a
 702:	7469                	lui	s0,0xffffa
 704:	3d79                	jal	5a2 <vprintfmt.constprop.1+0x166>
 706:	6968                	flw	fa0,84(a0)
 708:	6464                	flw	fs1,76(s0)
 70a:	6e65                	lui	t3,0x19
 70c:	5f00                	lw	s0,56(a4)
 70e:	626e                	flw	ft4,216(sp)
 710:	6675                	lui	a2,0x1d
 712:	5f00                	lw	s0,56(a4)
 714:	6e75                	lui	t3,0x1d
 716:	7375                	lui	t1,0xffffd
 718:	6465                	lui	s0,0x19
 71a:	5f00                	lw	s0,56(a4)
 71c:	725f 0030 5f5f      	0x5f5f0030725f
 722:	3172                	fld	ft2,312(sp)
 724:	5f00                	lw	s0,56(a4)
 726:	745f 5f6d 7369      	0x73695f6d745f
 72c:	7364                	flw	fs1,100(a4)
 72e:	0074                	addi	a3,sp,12
 730:	6c5f 636f 6c61      	0x6c61636f6c5f
 736:	6974                	flw	fa3,84(a0)
 738:	656d                	lui	a0,0x1b
 73a:	625f 6675 5f00      	0x5f006675625f
 740:	745f 5f6d 696d      	0x696d5f6d745f
 746:	006e                	0x6e
 748:	725f 3834 4100      	0x41003834725f
 74e:	4942                	lw	s2,16(sp)
 750:	4c5f 3650 4434      	0x443436504c5f
 756:	6f00                	flw	fs0,24(a4)
 758:	7470                	flw	fa2,108(s0)
 75a:	0074706f          	j	47f60 <__C_STACK_TOP__+0x37f60>
 75e:	4241                	li	tp,16
 760:	5f49                	li	t5,-14
 762:	504c                	lw	a1,36(s0)
 764:	3436                	fld	fs0,360(sp)
 766:	0046                	0x46
 768:	6d5f 7462 776f      	0x776f74626d5f
 76e:	74735f63          	ble	t2,t1,ecc <vprintfmt.constprop.1+0xa90>
 772:	7461                	lui	s0,0xffff8
 774:	0065                	c.addi	zero,25
 776:	705f 7335 5f00      	0x5f007335705f
 77c:	745f 5f6d 6479      	0x64795f6d745f
 782:	7961                	lui	s2,0xffff8
 784:	5500                	lw	s0,40(a0)
 786:	4951                	li	s2,20
 788:	7974                	flw	fa3,116(a0)
 78a:	6570                	flw	fa2,76(a0)
 78c:	5f00                	lw	s0,56(a4)
 78e:	735f 7562 0066      	0x667562735f
 794:	5f5f 6d74 6d5f      	0x6d5f6d745f5f
 79a:	6164                	flw	fs1,68(a0)
 79c:	0079                	c.addi	zero,30
 79e:	725f 6e61 5f64      	0x5f646e61725f
 7a4:	656e                	flw	fa0,216(sp)
 7a6:	7478                	flw	fa4,108(s0)
 7a8:	6800                	flw	fs0,16(s0)
 7aa:	6174                	flw	fa3,68(a0)
 7ac:	5f62                	lw	t5,56(sp)
 7ae:	7165                	addi	sp,sp,-400
 7b0:	5f00                	lw	s0,56(a4)
 7b2:	755f 6964 6476      	0x64766964755f
 7b8:	3369                	jal	542 <vprintfmt.constprop.1+0x106>
 7ba:	5f00                	lw	s0,56(a4)
 7bc:	755f 6f6d 6464      	0x64646f6d755f
 7c2:	3369                	jal	54c <vprintfmt.constprop.1+0x110>
 7c4:	4700                	lw	s0,8(a4)
 7c6:	554e                	lw	a0,240(sp)
 7c8:	4320                	lw	s0,64(a4)
 7ca:	3131                	jal	3d6 <printf_putch+0xd6>
 7cc:	3720                	fld	fs0,104(a4)
 7ce:	312e                	fld	ft2,232(sp)
 7d0:	312e                	fld	ft2,232(sp)
 7d2:	3220                	fld	fs0,96(a2)
 7d4:	3130                	fld	fa2,96(a0)
 7d6:	30353037          	lui	zero,0x30353
 7da:	2039                	jal	7e8 <vprintfmt.constprop.1+0x3ac>
 7dc:	6d2d                	lui	s10,0xb
 7de:	646f6d63          	bltu	t5,t1,e38 <vprintfmt.constprop.1+0x9fc>
 7e2:	6c65                	lui	s8,0x19
 7e4:	6d3d                	lui	s10,0xf
 7e6:	6465                	lui	s0,0x19
 7e8:	6f6c                	flw	fa1,92(a4)
 7ea:	6d2d2077          	0x6d2d2077
 7ee:	646f6d63          	bltu	t5,t1,e48 <vprintfmt.constprop.1+0xa0c>
 7f2:	6c65                	lui	s8,0x19
 7f4:	6d3d                	lui	s10,0xf
 7f6:	6465                	lui	s0,0x19
 7f8:	6f6c                	flw	fa1,92(a4)
 7fa:	6d2d2077          	0x6d2d2077
 7fe:	7261                	lui	tp,0xffff8
 800:	723d6863          	bltu	s10,gp,f30 <vprintfmt.constprop.1+0xaf4>
 804:	3376                	fld	ft6,376(sp)
 806:	6932                	flw	fs2,12(sp)
 808:	206d                	jal	8b2 <vprintfmt.constprop.1+0x476>
 80a:	6d2d                	lui	s10,0xb
 80c:	6261                	lui	tp,0x18
 80e:	3d69                	jal	6a8 <vprintfmt.constprop.1+0x26c>
 810:	6c69                	lui	s8,0x1a
 812:	3370                	fld	fa2,224(a4)
 814:	2032                	fld	ft0,264(sp)
 816:	672d                	lui	a4,0xb
 818:	2d20                	fld	fs0,88(a0)
 81a:	2d20734f          	0x2d20734f
 81e:	2d20324f          	0x2d20324f
 822:	2d20734f          	0x2d20734f
 826:	6266                	flw	ft4,88(sp)
 828:	6975                	lui	s2,0x1d
 82a:	646c                	flw	fa1,76(s0)
 82c:	6e69                	lui	t3,0x1a
 82e:	696c2d67          	0x696c2d67
 832:	6762                	flw	fa4,24(sp)
 834:	2d206363          	bltu	zero,s2,afa <vprintfmt.constprop.1+0x6be>
 838:	6e66                	flw	ft8,88(sp)
 83a:	74732d6f          	jal	s10,33780 <__C_STACK_TOP__+0x23780>
 83e:	6361                	lui	t1,0x18
 840:	72702d6b          	0x72702d6b
 844:	6365746f          	jal	s0,57e7a <__C_STACK_TOP__+0x47e7a>
 848:	6f74                	flw	fa3,92(a4)
 84a:	2072                	fld	ft0,280(sp)
 84c:	662d                	lui	a2,0xb
 84e:	6976                	flw	fs2,92(sp)
 850:	69626973          	csrrsi	s2,0x696,4
 854:	696c                	flw	fa1,84(a0)
 856:	7974                	flw	fa3,116(a0)
 858:	683d                	lui	a6,0xf
 85a:	6469                	lui	s0,0x1a
 85c:	6564                	flw	fs1,76(a0)
 85e:	006e                	0x6e
